
./build/test:     file format elf64-littleriscv


Disassembly of section .text:

0000000080000000 <_start>:
    80000000:	00000133          	add	x2,x0,x0
    80000004:	00000013          	addi	x0,x0,0
    80000008:	00000013          	addi	x0,x0,0
    8000000c:	00000013          	addi	x0,x0,0
    80000010:	00110133          	add	x2,x2,x1
    80000014:	00000013          	addi	x0,x0,0
    80000018:	00000013          	addi	x0,x0,0
    8000001c:	00000013          	addi	x0,x0,0
    80000020:	00110133          	add	x2,x2,x1
    80000024:	00000013          	addi	x0,x0,0
    80000028:	00000013          	addi	x0,x0,0
    8000002c:	00000013          	addi	x0,x0,0
    80000030:	000001b3          	add	x3,x0,x0
    80000034:	00000013          	addi	x0,x0,0
    80000038:	00000013          	addi	x0,x0,0
    8000003c:	00000013          	addi	x0,x0,0
    80000040:	001181b3          	add	x3,x3,x1
    80000044:	00000013          	addi	x0,x0,0
    80000048:	00000013          	addi	x0,x0,0
    8000004c:	00000013          	addi	x0,x0,0
    80000050:	001181b3          	add	x3,x3,x1
    80000054:	00000013          	addi	x0,x0,0
    80000058:	00000013          	addi	x0,x0,0
    8000005c:	00000013          	addi	x0,x0,0
    80000060:	001181b3          	add	x3,x3,x1
    80000064:	00000013          	addi	x0,x0,0
    80000068:	00000013          	addi	x0,x0,0
    8000006c:	00000013          	addi	x0,x0,0
    80000070:	00000233          	add	x4,x0,x0
    80000074:	00000013          	addi	x0,x0,0
    80000078:	00000013          	addi	x0,x0,0
    8000007c:	00000013          	addi	x0,x0,0
    80000080:	00120233          	add	x4,x4,x1
    80000084:	00000013          	addi	x0,x0,0
    80000088:	00000013          	addi	x0,x0,0
    8000008c:	00000013          	addi	x0,x0,0
    80000090:	00120233          	add	x4,x4,x1
    80000094:	00000013          	addi	x0,x0,0
    80000098:	00000013          	addi	x0,x0,0
    8000009c:	00000013          	addi	x0,x0,0
    800000a0:	00120233          	add	x4,x4,x1
    800000a4:	00000013          	addi	x0,x0,0
    800000a8:	00000013          	addi	x0,x0,0
    800000ac:	00000013          	addi	x0,x0,0
    800000b0:	00120233          	add	x4,x4,x1
    800000b4:	00000013          	addi	x0,x0,0
    800000b8:	00000013          	addi	x0,x0,0
    800000bc:	00000013          	addi	x0,x0,0
    800000c0:	000002b3          	add	x5,x0,x0
    800000c4:	00000013          	addi	x0,x0,0
    800000c8:	00000013          	addi	x0,x0,0
    800000cc:	00000013          	addi	x0,x0,0
    800000d0:	001282b3          	add	x5,x5,x1
    800000d4:	00000013          	addi	x0,x0,0
    800000d8:	00000013          	addi	x0,x0,0
    800000dc:	00000013          	addi	x0,x0,0
    800000e0:	001282b3          	add	x5,x5,x1
    800000e4:	00000013          	addi	x0,x0,0
    800000e8:	00000013          	addi	x0,x0,0
    800000ec:	00000013          	addi	x0,x0,0
    800000f0:	001282b3          	add	x5,x5,x1
    800000f4:	00000013          	addi	x0,x0,0
    800000f8:	00000013          	addi	x0,x0,0
    800000fc:	00000013          	addi	x0,x0,0
    80000100:	001282b3          	add	x5,x5,x1
    80000104:	00000013          	addi	x0,x0,0
    80000108:	00000013          	addi	x0,x0,0
    8000010c:	00000013          	addi	x0,x0,0
    80000110:	001282b3          	add	x5,x5,x1
    80000114:	00000013          	addi	x0,x0,0
    80000118:	00000013          	addi	x0,x0,0
    8000011c:	00000013          	addi	x0,x0,0
    80000120:	00000333          	add	x6,x0,x0
    80000124:	00000013          	addi	x0,x0,0
    80000128:	00000013          	addi	x0,x0,0
    8000012c:	00000013          	addi	x0,x0,0
    80000130:	00130333          	add	x6,x6,x1
    80000134:	00000013          	addi	x0,x0,0
    80000138:	00000013          	addi	x0,x0,0
    8000013c:	00000013          	addi	x0,x0,0
    80000140:	00130333          	add	x6,x6,x1
    80000144:	00000013          	addi	x0,x0,0
    80000148:	00000013          	addi	x0,x0,0
    8000014c:	00000013          	addi	x0,x0,0
    80000150:	00130333          	add	x6,x6,x1
    80000154:	00000013          	addi	x0,x0,0
    80000158:	00000013          	addi	x0,x0,0
    8000015c:	00000013          	addi	x0,x0,0
    80000160:	00130333          	add	x6,x6,x1
    80000164:	00000013          	addi	x0,x0,0
    80000168:	00000013          	addi	x0,x0,0
    8000016c:	00000013          	addi	x0,x0,0
    80000170:	00130333          	add	x6,x6,x1
    80000174:	00000013          	addi	x0,x0,0
    80000178:	00000013          	addi	x0,x0,0
    8000017c:	00000013          	addi	x0,x0,0
    80000180:	00130333          	add	x6,x6,x1
    80000184:	00000013          	addi	x0,x0,0
    80000188:	00000013          	addi	x0,x0,0
    8000018c:	00000013          	addi	x0,x0,0
    80000190:	000003b3          	add	x7,x0,x0
    80000194:	00000013          	addi	x0,x0,0
    80000198:	00000013          	addi	x0,x0,0
    8000019c:	00000013          	addi	x0,x0,0
    800001a0:	001383b3          	add	x7,x7,x1
    800001a4:	00000013          	addi	x0,x0,0
    800001a8:	00000013          	addi	x0,x0,0
    800001ac:	00000013          	addi	x0,x0,0
    800001b0:	001383b3          	add	x7,x7,x1
    800001b4:	00000013          	addi	x0,x0,0
    800001b8:	00000013          	addi	x0,x0,0
    800001bc:	00000013          	addi	x0,x0,0
    800001c0:	001383b3          	add	x7,x7,x1
    800001c4:	00000013          	addi	x0,x0,0
    800001c8:	00000013          	addi	x0,x0,0
    800001cc:	00000013          	addi	x0,x0,0
    800001d0:	001383b3          	add	x7,x7,x1
    800001d4:	00000013          	addi	x0,x0,0
    800001d8:	00000013          	addi	x0,x0,0
    800001dc:	00000013          	addi	x0,x0,0
    800001e0:	001383b3          	add	x7,x7,x1
    800001e4:	00000013          	addi	x0,x0,0
    800001e8:	00000013          	addi	x0,x0,0
    800001ec:	00000013          	addi	x0,x0,0
    800001f0:	001383b3          	add	x7,x7,x1
    800001f4:	00000013          	addi	x0,x0,0
    800001f8:	00000013          	addi	x0,x0,0
    800001fc:	00000013          	addi	x0,x0,0
    80000200:	001383b3          	add	x7,x7,x1
    80000204:	00000013          	addi	x0,x0,0
    80000208:	00000013          	addi	x0,x0,0
    8000020c:	00000013          	addi	x0,x0,0
    80000210:	00000433          	add	x8,x0,x0
    80000214:	00000013          	addi	x0,x0,0
    80000218:	00000013          	addi	x0,x0,0
    8000021c:	00000013          	addi	x0,x0,0
    80000220:	00140433          	add	x8,x8,x1
    80000224:	00000013          	addi	x0,x0,0
    80000228:	00000013          	addi	x0,x0,0
    8000022c:	00000013          	addi	x0,x0,0
    80000230:	00140433          	add	x8,x8,x1
    80000234:	00000013          	addi	x0,x0,0
    80000238:	00000013          	addi	x0,x0,0
    8000023c:	00000013          	addi	x0,x0,0
    80000240:	00140433          	add	x8,x8,x1
    80000244:	00000013          	addi	x0,x0,0
    80000248:	00000013          	addi	x0,x0,0
    8000024c:	00000013          	addi	x0,x0,0
    80000250:	00140433          	add	x8,x8,x1
    80000254:	00000013          	addi	x0,x0,0
    80000258:	00000013          	addi	x0,x0,0
    8000025c:	00000013          	addi	x0,x0,0
    80000260:	00140433          	add	x8,x8,x1
    80000264:	00000013          	addi	x0,x0,0
    80000268:	00000013          	addi	x0,x0,0
    8000026c:	00000013          	addi	x0,x0,0
    80000270:	00140433          	add	x8,x8,x1
    80000274:	00000013          	addi	x0,x0,0
    80000278:	00000013          	addi	x0,x0,0
    8000027c:	00000013          	addi	x0,x0,0
    80000280:	00140433          	add	x8,x8,x1
    80000284:	00000013          	addi	x0,x0,0
    80000288:	00000013          	addi	x0,x0,0
    8000028c:	00000013          	addi	x0,x0,0
    80000290:	00140433          	add	x8,x8,x1
    80000294:	00000013          	addi	x0,x0,0
    80000298:	00000013          	addi	x0,x0,0
    8000029c:	00000013          	addi	x0,x0,0
    800002a0:	000004b3          	add	x9,x0,x0
    800002a4:	00000013          	addi	x0,x0,0
    800002a8:	00000013          	addi	x0,x0,0
    800002ac:	00000013          	addi	x0,x0,0
    800002b0:	001484b3          	add	x9,x9,x1
    800002b4:	00000013          	addi	x0,x0,0
    800002b8:	00000013          	addi	x0,x0,0
    800002bc:	00000013          	addi	x0,x0,0
    800002c0:	001484b3          	add	x9,x9,x1
    800002c4:	00000013          	addi	x0,x0,0
    800002c8:	00000013          	addi	x0,x0,0
    800002cc:	00000013          	addi	x0,x0,0
    800002d0:	001484b3          	add	x9,x9,x1
    800002d4:	00000013          	addi	x0,x0,0
    800002d8:	00000013          	addi	x0,x0,0
    800002dc:	00000013          	addi	x0,x0,0
    800002e0:	001484b3          	add	x9,x9,x1
    800002e4:	00000013          	addi	x0,x0,0
    800002e8:	00000013          	addi	x0,x0,0
    800002ec:	00000013          	addi	x0,x0,0
    800002f0:	001484b3          	add	x9,x9,x1
    800002f4:	00000013          	addi	x0,x0,0
    800002f8:	00000013          	addi	x0,x0,0
    800002fc:	00000013          	addi	x0,x0,0
    80000300:	001484b3          	add	x9,x9,x1
    80000304:	00000013          	addi	x0,x0,0
    80000308:	00000013          	addi	x0,x0,0
    8000030c:	00000013          	addi	x0,x0,0
    80000310:	001484b3          	add	x9,x9,x1
    80000314:	00000013          	addi	x0,x0,0
    80000318:	00000013          	addi	x0,x0,0
    8000031c:	00000013          	addi	x0,x0,0
    80000320:	001484b3          	add	x9,x9,x1
    80000324:	00000013          	addi	x0,x0,0
    80000328:	00000013          	addi	x0,x0,0
    8000032c:	00000013          	addi	x0,x0,0
    80000330:	001484b3          	add	x9,x9,x1
    80000334:	00000013          	addi	x0,x0,0
    80000338:	00000013          	addi	x0,x0,0
    8000033c:	00000013          	addi	x0,x0,0
    80000340:	00000533          	add	x10,x0,x0
    80000344:	00000013          	addi	x0,x0,0
    80000348:	00000013          	addi	x0,x0,0
    8000034c:	00000013          	addi	x0,x0,0
    80000350:	00150533          	add	x10,x10,x1
    80000354:	00000013          	addi	x0,x0,0
    80000358:	00000013          	addi	x0,x0,0
    8000035c:	00000013          	addi	x0,x0,0
    80000360:	00150533          	add	x10,x10,x1
    80000364:	00000013          	addi	x0,x0,0
    80000368:	00000013          	addi	x0,x0,0
    8000036c:	00000013          	addi	x0,x0,0
    80000370:	00150533          	add	x10,x10,x1
    80000374:	00000013          	addi	x0,x0,0
    80000378:	00000013          	addi	x0,x0,0
    8000037c:	00000013          	addi	x0,x0,0
    80000380:	00150533          	add	x10,x10,x1
    80000384:	00000013          	addi	x0,x0,0
    80000388:	00000013          	addi	x0,x0,0
    8000038c:	00000013          	addi	x0,x0,0
    80000390:	00150533          	add	x10,x10,x1
    80000394:	00000013          	addi	x0,x0,0
    80000398:	00000013          	addi	x0,x0,0
    8000039c:	00000013          	addi	x0,x0,0
    800003a0:	00150533          	add	x10,x10,x1
    800003a4:	00000013          	addi	x0,x0,0
    800003a8:	00000013          	addi	x0,x0,0
    800003ac:	00000013          	addi	x0,x0,0
    800003b0:	00150533          	add	x10,x10,x1
    800003b4:	00000013          	addi	x0,x0,0
    800003b8:	00000013          	addi	x0,x0,0
    800003bc:	00000013          	addi	x0,x0,0
    800003c0:	00150533          	add	x10,x10,x1
    800003c4:	00000013          	addi	x0,x0,0
    800003c8:	00000013          	addi	x0,x0,0
    800003cc:	00000013          	addi	x0,x0,0
    800003d0:	00150533          	add	x10,x10,x1
    800003d4:	00000013          	addi	x0,x0,0
    800003d8:	00000013          	addi	x0,x0,0
    800003dc:	00000013          	addi	x0,x0,0
    800003e0:	00150533          	add	x10,x10,x1
    800003e4:	00000013          	addi	x0,x0,0
    800003e8:	00000013          	addi	x0,x0,0
    800003ec:	00000013          	addi	x0,x0,0
    800003f0:	000005b3          	add	x11,x0,x0
    800003f4:	00000013          	addi	x0,x0,0
    800003f8:	00000013          	addi	x0,x0,0
    800003fc:	00000013          	addi	x0,x0,0
    80000400:	001585b3          	add	x11,x11,x1
    80000404:	00000013          	addi	x0,x0,0
    80000408:	00000013          	addi	x0,x0,0
    8000040c:	00000013          	addi	x0,x0,0
    80000410:	001585b3          	add	x11,x11,x1
    80000414:	00000013          	addi	x0,x0,0
    80000418:	00000013          	addi	x0,x0,0
    8000041c:	00000013          	addi	x0,x0,0
    80000420:	001585b3          	add	x11,x11,x1
    80000424:	00000013          	addi	x0,x0,0
    80000428:	00000013          	addi	x0,x0,0
    8000042c:	00000013          	addi	x0,x0,0
    80000430:	001585b3          	add	x11,x11,x1
    80000434:	00000013          	addi	x0,x0,0
    80000438:	00000013          	addi	x0,x0,0
    8000043c:	00000013          	addi	x0,x0,0
    80000440:	001585b3          	add	x11,x11,x1
    80000444:	00000013          	addi	x0,x0,0
    80000448:	00000013          	addi	x0,x0,0
    8000044c:	00000013          	addi	x0,x0,0
    80000450:	001585b3          	add	x11,x11,x1
    80000454:	00000013          	addi	x0,x0,0
    80000458:	00000013          	addi	x0,x0,0
    8000045c:	00000013          	addi	x0,x0,0
    80000460:	001585b3          	add	x11,x11,x1
    80000464:	00000013          	addi	x0,x0,0
    80000468:	00000013          	addi	x0,x0,0
    8000046c:	00000013          	addi	x0,x0,0
    80000470:	001585b3          	add	x11,x11,x1
    80000474:	00000013          	addi	x0,x0,0
    80000478:	00000013          	addi	x0,x0,0
    8000047c:	00000013          	addi	x0,x0,0
    80000480:	001585b3          	add	x11,x11,x1
    80000484:	00000013          	addi	x0,x0,0
    80000488:	00000013          	addi	x0,x0,0
    8000048c:	00000013          	addi	x0,x0,0
    80000490:	001585b3          	add	x11,x11,x1
    80000494:	00000013          	addi	x0,x0,0
    80000498:	00000013          	addi	x0,x0,0
    8000049c:	00000013          	addi	x0,x0,0
    800004a0:	001585b3          	add	x11,x11,x1
    800004a4:	00000013          	addi	x0,x0,0
    800004a8:	00000013          	addi	x0,x0,0
    800004ac:	00000013          	addi	x0,x0,0
    800004b0:	00000633          	add	x12,x0,x0
    800004b4:	00000013          	addi	x0,x0,0
    800004b8:	00000013          	addi	x0,x0,0
    800004bc:	00000013          	addi	x0,x0,0
    800004c0:	00160633          	add	x12,x12,x1
    800004c4:	00000013          	addi	x0,x0,0
    800004c8:	00000013          	addi	x0,x0,0
    800004cc:	00000013          	addi	x0,x0,0
    800004d0:	00160633          	add	x12,x12,x1
    800004d4:	00000013          	addi	x0,x0,0
    800004d8:	00000013          	addi	x0,x0,0
    800004dc:	00000013          	addi	x0,x0,0
    800004e0:	00160633          	add	x12,x12,x1
    800004e4:	00000013          	addi	x0,x0,0
    800004e8:	00000013          	addi	x0,x0,0
    800004ec:	00000013          	addi	x0,x0,0
    800004f0:	00160633          	add	x12,x12,x1
    800004f4:	00000013          	addi	x0,x0,0
    800004f8:	00000013          	addi	x0,x0,0
    800004fc:	00000013          	addi	x0,x0,0
    80000500:	00160633          	add	x12,x12,x1
    80000504:	00000013          	addi	x0,x0,0
    80000508:	00000013          	addi	x0,x0,0
    8000050c:	00000013          	addi	x0,x0,0
    80000510:	00160633          	add	x12,x12,x1
    80000514:	00000013          	addi	x0,x0,0
    80000518:	00000013          	addi	x0,x0,0
    8000051c:	00000013          	addi	x0,x0,0
    80000520:	00160633          	add	x12,x12,x1
    80000524:	00000013          	addi	x0,x0,0
    80000528:	00000013          	addi	x0,x0,0
    8000052c:	00000013          	addi	x0,x0,0
    80000530:	00160633          	add	x12,x12,x1
    80000534:	00000013          	addi	x0,x0,0
    80000538:	00000013          	addi	x0,x0,0
    8000053c:	00000013          	addi	x0,x0,0
    80000540:	00160633          	add	x12,x12,x1
    80000544:	00000013          	addi	x0,x0,0
    80000548:	00000013          	addi	x0,x0,0
    8000054c:	00000013          	addi	x0,x0,0
    80000550:	00160633          	add	x12,x12,x1
    80000554:	00000013          	addi	x0,x0,0
    80000558:	00000013          	addi	x0,x0,0
    8000055c:	00000013          	addi	x0,x0,0
    80000560:	00160633          	add	x12,x12,x1
    80000564:	00000013          	addi	x0,x0,0
    80000568:	00000013          	addi	x0,x0,0
    8000056c:	00000013          	addi	x0,x0,0
    80000570:	00160633          	add	x12,x12,x1
    80000574:	00000013          	addi	x0,x0,0
    80000578:	00000013          	addi	x0,x0,0
    8000057c:	00000013          	addi	x0,x0,0
    80000580:	000006b3          	add	x13,x0,x0
    80000584:	00000013          	addi	x0,x0,0
    80000588:	00000013          	addi	x0,x0,0
    8000058c:	00000013          	addi	x0,x0,0
    80000590:	001686b3          	add	x13,x13,x1
    80000594:	00000013          	addi	x0,x0,0
    80000598:	00000013          	addi	x0,x0,0
    8000059c:	00000013          	addi	x0,x0,0
    800005a0:	001686b3          	add	x13,x13,x1
    800005a4:	00000013          	addi	x0,x0,0
    800005a8:	00000013          	addi	x0,x0,0
    800005ac:	00000013          	addi	x0,x0,0
    800005b0:	001686b3          	add	x13,x13,x1
    800005b4:	00000013          	addi	x0,x0,0
    800005b8:	00000013          	addi	x0,x0,0
    800005bc:	00000013          	addi	x0,x0,0
    800005c0:	001686b3          	add	x13,x13,x1
    800005c4:	00000013          	addi	x0,x0,0
    800005c8:	00000013          	addi	x0,x0,0
    800005cc:	00000013          	addi	x0,x0,0
    800005d0:	001686b3          	add	x13,x13,x1
    800005d4:	00000013          	addi	x0,x0,0
    800005d8:	00000013          	addi	x0,x0,0
    800005dc:	00000013          	addi	x0,x0,0
    800005e0:	001686b3          	add	x13,x13,x1
    800005e4:	00000013          	addi	x0,x0,0
    800005e8:	00000013          	addi	x0,x0,0
    800005ec:	00000013          	addi	x0,x0,0
    800005f0:	001686b3          	add	x13,x13,x1
    800005f4:	00000013          	addi	x0,x0,0
    800005f8:	00000013          	addi	x0,x0,0
    800005fc:	00000013          	addi	x0,x0,0
    80000600:	001686b3          	add	x13,x13,x1
    80000604:	00000013          	addi	x0,x0,0
    80000608:	00000013          	addi	x0,x0,0
    8000060c:	00000013          	addi	x0,x0,0
    80000610:	001686b3          	add	x13,x13,x1
    80000614:	00000013          	addi	x0,x0,0
    80000618:	00000013          	addi	x0,x0,0
    8000061c:	00000013          	addi	x0,x0,0
    80000620:	001686b3          	add	x13,x13,x1
    80000624:	00000013          	addi	x0,x0,0
    80000628:	00000013          	addi	x0,x0,0
    8000062c:	00000013          	addi	x0,x0,0
    80000630:	001686b3          	add	x13,x13,x1
    80000634:	00000013          	addi	x0,x0,0
    80000638:	00000013          	addi	x0,x0,0
    8000063c:	00000013          	addi	x0,x0,0
    80000640:	001686b3          	add	x13,x13,x1
    80000644:	00000013          	addi	x0,x0,0
    80000648:	00000013          	addi	x0,x0,0
    8000064c:	00000013          	addi	x0,x0,0
    80000650:	001686b3          	add	x13,x13,x1
    80000654:	00000013          	addi	x0,x0,0
    80000658:	00000013          	addi	x0,x0,0
    8000065c:	00000013          	addi	x0,x0,0
    80000660:	00000733          	add	x14,x0,x0
    80000664:	00000013          	addi	x0,x0,0
    80000668:	00000013          	addi	x0,x0,0
    8000066c:	00000013          	addi	x0,x0,0
    80000670:	00170733          	add	x14,x14,x1
    80000674:	00000013          	addi	x0,x0,0
    80000678:	00000013          	addi	x0,x0,0
    8000067c:	00000013          	addi	x0,x0,0
    80000680:	00170733          	add	x14,x14,x1
    80000684:	00000013          	addi	x0,x0,0
    80000688:	00000013          	addi	x0,x0,0
    8000068c:	00000013          	addi	x0,x0,0
    80000690:	00170733          	add	x14,x14,x1
    80000694:	00000013          	addi	x0,x0,0
    80000698:	00000013          	addi	x0,x0,0
    8000069c:	00000013          	addi	x0,x0,0
    800006a0:	00170733          	add	x14,x14,x1
    800006a4:	00000013          	addi	x0,x0,0
    800006a8:	00000013          	addi	x0,x0,0
    800006ac:	00000013          	addi	x0,x0,0
    800006b0:	00170733          	add	x14,x14,x1
    800006b4:	00000013          	addi	x0,x0,0
    800006b8:	00000013          	addi	x0,x0,0
    800006bc:	00000013          	addi	x0,x0,0
    800006c0:	00170733          	add	x14,x14,x1
    800006c4:	00000013          	addi	x0,x0,0
    800006c8:	00000013          	addi	x0,x0,0
    800006cc:	00000013          	addi	x0,x0,0
    800006d0:	00170733          	add	x14,x14,x1
    800006d4:	00000013          	addi	x0,x0,0
    800006d8:	00000013          	addi	x0,x0,0
    800006dc:	00000013          	addi	x0,x0,0
    800006e0:	00170733          	add	x14,x14,x1
    800006e4:	00000013          	addi	x0,x0,0
    800006e8:	00000013          	addi	x0,x0,0
    800006ec:	00000013          	addi	x0,x0,0
    800006f0:	00170733          	add	x14,x14,x1
    800006f4:	00000013          	addi	x0,x0,0
    800006f8:	00000013          	addi	x0,x0,0
    800006fc:	00000013          	addi	x0,x0,0
    80000700:	00170733          	add	x14,x14,x1
    80000704:	00000013          	addi	x0,x0,0
    80000708:	00000013          	addi	x0,x0,0
    8000070c:	00000013          	addi	x0,x0,0
    80000710:	00170733          	add	x14,x14,x1
    80000714:	00000013          	addi	x0,x0,0
    80000718:	00000013          	addi	x0,x0,0
    8000071c:	00000013          	addi	x0,x0,0
    80000720:	00170733          	add	x14,x14,x1
    80000724:	00000013          	addi	x0,x0,0
    80000728:	00000013          	addi	x0,x0,0
    8000072c:	00000013          	addi	x0,x0,0
    80000730:	00170733          	add	x14,x14,x1
    80000734:	00000013          	addi	x0,x0,0
    80000738:	00000013          	addi	x0,x0,0
    8000073c:	00000013          	addi	x0,x0,0
    80000740:	00170733          	add	x14,x14,x1
    80000744:	00000013          	addi	x0,x0,0
    80000748:	00000013          	addi	x0,x0,0
    8000074c:	00000013          	addi	x0,x0,0
    80000750:	000007b3          	add	x15,x0,x0
    80000754:	00000013          	addi	x0,x0,0
    80000758:	00000013          	addi	x0,x0,0
    8000075c:	00000013          	addi	x0,x0,0
    80000760:	001787b3          	add	x15,x15,x1
    80000764:	00000013          	addi	x0,x0,0
    80000768:	00000013          	addi	x0,x0,0
    8000076c:	00000013          	addi	x0,x0,0
    80000770:	001787b3          	add	x15,x15,x1
    80000774:	00000013          	addi	x0,x0,0
    80000778:	00000013          	addi	x0,x0,0
    8000077c:	00000013          	addi	x0,x0,0
    80000780:	001787b3          	add	x15,x15,x1
    80000784:	00000013          	addi	x0,x0,0
    80000788:	00000013          	addi	x0,x0,0
    8000078c:	00000013          	addi	x0,x0,0
    80000790:	001787b3          	add	x15,x15,x1
    80000794:	00000013          	addi	x0,x0,0
    80000798:	00000013          	addi	x0,x0,0
    8000079c:	00000013          	addi	x0,x0,0
    800007a0:	001787b3          	add	x15,x15,x1
    800007a4:	00000013          	addi	x0,x0,0
    800007a8:	00000013          	addi	x0,x0,0
    800007ac:	00000013          	addi	x0,x0,0
    800007b0:	001787b3          	add	x15,x15,x1
    800007b4:	00000013          	addi	x0,x0,0
    800007b8:	00000013          	addi	x0,x0,0
    800007bc:	00000013          	addi	x0,x0,0
    800007c0:	001787b3          	add	x15,x15,x1
    800007c4:	00000013          	addi	x0,x0,0
    800007c8:	00000013          	addi	x0,x0,0
    800007cc:	00000013          	addi	x0,x0,0
    800007d0:	001787b3          	add	x15,x15,x1
    800007d4:	00000013          	addi	x0,x0,0
    800007d8:	00000013          	addi	x0,x0,0
    800007dc:	00000013          	addi	x0,x0,0
    800007e0:	001787b3          	add	x15,x15,x1
    800007e4:	00000013          	addi	x0,x0,0
    800007e8:	00000013          	addi	x0,x0,0
    800007ec:	00000013          	addi	x0,x0,0
    800007f0:	001787b3          	add	x15,x15,x1
    800007f4:	00000013          	addi	x0,x0,0
    800007f8:	00000013          	addi	x0,x0,0
    800007fc:	00000013          	addi	x0,x0,0
    80000800:	001787b3          	add	x15,x15,x1
    80000804:	00000013          	addi	x0,x0,0
    80000808:	00000013          	addi	x0,x0,0
    8000080c:	00000013          	addi	x0,x0,0
    80000810:	001787b3          	add	x15,x15,x1
    80000814:	00000013          	addi	x0,x0,0
    80000818:	00000013          	addi	x0,x0,0
    8000081c:	00000013          	addi	x0,x0,0
    80000820:	001787b3          	add	x15,x15,x1
    80000824:	00000013          	addi	x0,x0,0
    80000828:	00000013          	addi	x0,x0,0
    8000082c:	00000013          	addi	x0,x0,0
    80000830:	001787b3          	add	x15,x15,x1
    80000834:	00000013          	addi	x0,x0,0
    80000838:	00000013          	addi	x0,x0,0
    8000083c:	00000013          	addi	x0,x0,0
    80000840:	001787b3          	add	x15,x15,x1
    80000844:	00000013          	addi	x0,x0,0
    80000848:	00000013          	addi	x0,x0,0
    8000084c:	00000013          	addi	x0,x0,0
    80000850:	00000833          	add	x16,x0,x0
    80000854:	00000013          	addi	x0,x0,0
    80000858:	00000013          	addi	x0,x0,0
    8000085c:	00000013          	addi	x0,x0,0
    80000860:	00180833          	add	x16,x16,x1
    80000864:	00000013          	addi	x0,x0,0
    80000868:	00000013          	addi	x0,x0,0
    8000086c:	00000013          	addi	x0,x0,0
    80000870:	00180833          	add	x16,x16,x1
    80000874:	00000013          	addi	x0,x0,0
    80000878:	00000013          	addi	x0,x0,0
    8000087c:	00000013          	addi	x0,x0,0
    80000880:	00180833          	add	x16,x16,x1
    80000884:	00000013          	addi	x0,x0,0
    80000888:	00000013          	addi	x0,x0,0
    8000088c:	00000013          	addi	x0,x0,0
    80000890:	00180833          	add	x16,x16,x1
    80000894:	00000013          	addi	x0,x0,0
    80000898:	00000013          	addi	x0,x0,0
    8000089c:	00000013          	addi	x0,x0,0
    800008a0:	00180833          	add	x16,x16,x1
    800008a4:	00000013          	addi	x0,x0,0
    800008a8:	00000013          	addi	x0,x0,0
    800008ac:	00000013          	addi	x0,x0,0
    800008b0:	00180833          	add	x16,x16,x1
    800008b4:	00000013          	addi	x0,x0,0
    800008b8:	00000013          	addi	x0,x0,0
    800008bc:	00000013          	addi	x0,x0,0
    800008c0:	00180833          	add	x16,x16,x1
    800008c4:	00000013          	addi	x0,x0,0
    800008c8:	00000013          	addi	x0,x0,0
    800008cc:	00000013          	addi	x0,x0,0
    800008d0:	00180833          	add	x16,x16,x1
    800008d4:	00000013          	addi	x0,x0,0
    800008d8:	00000013          	addi	x0,x0,0
    800008dc:	00000013          	addi	x0,x0,0
    800008e0:	00180833          	add	x16,x16,x1
    800008e4:	00000013          	addi	x0,x0,0
    800008e8:	00000013          	addi	x0,x0,0
    800008ec:	00000013          	addi	x0,x0,0
    800008f0:	00180833          	add	x16,x16,x1
    800008f4:	00000013          	addi	x0,x0,0
    800008f8:	00000013          	addi	x0,x0,0
    800008fc:	00000013          	addi	x0,x0,0
    80000900:	00180833          	add	x16,x16,x1
    80000904:	00000013          	addi	x0,x0,0
    80000908:	00000013          	addi	x0,x0,0
    8000090c:	00000013          	addi	x0,x0,0
    80000910:	00180833          	add	x16,x16,x1
    80000914:	00000013          	addi	x0,x0,0
    80000918:	00000013          	addi	x0,x0,0
    8000091c:	00000013          	addi	x0,x0,0
    80000920:	00180833          	add	x16,x16,x1
    80000924:	00000013          	addi	x0,x0,0
    80000928:	00000013          	addi	x0,x0,0
    8000092c:	00000013          	addi	x0,x0,0
    80000930:	00180833          	add	x16,x16,x1
    80000934:	00000013          	addi	x0,x0,0
    80000938:	00000013          	addi	x0,x0,0
    8000093c:	00000013          	addi	x0,x0,0
    80000940:	00180833          	add	x16,x16,x1
    80000944:	00000013          	addi	x0,x0,0
    80000948:	00000013          	addi	x0,x0,0
    8000094c:	00000013          	addi	x0,x0,0
    80000950:	00180833          	add	x16,x16,x1
    80000954:	00000013          	addi	x0,x0,0
    80000958:	00000013          	addi	x0,x0,0
    8000095c:	00000013          	addi	x0,x0,0
    80000960:	000008b3          	add	x17,x0,x0
    80000964:	00000013          	addi	x0,x0,0
    80000968:	00000013          	addi	x0,x0,0
    8000096c:	00000013          	addi	x0,x0,0
    80000970:	001888b3          	add	x17,x17,x1
    80000974:	00000013          	addi	x0,x0,0
    80000978:	00000013          	addi	x0,x0,0
    8000097c:	00000013          	addi	x0,x0,0
    80000980:	001888b3          	add	x17,x17,x1
    80000984:	00000013          	addi	x0,x0,0
    80000988:	00000013          	addi	x0,x0,0
    8000098c:	00000013          	addi	x0,x0,0
    80000990:	001888b3          	add	x17,x17,x1
    80000994:	00000013          	addi	x0,x0,0
    80000998:	00000013          	addi	x0,x0,0
    8000099c:	00000013          	addi	x0,x0,0
    800009a0:	001888b3          	add	x17,x17,x1
    800009a4:	00000013          	addi	x0,x0,0
    800009a8:	00000013          	addi	x0,x0,0
    800009ac:	00000013          	addi	x0,x0,0
    800009b0:	001888b3          	add	x17,x17,x1
    800009b4:	00000013          	addi	x0,x0,0
    800009b8:	00000013          	addi	x0,x0,0
    800009bc:	00000013          	addi	x0,x0,0
    800009c0:	001888b3          	add	x17,x17,x1
    800009c4:	00000013          	addi	x0,x0,0
    800009c8:	00000013          	addi	x0,x0,0
    800009cc:	00000013          	addi	x0,x0,0
    800009d0:	001888b3          	add	x17,x17,x1
    800009d4:	00000013          	addi	x0,x0,0
    800009d8:	00000013          	addi	x0,x0,0
    800009dc:	00000013          	addi	x0,x0,0
    800009e0:	001888b3          	add	x17,x17,x1
    800009e4:	00000013          	addi	x0,x0,0
    800009e8:	00000013          	addi	x0,x0,0
    800009ec:	00000013          	addi	x0,x0,0
    800009f0:	001888b3          	add	x17,x17,x1
    800009f4:	00000013          	addi	x0,x0,0
    800009f8:	00000013          	addi	x0,x0,0
    800009fc:	00000013          	addi	x0,x0,0
    80000a00:	001888b3          	add	x17,x17,x1
    80000a04:	00000013          	addi	x0,x0,0
    80000a08:	00000013          	addi	x0,x0,0
    80000a0c:	00000013          	addi	x0,x0,0
    80000a10:	001888b3          	add	x17,x17,x1
    80000a14:	00000013          	addi	x0,x0,0
    80000a18:	00000013          	addi	x0,x0,0
    80000a1c:	00000013          	addi	x0,x0,0
    80000a20:	001888b3          	add	x17,x17,x1
    80000a24:	00000013          	addi	x0,x0,0
    80000a28:	00000013          	addi	x0,x0,0
    80000a2c:	00000013          	addi	x0,x0,0
    80000a30:	001888b3          	add	x17,x17,x1
    80000a34:	00000013          	addi	x0,x0,0
    80000a38:	00000013          	addi	x0,x0,0
    80000a3c:	00000013          	addi	x0,x0,0
    80000a40:	001888b3          	add	x17,x17,x1
    80000a44:	00000013          	addi	x0,x0,0
    80000a48:	00000013          	addi	x0,x0,0
    80000a4c:	00000013          	addi	x0,x0,0
    80000a50:	001888b3          	add	x17,x17,x1
    80000a54:	00000013          	addi	x0,x0,0
    80000a58:	00000013          	addi	x0,x0,0
    80000a5c:	00000013          	addi	x0,x0,0
    80000a60:	001888b3          	add	x17,x17,x1
    80000a64:	00000013          	addi	x0,x0,0
    80000a68:	00000013          	addi	x0,x0,0
    80000a6c:	00000013          	addi	x0,x0,0
    80000a70:	001888b3          	add	x17,x17,x1
    80000a74:	00000013          	addi	x0,x0,0
    80000a78:	00000013          	addi	x0,x0,0
    80000a7c:	00000013          	addi	x0,x0,0
    80000a80:	00000933          	add	x18,x0,x0
    80000a84:	00000013          	addi	x0,x0,0
    80000a88:	00000013          	addi	x0,x0,0
    80000a8c:	00000013          	addi	x0,x0,0
    80000a90:	00190933          	add	x18,x18,x1
    80000a94:	00000013          	addi	x0,x0,0
    80000a98:	00000013          	addi	x0,x0,0
    80000a9c:	00000013          	addi	x0,x0,0
    80000aa0:	00190933          	add	x18,x18,x1
    80000aa4:	00000013          	addi	x0,x0,0
    80000aa8:	00000013          	addi	x0,x0,0
    80000aac:	00000013          	addi	x0,x0,0
    80000ab0:	00190933          	add	x18,x18,x1
    80000ab4:	00000013          	addi	x0,x0,0
    80000ab8:	00000013          	addi	x0,x0,0
    80000abc:	00000013          	addi	x0,x0,0
    80000ac0:	00190933          	add	x18,x18,x1
    80000ac4:	00000013          	addi	x0,x0,0
    80000ac8:	00000013          	addi	x0,x0,0
    80000acc:	00000013          	addi	x0,x0,0
    80000ad0:	00190933          	add	x18,x18,x1
    80000ad4:	00000013          	addi	x0,x0,0
    80000ad8:	00000013          	addi	x0,x0,0
    80000adc:	00000013          	addi	x0,x0,0
    80000ae0:	00190933          	add	x18,x18,x1
    80000ae4:	00000013          	addi	x0,x0,0
    80000ae8:	00000013          	addi	x0,x0,0
    80000aec:	00000013          	addi	x0,x0,0
    80000af0:	00190933          	add	x18,x18,x1
    80000af4:	00000013          	addi	x0,x0,0
    80000af8:	00000013          	addi	x0,x0,0
    80000afc:	00000013          	addi	x0,x0,0
    80000b00:	00190933          	add	x18,x18,x1
    80000b04:	00000013          	addi	x0,x0,0
    80000b08:	00000013          	addi	x0,x0,0
    80000b0c:	00000013          	addi	x0,x0,0
    80000b10:	00190933          	add	x18,x18,x1
    80000b14:	00000013          	addi	x0,x0,0
    80000b18:	00000013          	addi	x0,x0,0
    80000b1c:	00000013          	addi	x0,x0,0
    80000b20:	00190933          	add	x18,x18,x1
    80000b24:	00000013          	addi	x0,x0,0
    80000b28:	00000013          	addi	x0,x0,0
    80000b2c:	00000013          	addi	x0,x0,0
    80000b30:	00190933          	add	x18,x18,x1
    80000b34:	00000013          	addi	x0,x0,0
    80000b38:	00000013          	addi	x0,x0,0
    80000b3c:	00000013          	addi	x0,x0,0
    80000b40:	00190933          	add	x18,x18,x1
    80000b44:	00000013          	addi	x0,x0,0
    80000b48:	00000013          	addi	x0,x0,0
    80000b4c:	00000013          	addi	x0,x0,0
    80000b50:	00190933          	add	x18,x18,x1
    80000b54:	00000013          	addi	x0,x0,0
    80000b58:	00000013          	addi	x0,x0,0
    80000b5c:	00000013          	addi	x0,x0,0
    80000b60:	00190933          	add	x18,x18,x1
    80000b64:	00000013          	addi	x0,x0,0
    80000b68:	00000013          	addi	x0,x0,0
    80000b6c:	00000013          	addi	x0,x0,0
    80000b70:	00190933          	add	x18,x18,x1
    80000b74:	00000013          	addi	x0,x0,0
    80000b78:	00000013          	addi	x0,x0,0
    80000b7c:	00000013          	addi	x0,x0,0
    80000b80:	00190933          	add	x18,x18,x1
    80000b84:	00000013          	addi	x0,x0,0
    80000b88:	00000013          	addi	x0,x0,0
    80000b8c:	00000013          	addi	x0,x0,0
    80000b90:	00190933          	add	x18,x18,x1
    80000b94:	00000013          	addi	x0,x0,0
    80000b98:	00000013          	addi	x0,x0,0
    80000b9c:	00000013          	addi	x0,x0,0
    80000ba0:	00190933          	add	x18,x18,x1
    80000ba4:	00000013          	addi	x0,x0,0
    80000ba8:	00000013          	addi	x0,x0,0
    80000bac:	00000013          	addi	x0,x0,0
    80000bb0:	000009b3          	add	x19,x0,x0
    80000bb4:	00000013          	addi	x0,x0,0
    80000bb8:	00000013          	addi	x0,x0,0
    80000bbc:	00000013          	addi	x0,x0,0
    80000bc0:	001989b3          	add	x19,x19,x1
    80000bc4:	00000013          	addi	x0,x0,0
    80000bc8:	00000013          	addi	x0,x0,0
    80000bcc:	00000013          	addi	x0,x0,0
    80000bd0:	001989b3          	add	x19,x19,x1
    80000bd4:	00000013          	addi	x0,x0,0
    80000bd8:	00000013          	addi	x0,x0,0
    80000bdc:	00000013          	addi	x0,x0,0
    80000be0:	001989b3          	add	x19,x19,x1
    80000be4:	00000013          	addi	x0,x0,0
    80000be8:	00000013          	addi	x0,x0,0
    80000bec:	00000013          	addi	x0,x0,0
    80000bf0:	001989b3          	add	x19,x19,x1
    80000bf4:	00000013          	addi	x0,x0,0
    80000bf8:	00000013          	addi	x0,x0,0
    80000bfc:	00000013          	addi	x0,x0,0
    80000c00:	001989b3          	add	x19,x19,x1
    80000c04:	00000013          	addi	x0,x0,0
    80000c08:	00000013          	addi	x0,x0,0
    80000c0c:	00000013          	addi	x0,x0,0
    80000c10:	001989b3          	add	x19,x19,x1
    80000c14:	00000013          	addi	x0,x0,0
    80000c18:	00000013          	addi	x0,x0,0
    80000c1c:	00000013          	addi	x0,x0,0
    80000c20:	001989b3          	add	x19,x19,x1
    80000c24:	00000013          	addi	x0,x0,0
    80000c28:	00000013          	addi	x0,x0,0
    80000c2c:	00000013          	addi	x0,x0,0
    80000c30:	001989b3          	add	x19,x19,x1
    80000c34:	00000013          	addi	x0,x0,0
    80000c38:	00000013          	addi	x0,x0,0
    80000c3c:	00000013          	addi	x0,x0,0
    80000c40:	001989b3          	add	x19,x19,x1
    80000c44:	00000013          	addi	x0,x0,0
    80000c48:	00000013          	addi	x0,x0,0
    80000c4c:	00000013          	addi	x0,x0,0
    80000c50:	001989b3          	add	x19,x19,x1
    80000c54:	00000013          	addi	x0,x0,0
    80000c58:	00000013          	addi	x0,x0,0
    80000c5c:	00000013          	addi	x0,x0,0
    80000c60:	001989b3          	add	x19,x19,x1
    80000c64:	00000013          	addi	x0,x0,0
    80000c68:	00000013          	addi	x0,x0,0
    80000c6c:	00000013          	addi	x0,x0,0
    80000c70:	001989b3          	add	x19,x19,x1
    80000c74:	00000013          	addi	x0,x0,0
    80000c78:	00000013          	addi	x0,x0,0
    80000c7c:	00000013          	addi	x0,x0,0
    80000c80:	001989b3          	add	x19,x19,x1
    80000c84:	00000013          	addi	x0,x0,0
    80000c88:	00000013          	addi	x0,x0,0
    80000c8c:	00000013          	addi	x0,x0,0
    80000c90:	001989b3          	add	x19,x19,x1
    80000c94:	00000013          	addi	x0,x0,0
    80000c98:	00000013          	addi	x0,x0,0
    80000c9c:	00000013          	addi	x0,x0,0
    80000ca0:	001989b3          	add	x19,x19,x1
    80000ca4:	00000013          	addi	x0,x0,0
    80000ca8:	00000013          	addi	x0,x0,0
    80000cac:	00000013          	addi	x0,x0,0
    80000cb0:	001989b3          	add	x19,x19,x1
    80000cb4:	00000013          	addi	x0,x0,0
    80000cb8:	00000013          	addi	x0,x0,0
    80000cbc:	00000013          	addi	x0,x0,0
    80000cc0:	001989b3          	add	x19,x19,x1
    80000cc4:	00000013          	addi	x0,x0,0
    80000cc8:	00000013          	addi	x0,x0,0
    80000ccc:	00000013          	addi	x0,x0,0
    80000cd0:	001989b3          	add	x19,x19,x1
    80000cd4:	00000013          	addi	x0,x0,0
    80000cd8:	00000013          	addi	x0,x0,0
    80000cdc:	00000013          	addi	x0,x0,0
    80000ce0:	001989b3          	add	x19,x19,x1
    80000ce4:	00000013          	addi	x0,x0,0
    80000ce8:	00000013          	addi	x0,x0,0
    80000cec:	00000013          	addi	x0,x0,0
    80000cf0:	00000a33          	add	x20,x0,x0
    80000cf4:	00000013          	addi	x0,x0,0
    80000cf8:	00000013          	addi	x0,x0,0
    80000cfc:	00000013          	addi	x0,x0,0
    80000d00:	001a0a33          	add	x20,x20,x1
    80000d04:	00000013          	addi	x0,x0,0
    80000d08:	00000013          	addi	x0,x0,0
    80000d0c:	00000013          	addi	x0,x0,0
    80000d10:	001a0a33          	add	x20,x20,x1
    80000d14:	00000013          	addi	x0,x0,0
    80000d18:	00000013          	addi	x0,x0,0
    80000d1c:	00000013          	addi	x0,x0,0
    80000d20:	001a0a33          	add	x20,x20,x1
    80000d24:	00000013          	addi	x0,x0,0
    80000d28:	00000013          	addi	x0,x0,0
    80000d2c:	00000013          	addi	x0,x0,0
    80000d30:	001a0a33          	add	x20,x20,x1
    80000d34:	00000013          	addi	x0,x0,0
    80000d38:	00000013          	addi	x0,x0,0
    80000d3c:	00000013          	addi	x0,x0,0
    80000d40:	001a0a33          	add	x20,x20,x1
    80000d44:	00000013          	addi	x0,x0,0
    80000d48:	00000013          	addi	x0,x0,0
    80000d4c:	00000013          	addi	x0,x0,0
    80000d50:	001a0a33          	add	x20,x20,x1
    80000d54:	00000013          	addi	x0,x0,0
    80000d58:	00000013          	addi	x0,x0,0
    80000d5c:	00000013          	addi	x0,x0,0
    80000d60:	001a0a33          	add	x20,x20,x1
    80000d64:	00000013          	addi	x0,x0,0
    80000d68:	00000013          	addi	x0,x0,0
    80000d6c:	00000013          	addi	x0,x0,0
    80000d70:	001a0a33          	add	x20,x20,x1
    80000d74:	00000013          	addi	x0,x0,0
    80000d78:	00000013          	addi	x0,x0,0
    80000d7c:	00000013          	addi	x0,x0,0
    80000d80:	001a0a33          	add	x20,x20,x1
    80000d84:	00000013          	addi	x0,x0,0
    80000d88:	00000013          	addi	x0,x0,0
    80000d8c:	00000013          	addi	x0,x0,0
    80000d90:	001a0a33          	add	x20,x20,x1
    80000d94:	00000013          	addi	x0,x0,0
    80000d98:	00000013          	addi	x0,x0,0
    80000d9c:	00000013          	addi	x0,x0,0
    80000da0:	001a0a33          	add	x20,x20,x1
    80000da4:	00000013          	addi	x0,x0,0
    80000da8:	00000013          	addi	x0,x0,0
    80000dac:	00000013          	addi	x0,x0,0
    80000db0:	001a0a33          	add	x20,x20,x1
    80000db4:	00000013          	addi	x0,x0,0
    80000db8:	00000013          	addi	x0,x0,0
    80000dbc:	00000013          	addi	x0,x0,0
    80000dc0:	001a0a33          	add	x20,x20,x1
    80000dc4:	00000013          	addi	x0,x0,0
    80000dc8:	00000013          	addi	x0,x0,0
    80000dcc:	00000013          	addi	x0,x0,0
    80000dd0:	001a0a33          	add	x20,x20,x1
    80000dd4:	00000013          	addi	x0,x0,0
    80000dd8:	00000013          	addi	x0,x0,0
    80000ddc:	00000013          	addi	x0,x0,0
    80000de0:	001a0a33          	add	x20,x20,x1
    80000de4:	00000013          	addi	x0,x0,0
    80000de8:	00000013          	addi	x0,x0,0
    80000dec:	00000013          	addi	x0,x0,0
    80000df0:	001a0a33          	add	x20,x20,x1
    80000df4:	00000013          	addi	x0,x0,0
    80000df8:	00000013          	addi	x0,x0,0
    80000dfc:	00000013          	addi	x0,x0,0
    80000e00:	001a0a33          	add	x20,x20,x1
    80000e04:	00000013          	addi	x0,x0,0
    80000e08:	00000013          	addi	x0,x0,0
    80000e0c:	00000013          	addi	x0,x0,0
    80000e10:	001a0a33          	add	x20,x20,x1
    80000e14:	00000013          	addi	x0,x0,0
    80000e18:	00000013          	addi	x0,x0,0
    80000e1c:	00000013          	addi	x0,x0,0
    80000e20:	001a0a33          	add	x20,x20,x1
    80000e24:	00000013          	addi	x0,x0,0
    80000e28:	00000013          	addi	x0,x0,0
    80000e2c:	00000013          	addi	x0,x0,0
    80000e30:	001a0a33          	add	x20,x20,x1
    80000e34:	00000013          	addi	x0,x0,0
    80000e38:	00000013          	addi	x0,x0,0
    80000e3c:	00000013          	addi	x0,x0,0
    80000e40:	00000ab3          	add	x21,x0,x0
    80000e44:	00000013          	addi	x0,x0,0
    80000e48:	00000013          	addi	x0,x0,0
    80000e4c:	00000013          	addi	x0,x0,0
    80000e50:	001a8ab3          	add	x21,x21,x1
    80000e54:	00000013          	addi	x0,x0,0
    80000e58:	00000013          	addi	x0,x0,0
    80000e5c:	00000013          	addi	x0,x0,0
    80000e60:	001a8ab3          	add	x21,x21,x1
    80000e64:	00000013          	addi	x0,x0,0
    80000e68:	00000013          	addi	x0,x0,0
    80000e6c:	00000013          	addi	x0,x0,0
    80000e70:	001a8ab3          	add	x21,x21,x1
    80000e74:	00000013          	addi	x0,x0,0
    80000e78:	00000013          	addi	x0,x0,0
    80000e7c:	00000013          	addi	x0,x0,0
    80000e80:	001a8ab3          	add	x21,x21,x1
    80000e84:	00000013          	addi	x0,x0,0
    80000e88:	00000013          	addi	x0,x0,0
    80000e8c:	00000013          	addi	x0,x0,0
    80000e90:	001a8ab3          	add	x21,x21,x1
    80000e94:	00000013          	addi	x0,x0,0
    80000e98:	00000013          	addi	x0,x0,0
    80000e9c:	00000013          	addi	x0,x0,0
    80000ea0:	001a8ab3          	add	x21,x21,x1
    80000ea4:	00000013          	addi	x0,x0,0
    80000ea8:	00000013          	addi	x0,x0,0
    80000eac:	00000013          	addi	x0,x0,0
    80000eb0:	001a8ab3          	add	x21,x21,x1
    80000eb4:	00000013          	addi	x0,x0,0
    80000eb8:	00000013          	addi	x0,x0,0
    80000ebc:	00000013          	addi	x0,x0,0
    80000ec0:	001a8ab3          	add	x21,x21,x1
    80000ec4:	00000013          	addi	x0,x0,0
    80000ec8:	00000013          	addi	x0,x0,0
    80000ecc:	00000013          	addi	x0,x0,0
    80000ed0:	001a8ab3          	add	x21,x21,x1
    80000ed4:	00000013          	addi	x0,x0,0
    80000ed8:	00000013          	addi	x0,x0,0
    80000edc:	00000013          	addi	x0,x0,0
    80000ee0:	001a8ab3          	add	x21,x21,x1
    80000ee4:	00000013          	addi	x0,x0,0
    80000ee8:	00000013          	addi	x0,x0,0
    80000eec:	00000013          	addi	x0,x0,0
    80000ef0:	001a8ab3          	add	x21,x21,x1
    80000ef4:	00000013          	addi	x0,x0,0
    80000ef8:	00000013          	addi	x0,x0,0
    80000efc:	00000013          	addi	x0,x0,0
    80000f00:	001a8ab3          	add	x21,x21,x1
    80000f04:	00000013          	addi	x0,x0,0
    80000f08:	00000013          	addi	x0,x0,0
    80000f0c:	00000013          	addi	x0,x0,0
    80000f10:	001a8ab3          	add	x21,x21,x1
    80000f14:	00000013          	addi	x0,x0,0
    80000f18:	00000013          	addi	x0,x0,0
    80000f1c:	00000013          	addi	x0,x0,0
    80000f20:	001a8ab3          	add	x21,x21,x1
    80000f24:	00000013          	addi	x0,x0,0
    80000f28:	00000013          	addi	x0,x0,0
    80000f2c:	00000013          	addi	x0,x0,0
    80000f30:	001a8ab3          	add	x21,x21,x1
    80000f34:	00000013          	addi	x0,x0,0
    80000f38:	00000013          	addi	x0,x0,0
    80000f3c:	00000013          	addi	x0,x0,0
    80000f40:	001a8ab3          	add	x21,x21,x1
    80000f44:	00000013          	addi	x0,x0,0
    80000f48:	00000013          	addi	x0,x0,0
    80000f4c:	00000013          	addi	x0,x0,0
    80000f50:	001a8ab3          	add	x21,x21,x1
    80000f54:	00000013          	addi	x0,x0,0
    80000f58:	00000013          	addi	x0,x0,0
    80000f5c:	00000013          	addi	x0,x0,0
    80000f60:	001a8ab3          	add	x21,x21,x1
    80000f64:	00000013          	addi	x0,x0,0
    80000f68:	00000013          	addi	x0,x0,0
    80000f6c:	00000013          	addi	x0,x0,0
    80000f70:	001a8ab3          	add	x21,x21,x1
    80000f74:	00000013          	addi	x0,x0,0
    80000f78:	00000013          	addi	x0,x0,0
    80000f7c:	00000013          	addi	x0,x0,0
    80000f80:	001a8ab3          	add	x21,x21,x1
    80000f84:	00000013          	addi	x0,x0,0
    80000f88:	00000013          	addi	x0,x0,0
    80000f8c:	00000013          	addi	x0,x0,0
    80000f90:	001a8ab3          	add	x21,x21,x1
    80000f94:	00000013          	addi	x0,x0,0
    80000f98:	00000013          	addi	x0,x0,0
    80000f9c:	00000013          	addi	x0,x0,0
    80000fa0:	00000b33          	add	x22,x0,x0
    80000fa4:	00000013          	addi	x0,x0,0
    80000fa8:	00000013          	addi	x0,x0,0
    80000fac:	00000013          	addi	x0,x0,0
    80000fb0:	001b0b33          	add	x22,x22,x1
    80000fb4:	00000013          	addi	x0,x0,0
    80000fb8:	00000013          	addi	x0,x0,0
    80000fbc:	00000013          	addi	x0,x0,0
    80000fc0:	001b0b33          	add	x22,x22,x1
    80000fc4:	00000013          	addi	x0,x0,0
    80000fc8:	00000013          	addi	x0,x0,0
    80000fcc:	00000013          	addi	x0,x0,0
    80000fd0:	001b0b33          	add	x22,x22,x1
    80000fd4:	00000013          	addi	x0,x0,0
    80000fd8:	00000013          	addi	x0,x0,0
    80000fdc:	00000013          	addi	x0,x0,0
    80000fe0:	001b0b33          	add	x22,x22,x1
    80000fe4:	00000013          	addi	x0,x0,0
    80000fe8:	00000013          	addi	x0,x0,0
    80000fec:	00000013          	addi	x0,x0,0
    80000ff0:	001b0b33          	add	x22,x22,x1
    80000ff4:	00000013          	addi	x0,x0,0
    80000ff8:	00000013          	addi	x0,x0,0
    80000ffc:	00000013          	addi	x0,x0,0
    80001000:	001b0b33          	add	x22,x22,x1
    80001004:	00000013          	addi	x0,x0,0
    80001008:	00000013          	addi	x0,x0,0
    8000100c:	00000013          	addi	x0,x0,0
    80001010:	001b0b33          	add	x22,x22,x1
    80001014:	00000013          	addi	x0,x0,0
    80001018:	00000013          	addi	x0,x0,0
    8000101c:	00000013          	addi	x0,x0,0
    80001020:	001b0b33          	add	x22,x22,x1
    80001024:	00000013          	addi	x0,x0,0
    80001028:	00000013          	addi	x0,x0,0
    8000102c:	00000013          	addi	x0,x0,0
    80001030:	001b0b33          	add	x22,x22,x1
    80001034:	00000013          	addi	x0,x0,0
    80001038:	00000013          	addi	x0,x0,0
    8000103c:	00000013          	addi	x0,x0,0
    80001040:	001b0b33          	add	x22,x22,x1
    80001044:	00000013          	addi	x0,x0,0
    80001048:	00000013          	addi	x0,x0,0
    8000104c:	00000013          	addi	x0,x0,0
    80001050:	001b0b33          	add	x22,x22,x1
    80001054:	00000013          	addi	x0,x0,0
    80001058:	00000013          	addi	x0,x0,0
    8000105c:	00000013          	addi	x0,x0,0
    80001060:	001b0b33          	add	x22,x22,x1
    80001064:	00000013          	addi	x0,x0,0
    80001068:	00000013          	addi	x0,x0,0
    8000106c:	00000013          	addi	x0,x0,0
    80001070:	001b0b33          	add	x22,x22,x1
    80001074:	00000013          	addi	x0,x0,0
    80001078:	00000013          	addi	x0,x0,0
    8000107c:	00000013          	addi	x0,x0,0
    80001080:	001b0b33          	add	x22,x22,x1
    80001084:	00000013          	addi	x0,x0,0
    80001088:	00000013          	addi	x0,x0,0
    8000108c:	00000013          	addi	x0,x0,0
    80001090:	001b0b33          	add	x22,x22,x1
    80001094:	00000013          	addi	x0,x0,0
    80001098:	00000013          	addi	x0,x0,0
    8000109c:	00000013          	addi	x0,x0,0
    800010a0:	001b0b33          	add	x22,x22,x1
    800010a4:	00000013          	addi	x0,x0,0
    800010a8:	00000013          	addi	x0,x0,0
    800010ac:	00000013          	addi	x0,x0,0
    800010b0:	001b0b33          	add	x22,x22,x1
    800010b4:	00000013          	addi	x0,x0,0
    800010b8:	00000013          	addi	x0,x0,0
    800010bc:	00000013          	addi	x0,x0,0
    800010c0:	001b0b33          	add	x22,x22,x1
    800010c4:	00000013          	addi	x0,x0,0
    800010c8:	00000013          	addi	x0,x0,0
    800010cc:	00000013          	addi	x0,x0,0
    800010d0:	001b0b33          	add	x22,x22,x1
    800010d4:	00000013          	addi	x0,x0,0
    800010d8:	00000013          	addi	x0,x0,0
    800010dc:	00000013          	addi	x0,x0,0
    800010e0:	001b0b33          	add	x22,x22,x1
    800010e4:	00000013          	addi	x0,x0,0
    800010e8:	00000013          	addi	x0,x0,0
    800010ec:	00000013          	addi	x0,x0,0
    800010f0:	001b0b33          	add	x22,x22,x1
    800010f4:	00000013          	addi	x0,x0,0
    800010f8:	00000013          	addi	x0,x0,0
    800010fc:	00000013          	addi	x0,x0,0
    80001100:	001b0b33          	add	x22,x22,x1
    80001104:	00000013          	addi	x0,x0,0
    80001108:	00000013          	addi	x0,x0,0
    8000110c:	00000013          	addi	x0,x0,0
    80001110:	00000bb3          	add	x23,x0,x0
    80001114:	00000013          	addi	x0,x0,0
    80001118:	00000013          	addi	x0,x0,0
    8000111c:	00000013          	addi	x0,x0,0
    80001120:	001b8bb3          	add	x23,x23,x1
    80001124:	00000013          	addi	x0,x0,0
    80001128:	00000013          	addi	x0,x0,0
    8000112c:	00000013          	addi	x0,x0,0
    80001130:	001b8bb3          	add	x23,x23,x1
    80001134:	00000013          	addi	x0,x0,0
    80001138:	00000013          	addi	x0,x0,0
    8000113c:	00000013          	addi	x0,x0,0
    80001140:	001b8bb3          	add	x23,x23,x1
    80001144:	00000013          	addi	x0,x0,0
    80001148:	00000013          	addi	x0,x0,0
    8000114c:	00000013          	addi	x0,x0,0
    80001150:	001b8bb3          	add	x23,x23,x1
    80001154:	00000013          	addi	x0,x0,0
    80001158:	00000013          	addi	x0,x0,0
    8000115c:	00000013          	addi	x0,x0,0
    80001160:	001b8bb3          	add	x23,x23,x1
    80001164:	00000013          	addi	x0,x0,0
    80001168:	00000013          	addi	x0,x0,0
    8000116c:	00000013          	addi	x0,x0,0
    80001170:	001b8bb3          	add	x23,x23,x1
    80001174:	00000013          	addi	x0,x0,0
    80001178:	00000013          	addi	x0,x0,0
    8000117c:	00000013          	addi	x0,x0,0
    80001180:	001b8bb3          	add	x23,x23,x1
    80001184:	00000013          	addi	x0,x0,0
    80001188:	00000013          	addi	x0,x0,0
    8000118c:	00000013          	addi	x0,x0,0
    80001190:	001b8bb3          	add	x23,x23,x1
    80001194:	00000013          	addi	x0,x0,0
    80001198:	00000013          	addi	x0,x0,0
    8000119c:	00000013          	addi	x0,x0,0
    800011a0:	001b8bb3          	add	x23,x23,x1
    800011a4:	00000013          	addi	x0,x0,0
    800011a8:	00000013          	addi	x0,x0,0
    800011ac:	00000013          	addi	x0,x0,0
    800011b0:	001b8bb3          	add	x23,x23,x1
    800011b4:	00000013          	addi	x0,x0,0
    800011b8:	00000013          	addi	x0,x0,0
    800011bc:	00000013          	addi	x0,x0,0
    800011c0:	001b8bb3          	add	x23,x23,x1
    800011c4:	00000013          	addi	x0,x0,0
    800011c8:	00000013          	addi	x0,x0,0
    800011cc:	00000013          	addi	x0,x0,0
    800011d0:	001b8bb3          	add	x23,x23,x1
    800011d4:	00000013          	addi	x0,x0,0
    800011d8:	00000013          	addi	x0,x0,0
    800011dc:	00000013          	addi	x0,x0,0
    800011e0:	001b8bb3          	add	x23,x23,x1
    800011e4:	00000013          	addi	x0,x0,0
    800011e8:	00000013          	addi	x0,x0,0
    800011ec:	00000013          	addi	x0,x0,0
    800011f0:	001b8bb3          	add	x23,x23,x1
    800011f4:	00000013          	addi	x0,x0,0
    800011f8:	00000013          	addi	x0,x0,0
    800011fc:	00000013          	addi	x0,x0,0
    80001200:	001b8bb3          	add	x23,x23,x1
    80001204:	00000013          	addi	x0,x0,0
    80001208:	00000013          	addi	x0,x0,0
    8000120c:	00000013          	addi	x0,x0,0
    80001210:	001b8bb3          	add	x23,x23,x1
    80001214:	00000013          	addi	x0,x0,0
    80001218:	00000013          	addi	x0,x0,0
    8000121c:	00000013          	addi	x0,x0,0
    80001220:	001b8bb3          	add	x23,x23,x1
    80001224:	00000013          	addi	x0,x0,0
    80001228:	00000013          	addi	x0,x0,0
    8000122c:	00000013          	addi	x0,x0,0
    80001230:	001b8bb3          	add	x23,x23,x1
    80001234:	00000013          	addi	x0,x0,0
    80001238:	00000013          	addi	x0,x0,0
    8000123c:	00000013          	addi	x0,x0,0
    80001240:	001b8bb3          	add	x23,x23,x1
    80001244:	00000013          	addi	x0,x0,0
    80001248:	00000013          	addi	x0,x0,0
    8000124c:	00000013          	addi	x0,x0,0
    80001250:	001b8bb3          	add	x23,x23,x1
    80001254:	00000013          	addi	x0,x0,0
    80001258:	00000013          	addi	x0,x0,0
    8000125c:	00000013          	addi	x0,x0,0
    80001260:	001b8bb3          	add	x23,x23,x1
    80001264:	00000013          	addi	x0,x0,0
    80001268:	00000013          	addi	x0,x0,0
    8000126c:	00000013          	addi	x0,x0,0
    80001270:	001b8bb3          	add	x23,x23,x1
    80001274:	00000013          	addi	x0,x0,0
    80001278:	00000013          	addi	x0,x0,0
    8000127c:	00000013          	addi	x0,x0,0
    80001280:	001b8bb3          	add	x23,x23,x1
    80001284:	00000013          	addi	x0,x0,0
    80001288:	00000013          	addi	x0,x0,0
    8000128c:	00000013          	addi	x0,x0,0
    80001290:	00000c33          	add	x24,x0,x0
    80001294:	00000013          	addi	x0,x0,0
    80001298:	00000013          	addi	x0,x0,0
    8000129c:	00000013          	addi	x0,x0,0
    800012a0:	001c0c33          	add	x24,x24,x1
    800012a4:	00000013          	addi	x0,x0,0
    800012a8:	00000013          	addi	x0,x0,0
    800012ac:	00000013          	addi	x0,x0,0
    800012b0:	001c0c33          	add	x24,x24,x1
    800012b4:	00000013          	addi	x0,x0,0
    800012b8:	00000013          	addi	x0,x0,0
    800012bc:	00000013          	addi	x0,x0,0
    800012c0:	001c0c33          	add	x24,x24,x1
    800012c4:	00000013          	addi	x0,x0,0
    800012c8:	00000013          	addi	x0,x0,0
    800012cc:	00000013          	addi	x0,x0,0
    800012d0:	001c0c33          	add	x24,x24,x1
    800012d4:	00000013          	addi	x0,x0,0
    800012d8:	00000013          	addi	x0,x0,0
    800012dc:	00000013          	addi	x0,x0,0
    800012e0:	001c0c33          	add	x24,x24,x1
    800012e4:	00000013          	addi	x0,x0,0
    800012e8:	00000013          	addi	x0,x0,0
    800012ec:	00000013          	addi	x0,x0,0
    800012f0:	001c0c33          	add	x24,x24,x1
    800012f4:	00000013          	addi	x0,x0,0
    800012f8:	00000013          	addi	x0,x0,0
    800012fc:	00000013          	addi	x0,x0,0
    80001300:	001c0c33          	add	x24,x24,x1
    80001304:	00000013          	addi	x0,x0,0
    80001308:	00000013          	addi	x0,x0,0
    8000130c:	00000013          	addi	x0,x0,0
    80001310:	001c0c33          	add	x24,x24,x1
    80001314:	00000013          	addi	x0,x0,0
    80001318:	00000013          	addi	x0,x0,0
    8000131c:	00000013          	addi	x0,x0,0
    80001320:	001c0c33          	add	x24,x24,x1
    80001324:	00000013          	addi	x0,x0,0
    80001328:	00000013          	addi	x0,x0,0
    8000132c:	00000013          	addi	x0,x0,0
    80001330:	001c0c33          	add	x24,x24,x1
    80001334:	00000013          	addi	x0,x0,0
    80001338:	00000013          	addi	x0,x0,0
    8000133c:	00000013          	addi	x0,x0,0
    80001340:	001c0c33          	add	x24,x24,x1
    80001344:	00000013          	addi	x0,x0,0
    80001348:	00000013          	addi	x0,x0,0
    8000134c:	00000013          	addi	x0,x0,0
    80001350:	001c0c33          	add	x24,x24,x1
    80001354:	00000013          	addi	x0,x0,0
    80001358:	00000013          	addi	x0,x0,0
    8000135c:	00000013          	addi	x0,x0,0
    80001360:	001c0c33          	add	x24,x24,x1
    80001364:	00000013          	addi	x0,x0,0
    80001368:	00000013          	addi	x0,x0,0
    8000136c:	00000013          	addi	x0,x0,0
    80001370:	001c0c33          	add	x24,x24,x1
    80001374:	00000013          	addi	x0,x0,0
    80001378:	00000013          	addi	x0,x0,0
    8000137c:	00000013          	addi	x0,x0,0
    80001380:	001c0c33          	add	x24,x24,x1
    80001384:	00000013          	addi	x0,x0,0
    80001388:	00000013          	addi	x0,x0,0
    8000138c:	00000013          	addi	x0,x0,0
    80001390:	001c0c33          	add	x24,x24,x1
    80001394:	00000013          	addi	x0,x0,0
    80001398:	00000013          	addi	x0,x0,0
    8000139c:	00000013          	addi	x0,x0,0
    800013a0:	001c0c33          	add	x24,x24,x1
    800013a4:	00000013          	addi	x0,x0,0
    800013a8:	00000013          	addi	x0,x0,0
    800013ac:	00000013          	addi	x0,x0,0
    800013b0:	001c0c33          	add	x24,x24,x1
    800013b4:	00000013          	addi	x0,x0,0
    800013b8:	00000013          	addi	x0,x0,0
    800013bc:	00000013          	addi	x0,x0,0
    800013c0:	001c0c33          	add	x24,x24,x1
    800013c4:	00000013          	addi	x0,x0,0
    800013c8:	00000013          	addi	x0,x0,0
    800013cc:	00000013          	addi	x0,x0,0
    800013d0:	001c0c33          	add	x24,x24,x1
    800013d4:	00000013          	addi	x0,x0,0
    800013d8:	00000013          	addi	x0,x0,0
    800013dc:	00000013          	addi	x0,x0,0
    800013e0:	001c0c33          	add	x24,x24,x1
    800013e4:	00000013          	addi	x0,x0,0
    800013e8:	00000013          	addi	x0,x0,0
    800013ec:	00000013          	addi	x0,x0,0
    800013f0:	001c0c33          	add	x24,x24,x1
    800013f4:	00000013          	addi	x0,x0,0
    800013f8:	00000013          	addi	x0,x0,0
    800013fc:	00000013          	addi	x0,x0,0
    80001400:	001c0c33          	add	x24,x24,x1
    80001404:	00000013          	addi	x0,x0,0
    80001408:	00000013          	addi	x0,x0,0
    8000140c:	00000013          	addi	x0,x0,0
    80001410:	001c0c33          	add	x24,x24,x1
    80001414:	00000013          	addi	x0,x0,0
    80001418:	00000013          	addi	x0,x0,0
    8000141c:	00000013          	addi	x0,x0,0
    80001420:	00000cb3          	add	x25,x0,x0
    80001424:	00000013          	addi	x0,x0,0
    80001428:	00000013          	addi	x0,x0,0
    8000142c:	00000013          	addi	x0,x0,0
    80001430:	001c8cb3          	add	x25,x25,x1
    80001434:	00000013          	addi	x0,x0,0
    80001438:	00000013          	addi	x0,x0,0
    8000143c:	00000013          	addi	x0,x0,0
    80001440:	001c8cb3          	add	x25,x25,x1
    80001444:	00000013          	addi	x0,x0,0
    80001448:	00000013          	addi	x0,x0,0
    8000144c:	00000013          	addi	x0,x0,0
    80001450:	001c8cb3          	add	x25,x25,x1
    80001454:	00000013          	addi	x0,x0,0
    80001458:	00000013          	addi	x0,x0,0
    8000145c:	00000013          	addi	x0,x0,0
    80001460:	001c8cb3          	add	x25,x25,x1
    80001464:	00000013          	addi	x0,x0,0
    80001468:	00000013          	addi	x0,x0,0
    8000146c:	00000013          	addi	x0,x0,0
    80001470:	001c8cb3          	add	x25,x25,x1
    80001474:	00000013          	addi	x0,x0,0
    80001478:	00000013          	addi	x0,x0,0
    8000147c:	00000013          	addi	x0,x0,0
    80001480:	001c8cb3          	add	x25,x25,x1
    80001484:	00000013          	addi	x0,x0,0
    80001488:	00000013          	addi	x0,x0,0
    8000148c:	00000013          	addi	x0,x0,0
    80001490:	001c8cb3          	add	x25,x25,x1
    80001494:	00000013          	addi	x0,x0,0
    80001498:	00000013          	addi	x0,x0,0
    8000149c:	00000013          	addi	x0,x0,0
    800014a0:	001c8cb3          	add	x25,x25,x1
    800014a4:	00000013          	addi	x0,x0,0
    800014a8:	00000013          	addi	x0,x0,0
    800014ac:	00000013          	addi	x0,x0,0
    800014b0:	001c8cb3          	add	x25,x25,x1
    800014b4:	00000013          	addi	x0,x0,0
    800014b8:	00000013          	addi	x0,x0,0
    800014bc:	00000013          	addi	x0,x0,0
    800014c0:	001c8cb3          	add	x25,x25,x1
    800014c4:	00000013          	addi	x0,x0,0
    800014c8:	00000013          	addi	x0,x0,0
    800014cc:	00000013          	addi	x0,x0,0
    800014d0:	001c8cb3          	add	x25,x25,x1
    800014d4:	00000013          	addi	x0,x0,0
    800014d8:	00000013          	addi	x0,x0,0
    800014dc:	00000013          	addi	x0,x0,0
    800014e0:	001c8cb3          	add	x25,x25,x1
    800014e4:	00000013          	addi	x0,x0,0
    800014e8:	00000013          	addi	x0,x0,0
    800014ec:	00000013          	addi	x0,x0,0
    800014f0:	001c8cb3          	add	x25,x25,x1
    800014f4:	00000013          	addi	x0,x0,0
    800014f8:	00000013          	addi	x0,x0,0
    800014fc:	00000013          	addi	x0,x0,0
    80001500:	001c8cb3          	add	x25,x25,x1
    80001504:	00000013          	addi	x0,x0,0
    80001508:	00000013          	addi	x0,x0,0
    8000150c:	00000013          	addi	x0,x0,0
    80001510:	001c8cb3          	add	x25,x25,x1
    80001514:	00000013          	addi	x0,x0,0
    80001518:	00000013          	addi	x0,x0,0
    8000151c:	00000013          	addi	x0,x0,0
    80001520:	001c8cb3          	add	x25,x25,x1
    80001524:	00000013          	addi	x0,x0,0
    80001528:	00000013          	addi	x0,x0,0
    8000152c:	00000013          	addi	x0,x0,0
    80001530:	001c8cb3          	add	x25,x25,x1
    80001534:	00000013          	addi	x0,x0,0
    80001538:	00000013          	addi	x0,x0,0
    8000153c:	00000013          	addi	x0,x0,0
    80001540:	001c8cb3          	add	x25,x25,x1
    80001544:	00000013          	addi	x0,x0,0
    80001548:	00000013          	addi	x0,x0,0
    8000154c:	00000013          	addi	x0,x0,0
    80001550:	001c8cb3          	add	x25,x25,x1
    80001554:	00000013          	addi	x0,x0,0
    80001558:	00000013          	addi	x0,x0,0
    8000155c:	00000013          	addi	x0,x0,0
    80001560:	001c8cb3          	add	x25,x25,x1
    80001564:	00000013          	addi	x0,x0,0
    80001568:	00000013          	addi	x0,x0,0
    8000156c:	00000013          	addi	x0,x0,0
    80001570:	001c8cb3          	add	x25,x25,x1
    80001574:	00000013          	addi	x0,x0,0
    80001578:	00000013          	addi	x0,x0,0
    8000157c:	00000013          	addi	x0,x0,0
    80001580:	001c8cb3          	add	x25,x25,x1
    80001584:	00000013          	addi	x0,x0,0
    80001588:	00000013          	addi	x0,x0,0
    8000158c:	00000013          	addi	x0,x0,0
    80001590:	001c8cb3          	add	x25,x25,x1
    80001594:	00000013          	addi	x0,x0,0
    80001598:	00000013          	addi	x0,x0,0
    8000159c:	00000013          	addi	x0,x0,0
    800015a0:	001c8cb3          	add	x25,x25,x1
    800015a4:	00000013          	addi	x0,x0,0
    800015a8:	00000013          	addi	x0,x0,0
    800015ac:	00000013          	addi	x0,x0,0
    800015b0:	001c8cb3          	add	x25,x25,x1
    800015b4:	00000013          	addi	x0,x0,0
    800015b8:	00000013          	addi	x0,x0,0
    800015bc:	00000013          	addi	x0,x0,0
    800015c0:	00000d33          	add	x26,x0,x0
    800015c4:	00000013          	addi	x0,x0,0
    800015c8:	00000013          	addi	x0,x0,0
    800015cc:	00000013          	addi	x0,x0,0
    800015d0:	001d0d33          	add	x26,x26,x1
    800015d4:	00000013          	addi	x0,x0,0
    800015d8:	00000013          	addi	x0,x0,0
    800015dc:	00000013          	addi	x0,x0,0
    800015e0:	001d0d33          	add	x26,x26,x1
    800015e4:	00000013          	addi	x0,x0,0
    800015e8:	00000013          	addi	x0,x0,0
    800015ec:	00000013          	addi	x0,x0,0
    800015f0:	001d0d33          	add	x26,x26,x1
    800015f4:	00000013          	addi	x0,x0,0
    800015f8:	00000013          	addi	x0,x0,0
    800015fc:	00000013          	addi	x0,x0,0
    80001600:	001d0d33          	add	x26,x26,x1
    80001604:	00000013          	addi	x0,x0,0
    80001608:	00000013          	addi	x0,x0,0
    8000160c:	00000013          	addi	x0,x0,0
    80001610:	001d0d33          	add	x26,x26,x1
    80001614:	00000013          	addi	x0,x0,0
    80001618:	00000013          	addi	x0,x0,0
    8000161c:	00000013          	addi	x0,x0,0
    80001620:	001d0d33          	add	x26,x26,x1
    80001624:	00000013          	addi	x0,x0,0
    80001628:	00000013          	addi	x0,x0,0
    8000162c:	00000013          	addi	x0,x0,0
    80001630:	001d0d33          	add	x26,x26,x1
    80001634:	00000013          	addi	x0,x0,0
    80001638:	00000013          	addi	x0,x0,0
    8000163c:	00000013          	addi	x0,x0,0
    80001640:	001d0d33          	add	x26,x26,x1
    80001644:	00000013          	addi	x0,x0,0
    80001648:	00000013          	addi	x0,x0,0
    8000164c:	00000013          	addi	x0,x0,0
    80001650:	001d0d33          	add	x26,x26,x1
    80001654:	00000013          	addi	x0,x0,0
    80001658:	00000013          	addi	x0,x0,0
    8000165c:	00000013          	addi	x0,x0,0
    80001660:	001d0d33          	add	x26,x26,x1
    80001664:	00000013          	addi	x0,x0,0
    80001668:	00000013          	addi	x0,x0,0
    8000166c:	00000013          	addi	x0,x0,0
    80001670:	001d0d33          	add	x26,x26,x1
    80001674:	00000013          	addi	x0,x0,0
    80001678:	00000013          	addi	x0,x0,0
    8000167c:	00000013          	addi	x0,x0,0
    80001680:	001d0d33          	add	x26,x26,x1
    80001684:	00000013          	addi	x0,x0,0
    80001688:	00000013          	addi	x0,x0,0
    8000168c:	00000013          	addi	x0,x0,0
    80001690:	001d0d33          	add	x26,x26,x1
    80001694:	00000013          	addi	x0,x0,0
    80001698:	00000013          	addi	x0,x0,0
    8000169c:	00000013          	addi	x0,x0,0
    800016a0:	001d0d33          	add	x26,x26,x1
    800016a4:	00000013          	addi	x0,x0,0
    800016a8:	00000013          	addi	x0,x0,0
    800016ac:	00000013          	addi	x0,x0,0
    800016b0:	001d0d33          	add	x26,x26,x1
    800016b4:	00000013          	addi	x0,x0,0
    800016b8:	00000013          	addi	x0,x0,0
    800016bc:	00000013          	addi	x0,x0,0
    800016c0:	001d0d33          	add	x26,x26,x1
    800016c4:	00000013          	addi	x0,x0,0
    800016c8:	00000013          	addi	x0,x0,0
    800016cc:	00000013          	addi	x0,x0,0
    800016d0:	001d0d33          	add	x26,x26,x1
    800016d4:	00000013          	addi	x0,x0,0
    800016d8:	00000013          	addi	x0,x0,0
    800016dc:	00000013          	addi	x0,x0,0
    800016e0:	001d0d33          	add	x26,x26,x1
    800016e4:	00000013          	addi	x0,x0,0
    800016e8:	00000013          	addi	x0,x0,0
    800016ec:	00000013          	addi	x0,x0,0
    800016f0:	001d0d33          	add	x26,x26,x1
    800016f4:	00000013          	addi	x0,x0,0
    800016f8:	00000013          	addi	x0,x0,0
    800016fc:	00000013          	addi	x0,x0,0
    80001700:	001d0d33          	add	x26,x26,x1
    80001704:	00000013          	addi	x0,x0,0
    80001708:	00000013          	addi	x0,x0,0
    8000170c:	00000013          	addi	x0,x0,0
    80001710:	001d0d33          	add	x26,x26,x1
    80001714:	00000013          	addi	x0,x0,0
    80001718:	00000013          	addi	x0,x0,0
    8000171c:	00000013          	addi	x0,x0,0
    80001720:	001d0d33          	add	x26,x26,x1
    80001724:	00000013          	addi	x0,x0,0
    80001728:	00000013          	addi	x0,x0,0
    8000172c:	00000013          	addi	x0,x0,0
    80001730:	001d0d33          	add	x26,x26,x1
    80001734:	00000013          	addi	x0,x0,0
    80001738:	00000013          	addi	x0,x0,0
    8000173c:	00000013          	addi	x0,x0,0
    80001740:	001d0d33          	add	x26,x26,x1
    80001744:	00000013          	addi	x0,x0,0
    80001748:	00000013          	addi	x0,x0,0
    8000174c:	00000013          	addi	x0,x0,0
    80001750:	001d0d33          	add	x26,x26,x1
    80001754:	00000013          	addi	x0,x0,0
    80001758:	00000013          	addi	x0,x0,0
    8000175c:	00000013          	addi	x0,x0,0
    80001760:	001d0d33          	add	x26,x26,x1
    80001764:	00000013          	addi	x0,x0,0
    80001768:	00000013          	addi	x0,x0,0
    8000176c:	00000013          	addi	x0,x0,0
    80001770:	00000db3          	add	x27,x0,x0
    80001774:	00000013          	addi	x0,x0,0
    80001778:	00000013          	addi	x0,x0,0
    8000177c:	00000013          	addi	x0,x0,0
    80001780:	001d8db3          	add	x27,x27,x1
    80001784:	00000013          	addi	x0,x0,0
    80001788:	00000013          	addi	x0,x0,0
    8000178c:	00000013          	addi	x0,x0,0
    80001790:	001d8db3          	add	x27,x27,x1
    80001794:	00000013          	addi	x0,x0,0
    80001798:	00000013          	addi	x0,x0,0
    8000179c:	00000013          	addi	x0,x0,0
    800017a0:	001d8db3          	add	x27,x27,x1
    800017a4:	00000013          	addi	x0,x0,0
    800017a8:	00000013          	addi	x0,x0,0
    800017ac:	00000013          	addi	x0,x0,0
    800017b0:	001d8db3          	add	x27,x27,x1
    800017b4:	00000013          	addi	x0,x0,0
    800017b8:	00000013          	addi	x0,x0,0
    800017bc:	00000013          	addi	x0,x0,0
    800017c0:	001d8db3          	add	x27,x27,x1
    800017c4:	00000013          	addi	x0,x0,0
    800017c8:	00000013          	addi	x0,x0,0
    800017cc:	00000013          	addi	x0,x0,0
    800017d0:	001d8db3          	add	x27,x27,x1
    800017d4:	00000013          	addi	x0,x0,0
    800017d8:	00000013          	addi	x0,x0,0
    800017dc:	00000013          	addi	x0,x0,0
    800017e0:	001d8db3          	add	x27,x27,x1
    800017e4:	00000013          	addi	x0,x0,0
    800017e8:	00000013          	addi	x0,x0,0
    800017ec:	00000013          	addi	x0,x0,0
    800017f0:	001d8db3          	add	x27,x27,x1
    800017f4:	00000013          	addi	x0,x0,0
    800017f8:	00000013          	addi	x0,x0,0
    800017fc:	00000013          	addi	x0,x0,0
    80001800:	001d8db3          	add	x27,x27,x1
    80001804:	00000013          	addi	x0,x0,0
    80001808:	00000013          	addi	x0,x0,0
    8000180c:	00000013          	addi	x0,x0,0
    80001810:	001d8db3          	add	x27,x27,x1
    80001814:	00000013          	addi	x0,x0,0
    80001818:	00000013          	addi	x0,x0,0
    8000181c:	00000013          	addi	x0,x0,0
    80001820:	001d8db3          	add	x27,x27,x1
    80001824:	00000013          	addi	x0,x0,0
    80001828:	00000013          	addi	x0,x0,0
    8000182c:	00000013          	addi	x0,x0,0
    80001830:	001d8db3          	add	x27,x27,x1
    80001834:	00000013          	addi	x0,x0,0
    80001838:	00000013          	addi	x0,x0,0
    8000183c:	00000013          	addi	x0,x0,0
    80001840:	001d8db3          	add	x27,x27,x1
    80001844:	00000013          	addi	x0,x0,0
    80001848:	00000013          	addi	x0,x0,0
    8000184c:	00000013          	addi	x0,x0,0
    80001850:	001d8db3          	add	x27,x27,x1
    80001854:	00000013          	addi	x0,x0,0
    80001858:	00000013          	addi	x0,x0,0
    8000185c:	00000013          	addi	x0,x0,0
    80001860:	001d8db3          	add	x27,x27,x1
    80001864:	00000013          	addi	x0,x0,0
    80001868:	00000013          	addi	x0,x0,0
    8000186c:	00000013          	addi	x0,x0,0
    80001870:	001d8db3          	add	x27,x27,x1
    80001874:	00000013          	addi	x0,x0,0
    80001878:	00000013          	addi	x0,x0,0
    8000187c:	00000013          	addi	x0,x0,0
    80001880:	001d8db3          	add	x27,x27,x1
    80001884:	00000013          	addi	x0,x0,0
    80001888:	00000013          	addi	x0,x0,0
    8000188c:	00000013          	addi	x0,x0,0
    80001890:	001d8db3          	add	x27,x27,x1
    80001894:	00000013          	addi	x0,x0,0
    80001898:	00000013          	addi	x0,x0,0
    8000189c:	00000013          	addi	x0,x0,0
    800018a0:	001d8db3          	add	x27,x27,x1
    800018a4:	00000013          	addi	x0,x0,0
    800018a8:	00000013          	addi	x0,x0,0
    800018ac:	00000013          	addi	x0,x0,0
    800018b0:	001d8db3          	add	x27,x27,x1
    800018b4:	00000013          	addi	x0,x0,0
    800018b8:	00000013          	addi	x0,x0,0
    800018bc:	00000013          	addi	x0,x0,0
    800018c0:	001d8db3          	add	x27,x27,x1
    800018c4:	00000013          	addi	x0,x0,0
    800018c8:	00000013          	addi	x0,x0,0
    800018cc:	00000013          	addi	x0,x0,0
    800018d0:	001d8db3          	add	x27,x27,x1
    800018d4:	00000013          	addi	x0,x0,0
    800018d8:	00000013          	addi	x0,x0,0
    800018dc:	00000013          	addi	x0,x0,0
    800018e0:	001d8db3          	add	x27,x27,x1
    800018e4:	00000013          	addi	x0,x0,0
    800018e8:	00000013          	addi	x0,x0,0
    800018ec:	00000013          	addi	x0,x0,0
    800018f0:	001d8db3          	add	x27,x27,x1
    800018f4:	00000013          	addi	x0,x0,0
    800018f8:	00000013          	addi	x0,x0,0
    800018fc:	00000013          	addi	x0,x0,0
    80001900:	001d8db3          	add	x27,x27,x1
    80001904:	00000013          	addi	x0,x0,0
    80001908:	00000013          	addi	x0,x0,0
    8000190c:	00000013          	addi	x0,x0,0
    80001910:	001d8db3          	add	x27,x27,x1
    80001914:	00000013          	addi	x0,x0,0
    80001918:	00000013          	addi	x0,x0,0
    8000191c:	00000013          	addi	x0,x0,0
    80001920:	001d8db3          	add	x27,x27,x1
    80001924:	00000013          	addi	x0,x0,0
    80001928:	00000013          	addi	x0,x0,0
    8000192c:	00000013          	addi	x0,x0,0
    80001930:	00000e33          	add	x28,x0,x0
    80001934:	00000013          	addi	x0,x0,0
    80001938:	00000013          	addi	x0,x0,0
    8000193c:	00000013          	addi	x0,x0,0
    80001940:	001e0e33          	add	x28,x28,x1
    80001944:	00000013          	addi	x0,x0,0
    80001948:	00000013          	addi	x0,x0,0
    8000194c:	00000013          	addi	x0,x0,0
    80001950:	001e0e33          	add	x28,x28,x1
    80001954:	00000013          	addi	x0,x0,0
    80001958:	00000013          	addi	x0,x0,0
    8000195c:	00000013          	addi	x0,x0,0
    80001960:	001e0e33          	add	x28,x28,x1
    80001964:	00000013          	addi	x0,x0,0
    80001968:	00000013          	addi	x0,x0,0
    8000196c:	00000013          	addi	x0,x0,0
    80001970:	001e0e33          	add	x28,x28,x1
    80001974:	00000013          	addi	x0,x0,0
    80001978:	00000013          	addi	x0,x0,0
    8000197c:	00000013          	addi	x0,x0,0
    80001980:	001e0e33          	add	x28,x28,x1
    80001984:	00000013          	addi	x0,x0,0
    80001988:	00000013          	addi	x0,x0,0
    8000198c:	00000013          	addi	x0,x0,0
    80001990:	001e0e33          	add	x28,x28,x1
    80001994:	00000013          	addi	x0,x0,0
    80001998:	00000013          	addi	x0,x0,0
    8000199c:	00000013          	addi	x0,x0,0
    800019a0:	001e0e33          	add	x28,x28,x1
    800019a4:	00000013          	addi	x0,x0,0
    800019a8:	00000013          	addi	x0,x0,0
    800019ac:	00000013          	addi	x0,x0,0
    800019b0:	001e0e33          	add	x28,x28,x1
    800019b4:	00000013          	addi	x0,x0,0
    800019b8:	00000013          	addi	x0,x0,0
    800019bc:	00000013          	addi	x0,x0,0
    800019c0:	001e0e33          	add	x28,x28,x1
    800019c4:	00000013          	addi	x0,x0,0
    800019c8:	00000013          	addi	x0,x0,0
    800019cc:	00000013          	addi	x0,x0,0
    800019d0:	001e0e33          	add	x28,x28,x1
    800019d4:	00000013          	addi	x0,x0,0
    800019d8:	00000013          	addi	x0,x0,0
    800019dc:	00000013          	addi	x0,x0,0
    800019e0:	001e0e33          	add	x28,x28,x1
    800019e4:	00000013          	addi	x0,x0,0
    800019e8:	00000013          	addi	x0,x0,0
    800019ec:	00000013          	addi	x0,x0,0
    800019f0:	001e0e33          	add	x28,x28,x1
    800019f4:	00000013          	addi	x0,x0,0
    800019f8:	00000013          	addi	x0,x0,0
    800019fc:	00000013          	addi	x0,x0,0
    80001a00:	001e0e33          	add	x28,x28,x1
    80001a04:	00000013          	addi	x0,x0,0
    80001a08:	00000013          	addi	x0,x0,0
    80001a0c:	00000013          	addi	x0,x0,0
    80001a10:	001e0e33          	add	x28,x28,x1
    80001a14:	00000013          	addi	x0,x0,0
    80001a18:	00000013          	addi	x0,x0,0
    80001a1c:	00000013          	addi	x0,x0,0
    80001a20:	001e0e33          	add	x28,x28,x1
    80001a24:	00000013          	addi	x0,x0,0
    80001a28:	00000013          	addi	x0,x0,0
    80001a2c:	00000013          	addi	x0,x0,0
    80001a30:	001e0e33          	add	x28,x28,x1
    80001a34:	00000013          	addi	x0,x0,0
    80001a38:	00000013          	addi	x0,x0,0
    80001a3c:	00000013          	addi	x0,x0,0
    80001a40:	001e0e33          	add	x28,x28,x1
    80001a44:	00000013          	addi	x0,x0,0
    80001a48:	00000013          	addi	x0,x0,0
    80001a4c:	00000013          	addi	x0,x0,0
    80001a50:	001e0e33          	add	x28,x28,x1
    80001a54:	00000013          	addi	x0,x0,0
    80001a58:	00000013          	addi	x0,x0,0
    80001a5c:	00000013          	addi	x0,x0,0
    80001a60:	001e0e33          	add	x28,x28,x1
    80001a64:	00000013          	addi	x0,x0,0
    80001a68:	00000013          	addi	x0,x0,0
    80001a6c:	00000013          	addi	x0,x0,0
    80001a70:	001e0e33          	add	x28,x28,x1
    80001a74:	00000013          	addi	x0,x0,0
    80001a78:	00000013          	addi	x0,x0,0
    80001a7c:	00000013          	addi	x0,x0,0
    80001a80:	001e0e33          	add	x28,x28,x1
    80001a84:	00000013          	addi	x0,x0,0
    80001a88:	00000013          	addi	x0,x0,0
    80001a8c:	00000013          	addi	x0,x0,0
    80001a90:	001e0e33          	add	x28,x28,x1
    80001a94:	00000013          	addi	x0,x0,0
    80001a98:	00000013          	addi	x0,x0,0
    80001a9c:	00000013          	addi	x0,x0,0
    80001aa0:	001e0e33          	add	x28,x28,x1
    80001aa4:	00000013          	addi	x0,x0,0
    80001aa8:	00000013          	addi	x0,x0,0
    80001aac:	00000013          	addi	x0,x0,0
    80001ab0:	001e0e33          	add	x28,x28,x1
    80001ab4:	00000013          	addi	x0,x0,0
    80001ab8:	00000013          	addi	x0,x0,0
    80001abc:	00000013          	addi	x0,x0,0
    80001ac0:	001e0e33          	add	x28,x28,x1
    80001ac4:	00000013          	addi	x0,x0,0
    80001ac8:	00000013          	addi	x0,x0,0
    80001acc:	00000013          	addi	x0,x0,0
    80001ad0:	001e0e33          	add	x28,x28,x1
    80001ad4:	00000013          	addi	x0,x0,0
    80001ad8:	00000013          	addi	x0,x0,0
    80001adc:	00000013          	addi	x0,x0,0
    80001ae0:	001e0e33          	add	x28,x28,x1
    80001ae4:	00000013          	addi	x0,x0,0
    80001ae8:	00000013          	addi	x0,x0,0
    80001aec:	00000013          	addi	x0,x0,0
    80001af0:	001e0e33          	add	x28,x28,x1
    80001af4:	00000013          	addi	x0,x0,0
    80001af8:	00000013          	addi	x0,x0,0
    80001afc:	00000013          	addi	x0,x0,0
    80001b00:	00000eb3          	add	x29,x0,x0
    80001b04:	00000013          	addi	x0,x0,0
    80001b08:	00000013          	addi	x0,x0,0
    80001b0c:	00000013          	addi	x0,x0,0
    80001b10:	001e8eb3          	add	x29,x29,x1
    80001b14:	00000013          	addi	x0,x0,0
    80001b18:	00000013          	addi	x0,x0,0
    80001b1c:	00000013          	addi	x0,x0,0
    80001b20:	001e8eb3          	add	x29,x29,x1
    80001b24:	00000013          	addi	x0,x0,0
    80001b28:	00000013          	addi	x0,x0,0
    80001b2c:	00000013          	addi	x0,x0,0
    80001b30:	001e8eb3          	add	x29,x29,x1
    80001b34:	00000013          	addi	x0,x0,0
    80001b38:	00000013          	addi	x0,x0,0
    80001b3c:	00000013          	addi	x0,x0,0
    80001b40:	001e8eb3          	add	x29,x29,x1
    80001b44:	00000013          	addi	x0,x0,0
    80001b48:	00000013          	addi	x0,x0,0
    80001b4c:	00000013          	addi	x0,x0,0
    80001b50:	001e8eb3          	add	x29,x29,x1
    80001b54:	00000013          	addi	x0,x0,0
    80001b58:	00000013          	addi	x0,x0,0
    80001b5c:	00000013          	addi	x0,x0,0
    80001b60:	001e8eb3          	add	x29,x29,x1
    80001b64:	00000013          	addi	x0,x0,0
    80001b68:	00000013          	addi	x0,x0,0
    80001b6c:	00000013          	addi	x0,x0,0
    80001b70:	001e8eb3          	add	x29,x29,x1
    80001b74:	00000013          	addi	x0,x0,0
    80001b78:	00000013          	addi	x0,x0,0
    80001b7c:	00000013          	addi	x0,x0,0
    80001b80:	001e8eb3          	add	x29,x29,x1
    80001b84:	00000013          	addi	x0,x0,0
    80001b88:	00000013          	addi	x0,x0,0
    80001b8c:	00000013          	addi	x0,x0,0
    80001b90:	001e8eb3          	add	x29,x29,x1
    80001b94:	00000013          	addi	x0,x0,0
    80001b98:	00000013          	addi	x0,x0,0
    80001b9c:	00000013          	addi	x0,x0,0
    80001ba0:	001e8eb3          	add	x29,x29,x1
    80001ba4:	00000013          	addi	x0,x0,0
    80001ba8:	00000013          	addi	x0,x0,0
    80001bac:	00000013          	addi	x0,x0,0
    80001bb0:	001e8eb3          	add	x29,x29,x1
    80001bb4:	00000013          	addi	x0,x0,0
    80001bb8:	00000013          	addi	x0,x0,0
    80001bbc:	00000013          	addi	x0,x0,0
    80001bc0:	001e8eb3          	add	x29,x29,x1
    80001bc4:	00000013          	addi	x0,x0,0
    80001bc8:	00000013          	addi	x0,x0,0
    80001bcc:	00000013          	addi	x0,x0,0
    80001bd0:	001e8eb3          	add	x29,x29,x1
    80001bd4:	00000013          	addi	x0,x0,0
    80001bd8:	00000013          	addi	x0,x0,0
    80001bdc:	00000013          	addi	x0,x0,0
    80001be0:	001e8eb3          	add	x29,x29,x1
    80001be4:	00000013          	addi	x0,x0,0
    80001be8:	00000013          	addi	x0,x0,0
    80001bec:	00000013          	addi	x0,x0,0
    80001bf0:	001e8eb3          	add	x29,x29,x1
    80001bf4:	00000013          	addi	x0,x0,0
    80001bf8:	00000013          	addi	x0,x0,0
    80001bfc:	00000013          	addi	x0,x0,0
    80001c00:	001e8eb3          	add	x29,x29,x1
    80001c04:	00000013          	addi	x0,x0,0
    80001c08:	00000013          	addi	x0,x0,0
    80001c0c:	00000013          	addi	x0,x0,0
    80001c10:	001e8eb3          	add	x29,x29,x1
    80001c14:	00000013          	addi	x0,x0,0
    80001c18:	00000013          	addi	x0,x0,0
    80001c1c:	00000013          	addi	x0,x0,0
    80001c20:	001e8eb3          	add	x29,x29,x1
    80001c24:	00000013          	addi	x0,x0,0
    80001c28:	00000013          	addi	x0,x0,0
    80001c2c:	00000013          	addi	x0,x0,0
    80001c30:	001e8eb3          	add	x29,x29,x1
    80001c34:	00000013          	addi	x0,x0,0
    80001c38:	00000013          	addi	x0,x0,0
    80001c3c:	00000013          	addi	x0,x0,0
    80001c40:	001e8eb3          	add	x29,x29,x1
    80001c44:	00000013          	addi	x0,x0,0
    80001c48:	00000013          	addi	x0,x0,0
    80001c4c:	00000013          	addi	x0,x0,0
    80001c50:	001e8eb3          	add	x29,x29,x1
    80001c54:	00000013          	addi	x0,x0,0
    80001c58:	00000013          	addi	x0,x0,0
    80001c5c:	00000013          	addi	x0,x0,0
    80001c60:	001e8eb3          	add	x29,x29,x1
    80001c64:	00000013          	addi	x0,x0,0
    80001c68:	00000013          	addi	x0,x0,0
    80001c6c:	00000013          	addi	x0,x0,0
    80001c70:	001e8eb3          	add	x29,x29,x1
    80001c74:	00000013          	addi	x0,x0,0
    80001c78:	00000013          	addi	x0,x0,0
    80001c7c:	00000013          	addi	x0,x0,0
    80001c80:	001e8eb3          	add	x29,x29,x1
    80001c84:	00000013          	addi	x0,x0,0
    80001c88:	00000013          	addi	x0,x0,0
    80001c8c:	00000013          	addi	x0,x0,0
    80001c90:	001e8eb3          	add	x29,x29,x1
    80001c94:	00000013          	addi	x0,x0,0
    80001c98:	00000013          	addi	x0,x0,0
    80001c9c:	00000013          	addi	x0,x0,0
    80001ca0:	001e8eb3          	add	x29,x29,x1
    80001ca4:	00000013          	addi	x0,x0,0
    80001ca8:	00000013          	addi	x0,x0,0
    80001cac:	00000013          	addi	x0,x0,0
    80001cb0:	001e8eb3          	add	x29,x29,x1
    80001cb4:	00000013          	addi	x0,x0,0
    80001cb8:	00000013          	addi	x0,x0,0
    80001cbc:	00000013          	addi	x0,x0,0
    80001cc0:	001e8eb3          	add	x29,x29,x1
    80001cc4:	00000013          	addi	x0,x0,0
    80001cc8:	00000013          	addi	x0,x0,0
    80001ccc:	00000013          	addi	x0,x0,0
    80001cd0:	001e8eb3          	add	x29,x29,x1
    80001cd4:	00000013          	addi	x0,x0,0
    80001cd8:	00000013          	addi	x0,x0,0
    80001cdc:	00000013          	addi	x0,x0,0
    80001ce0:	00000f33          	add	x30,x0,x0
    80001ce4:	00000013          	addi	x0,x0,0
    80001ce8:	00000013          	addi	x0,x0,0
    80001cec:	00000013          	addi	x0,x0,0
    80001cf0:	001f0f33          	add	x30,x30,x1
    80001cf4:	00000013          	addi	x0,x0,0
    80001cf8:	00000013          	addi	x0,x0,0
    80001cfc:	00000013          	addi	x0,x0,0
    80001d00:	001f0f33          	add	x30,x30,x1
    80001d04:	00000013          	addi	x0,x0,0
    80001d08:	00000013          	addi	x0,x0,0
    80001d0c:	00000013          	addi	x0,x0,0
    80001d10:	001f0f33          	add	x30,x30,x1
    80001d14:	00000013          	addi	x0,x0,0
    80001d18:	00000013          	addi	x0,x0,0
    80001d1c:	00000013          	addi	x0,x0,0
    80001d20:	001f0f33          	add	x30,x30,x1
    80001d24:	00000013          	addi	x0,x0,0
    80001d28:	00000013          	addi	x0,x0,0
    80001d2c:	00000013          	addi	x0,x0,0
    80001d30:	001f0f33          	add	x30,x30,x1
    80001d34:	00000013          	addi	x0,x0,0
    80001d38:	00000013          	addi	x0,x0,0
    80001d3c:	00000013          	addi	x0,x0,0
    80001d40:	001f0f33          	add	x30,x30,x1
    80001d44:	00000013          	addi	x0,x0,0
    80001d48:	00000013          	addi	x0,x0,0
    80001d4c:	00000013          	addi	x0,x0,0
    80001d50:	001f0f33          	add	x30,x30,x1
    80001d54:	00000013          	addi	x0,x0,0
    80001d58:	00000013          	addi	x0,x0,0
    80001d5c:	00000013          	addi	x0,x0,0
    80001d60:	001f0f33          	add	x30,x30,x1
    80001d64:	00000013          	addi	x0,x0,0
    80001d68:	00000013          	addi	x0,x0,0
    80001d6c:	00000013          	addi	x0,x0,0
    80001d70:	001f0f33          	add	x30,x30,x1
    80001d74:	00000013          	addi	x0,x0,0
    80001d78:	00000013          	addi	x0,x0,0
    80001d7c:	00000013          	addi	x0,x0,0
    80001d80:	001f0f33          	add	x30,x30,x1
    80001d84:	00000013          	addi	x0,x0,0
    80001d88:	00000013          	addi	x0,x0,0
    80001d8c:	00000013          	addi	x0,x0,0
    80001d90:	001f0f33          	add	x30,x30,x1
    80001d94:	00000013          	addi	x0,x0,0
    80001d98:	00000013          	addi	x0,x0,0
    80001d9c:	00000013          	addi	x0,x0,0
    80001da0:	001f0f33          	add	x30,x30,x1
    80001da4:	00000013          	addi	x0,x0,0
    80001da8:	00000013          	addi	x0,x0,0
    80001dac:	00000013          	addi	x0,x0,0
    80001db0:	001f0f33          	add	x30,x30,x1
    80001db4:	00000013          	addi	x0,x0,0
    80001db8:	00000013          	addi	x0,x0,0
    80001dbc:	00000013          	addi	x0,x0,0
    80001dc0:	001f0f33          	add	x30,x30,x1
    80001dc4:	00000013          	addi	x0,x0,0
    80001dc8:	00000013          	addi	x0,x0,0
    80001dcc:	00000013          	addi	x0,x0,0
    80001dd0:	001f0f33          	add	x30,x30,x1
    80001dd4:	00000013          	addi	x0,x0,0
    80001dd8:	00000013          	addi	x0,x0,0
    80001ddc:	00000013          	addi	x0,x0,0
    80001de0:	001f0f33          	add	x30,x30,x1
    80001de4:	00000013          	addi	x0,x0,0
    80001de8:	00000013          	addi	x0,x0,0
    80001dec:	00000013          	addi	x0,x0,0
    80001df0:	001f0f33          	add	x30,x30,x1
    80001df4:	00000013          	addi	x0,x0,0
    80001df8:	00000013          	addi	x0,x0,0
    80001dfc:	00000013          	addi	x0,x0,0
    80001e00:	001f0f33          	add	x30,x30,x1
    80001e04:	00000013          	addi	x0,x0,0
    80001e08:	00000013          	addi	x0,x0,0
    80001e0c:	00000013          	addi	x0,x0,0
    80001e10:	001f0f33          	add	x30,x30,x1
    80001e14:	00000013          	addi	x0,x0,0
    80001e18:	00000013          	addi	x0,x0,0
    80001e1c:	00000013          	addi	x0,x0,0
    80001e20:	001f0f33          	add	x30,x30,x1
    80001e24:	00000013          	addi	x0,x0,0
    80001e28:	00000013          	addi	x0,x0,0
    80001e2c:	00000013          	addi	x0,x0,0
    80001e30:	001f0f33          	add	x30,x30,x1
    80001e34:	00000013          	addi	x0,x0,0
    80001e38:	00000013          	addi	x0,x0,0
    80001e3c:	00000013          	addi	x0,x0,0
    80001e40:	001f0f33          	add	x30,x30,x1
    80001e44:	00000013          	addi	x0,x0,0
    80001e48:	00000013          	addi	x0,x0,0
    80001e4c:	00000013          	addi	x0,x0,0
    80001e50:	001f0f33          	add	x30,x30,x1
    80001e54:	00000013          	addi	x0,x0,0
    80001e58:	00000013          	addi	x0,x0,0
    80001e5c:	00000013          	addi	x0,x0,0
    80001e60:	001f0f33          	add	x30,x30,x1
    80001e64:	00000013          	addi	x0,x0,0
    80001e68:	00000013          	addi	x0,x0,0
    80001e6c:	00000013          	addi	x0,x0,0
    80001e70:	001f0f33          	add	x30,x30,x1
    80001e74:	00000013          	addi	x0,x0,0
    80001e78:	00000013          	addi	x0,x0,0
    80001e7c:	00000013          	addi	x0,x0,0
    80001e80:	001f0f33          	add	x30,x30,x1
    80001e84:	00000013          	addi	x0,x0,0
    80001e88:	00000013          	addi	x0,x0,0
    80001e8c:	00000013          	addi	x0,x0,0
    80001e90:	001f0f33          	add	x30,x30,x1
    80001e94:	00000013          	addi	x0,x0,0
    80001e98:	00000013          	addi	x0,x0,0
    80001e9c:	00000013          	addi	x0,x0,0
    80001ea0:	001f0f33          	add	x30,x30,x1
    80001ea4:	00000013          	addi	x0,x0,0
    80001ea8:	00000013          	addi	x0,x0,0
    80001eac:	00000013          	addi	x0,x0,0
    80001eb0:	001f0f33          	add	x30,x30,x1
    80001eb4:	00000013          	addi	x0,x0,0
    80001eb8:	00000013          	addi	x0,x0,0
    80001ebc:	00000013          	addi	x0,x0,0
    80001ec0:	001f0f33          	add	x30,x30,x1
    80001ec4:	00000013          	addi	x0,x0,0
    80001ec8:	00000013          	addi	x0,x0,0
    80001ecc:	00000013          	addi	x0,x0,0
    80001ed0:	00000fb3          	add	x31,x0,x0
    80001ed4:	00000013          	addi	x0,x0,0
    80001ed8:	00000013          	addi	x0,x0,0
    80001edc:	00000013          	addi	x0,x0,0
    80001ee0:	001f8fb3          	add	x31,x31,x1
    80001ee4:	00000013          	addi	x0,x0,0
    80001ee8:	00000013          	addi	x0,x0,0
    80001eec:	00000013          	addi	x0,x0,0
    80001ef0:	001f8fb3          	add	x31,x31,x1
    80001ef4:	00000013          	addi	x0,x0,0
    80001ef8:	00000013          	addi	x0,x0,0
    80001efc:	00000013          	addi	x0,x0,0
    80001f00:	001f8fb3          	add	x31,x31,x1
    80001f04:	00000013          	addi	x0,x0,0
    80001f08:	00000013          	addi	x0,x0,0
    80001f0c:	00000013          	addi	x0,x0,0
    80001f10:	001f8fb3          	add	x31,x31,x1
    80001f14:	00000013          	addi	x0,x0,0
    80001f18:	00000013          	addi	x0,x0,0
    80001f1c:	00000013          	addi	x0,x0,0
    80001f20:	001f8fb3          	add	x31,x31,x1
    80001f24:	00000013          	addi	x0,x0,0
    80001f28:	00000013          	addi	x0,x0,0
    80001f2c:	00000013          	addi	x0,x0,0
    80001f30:	001f8fb3          	add	x31,x31,x1
    80001f34:	00000013          	addi	x0,x0,0
    80001f38:	00000013          	addi	x0,x0,0
    80001f3c:	00000013          	addi	x0,x0,0
    80001f40:	001f8fb3          	add	x31,x31,x1
    80001f44:	00000013          	addi	x0,x0,0
    80001f48:	00000013          	addi	x0,x0,0
    80001f4c:	00000013          	addi	x0,x0,0
    80001f50:	001f8fb3          	add	x31,x31,x1
    80001f54:	00000013          	addi	x0,x0,0
    80001f58:	00000013          	addi	x0,x0,0
    80001f5c:	00000013          	addi	x0,x0,0
    80001f60:	001f8fb3          	add	x31,x31,x1
    80001f64:	00000013          	addi	x0,x0,0
    80001f68:	00000013          	addi	x0,x0,0
    80001f6c:	00000013          	addi	x0,x0,0
    80001f70:	001f8fb3          	add	x31,x31,x1
    80001f74:	00000013          	addi	x0,x0,0
    80001f78:	00000013          	addi	x0,x0,0
    80001f7c:	00000013          	addi	x0,x0,0
    80001f80:	001f8fb3          	add	x31,x31,x1
    80001f84:	00000013          	addi	x0,x0,0
    80001f88:	00000013          	addi	x0,x0,0
    80001f8c:	00000013          	addi	x0,x0,0
    80001f90:	001f8fb3          	add	x31,x31,x1
    80001f94:	00000013          	addi	x0,x0,0
    80001f98:	00000013          	addi	x0,x0,0
    80001f9c:	00000013          	addi	x0,x0,0
    80001fa0:	001f8fb3          	add	x31,x31,x1
    80001fa4:	00000013          	addi	x0,x0,0
    80001fa8:	00000013          	addi	x0,x0,0
    80001fac:	00000013          	addi	x0,x0,0
    80001fb0:	001f8fb3          	add	x31,x31,x1
    80001fb4:	00000013          	addi	x0,x0,0
    80001fb8:	00000013          	addi	x0,x0,0
    80001fbc:	00000013          	addi	x0,x0,0
    80001fc0:	001f8fb3          	add	x31,x31,x1
    80001fc4:	00000013          	addi	x0,x0,0
    80001fc8:	00000013          	addi	x0,x0,0
    80001fcc:	00000013          	addi	x0,x0,0
    80001fd0:	001f8fb3          	add	x31,x31,x1
    80001fd4:	00000013          	addi	x0,x0,0
    80001fd8:	00000013          	addi	x0,x0,0
    80001fdc:	00000013          	addi	x0,x0,0
    80001fe0:	001f8fb3          	add	x31,x31,x1
    80001fe4:	00000013          	addi	x0,x0,0
    80001fe8:	00000013          	addi	x0,x0,0
    80001fec:	00000013          	addi	x0,x0,0
    80001ff0:	001f8fb3          	add	x31,x31,x1
    80001ff4:	00000013          	addi	x0,x0,0
    80001ff8:	00000013          	addi	x0,x0,0
    80001ffc:	00000013          	addi	x0,x0,0
    80002000:	001f8fb3          	add	x31,x31,x1
    80002004:	00000013          	addi	x0,x0,0
    80002008:	00000013          	addi	x0,x0,0
    8000200c:	00000013          	addi	x0,x0,0
    80002010:	001f8fb3          	add	x31,x31,x1
    80002014:	00000013          	addi	x0,x0,0
    80002018:	00000013          	addi	x0,x0,0
    8000201c:	00000013          	addi	x0,x0,0
    80002020:	001f8fb3          	add	x31,x31,x1
    80002024:	00000013          	addi	x0,x0,0
    80002028:	00000013          	addi	x0,x0,0
    8000202c:	00000013          	addi	x0,x0,0
    80002030:	001f8fb3          	add	x31,x31,x1
    80002034:	00000013          	addi	x0,x0,0
    80002038:	00000013          	addi	x0,x0,0
    8000203c:	00000013          	addi	x0,x0,0
    80002040:	001f8fb3          	add	x31,x31,x1
    80002044:	00000013          	addi	x0,x0,0
    80002048:	00000013          	addi	x0,x0,0
    8000204c:	00000013          	addi	x0,x0,0
    80002050:	001f8fb3          	add	x31,x31,x1
    80002054:	00000013          	addi	x0,x0,0
    80002058:	00000013          	addi	x0,x0,0
    8000205c:	00000013          	addi	x0,x0,0
    80002060:	001f8fb3          	add	x31,x31,x1
    80002064:	00000013          	addi	x0,x0,0
    80002068:	00000013          	addi	x0,x0,0
    8000206c:	00000013          	addi	x0,x0,0
    80002070:	001f8fb3          	add	x31,x31,x1
    80002074:	00000013          	addi	x0,x0,0
    80002078:	00000013          	addi	x0,x0,0
    8000207c:	00000013          	addi	x0,x0,0
    80002080:	001f8fb3          	add	x31,x31,x1
    80002084:	00000013          	addi	x0,x0,0
    80002088:	00000013          	addi	x0,x0,0
    8000208c:	00000013          	addi	x0,x0,0
    80002090:	001f8fb3          	add	x31,x31,x1
    80002094:	00000013          	addi	x0,x0,0
    80002098:	00000013          	addi	x0,x0,0
    8000209c:	00000013          	addi	x0,x0,0
    800020a0:	001f8fb3          	add	x31,x31,x1
    800020a4:	00000013          	addi	x0,x0,0
    800020a8:	00000013          	addi	x0,x0,0
    800020ac:	00000013          	addi	x0,x0,0
    800020b0:	001f8fb3          	add	x31,x31,x1
    800020b4:	00000013          	addi	x0,x0,0
    800020b8:	00000013          	addi	x0,x0,0
    800020bc:	00000013          	addi	x0,x0,0
    800020c0:	001f8fb3          	add	x31,x31,x1
    800020c4:	00000013          	addi	x0,x0,0
    800020c8:	00000013          	addi	x0,x0,0
    800020cc:	00000013          	addi	x0,x0,0
    800020d0:	40ee8cbb          	subw	x25,x29,x14
    800020d4:	010884b3          	add	x9,x17,x16
    800020d8:	40be8e3b          	subw	x28,x29,x11
    800020dc:	007a26b3          	slt	x13,x20,x7
    800020e0:	0055b2b3          	sltu	x5,x11,x5
    800020e4:	40ae8b33          	sub	x22,x29,x10
    800020e8:	017ebd33          	sltu	x26,x29,x23
    800020ec:	01b245b3          	xor	x11,x4,x27
    800020f0:	40cc0fb3          	sub	x31,x24,x12
    800020f4:	00d229b3          	slt	x19,x4,x13
    800020f8:	417b063b          	subw	x12,x22,x23
    800020fc:	0108ea33          	or	x20,x17,x16
    80002100:	01d134b3          	sltu	x9,x2,x29
    80002104:	01b1b033          	sltu	x0,x3,x27
    80002108:	41df0d3b          	subw	x26,x30,x29
    8000210c:	01e90b33          	add	x22,x18,x30
    80002110:	00cd84bb          	addw	x9,x27,x12
    80002114:	408a03b3          	sub	x7,x20,x8
    80002118:	01d2eeb3          	or	x29,x5,x29
    8000211c:	0031b8b3          	sltu	x17,x3,x3
    80002120:	004909bb          	addw	x19,x18,x4
    80002124:	01957a33          	and	x20,x10,x25
    80002128:	41e58ab3          	sub	x21,x11,x30
    8000212c:	017eb3b3          	sltu	x7,x29,x23
    80002130:	0105bb33          	sltu	x22,x11,x16
    80002134:	40ee8bb3          	sub	x23,x29,x14
    80002138:	00b48a3b          	addw	x20,x9,x11
    8000213c:	006f43b3          	xor	x7,x30,x6
    80002140:	00ac8b33          	add	x22,x25,x10
    80002144:	0191a1b3          	slt	x3,x3,x25
    80002148:	01e14333          	xor	x6,x2,x30
    8000214c:	414f0d33          	sub	x26,x30,x20
    80002150:	413c8f3b          	subw	x30,x25,x19
    80002154:	009e7933          	and	x18,x28,x9
    80002158:	01da6bb3          	or	x23,x20,x29
    8000215c:	40f48a3b          	subw	x20,x9,x15
    80002160:	01ac2cb3          	slt	x25,x24,x26
    80002164:	015581bb          	addw	x3,x11,x21
    80002168:	417a88b3          	sub	x17,x21,x23
    8000216c:	00940fbb          	addw	x31,x8,x9
    80002170:	00550d33          	add	x26,x10,x5
    80002174:	006e6633          	or	x12,x28,x6
    80002178:	002e87bb          	addw	x15,x29,x2
    8000217c:	41f28eb3          	sub	x29,x5,x31
    80002180:	015f6133          	or	x2,x30,x21
    80002184:	004c3b33          	sltu	x22,x24,x4
    80002188:	008b82b3          	add	x5,x23,x8
    8000218c:	40e207b3          	sub	x15,x4,x14
    80002190:	400b8133          	sub	x2,x23,x0
    80002194:	006d6433          	or	x8,x26,x6
    80002198:	01dda4b3          	slt	x9,x27,x29
    8000219c:	01500cb3          	add	x25,x0,x21
    800021a0:	41e20b3b          	subw	x22,x4,x30
    800021a4:	003471b3          	and	x3,x8,x3
    800021a8:	0077f6b3          	and	x13,x15,x7
    800021ac:	002889b3          	add	x19,x17,x2
    800021b0:	40878d33          	sub	x26,x15,x8
    800021b4:	011df633          	and	x12,x27,x17
    800021b8:	007c4cb3          	xor	x25,x24,x7
    800021bc:	006b8eb3          	add	x29,x23,x6
    800021c0:	009945b3          	xor	x11,x18,x9
    800021c4:	41780ab3          	sub	x21,x16,x23
    800021c8:	0188c033          	xor	x0,x17,x24
    800021cc:	413f8b3b          	subw	x22,x31,x19
    800021d0:	00e6fc33          	and	x24,x13,x14
    800021d4:	01a9f333          	and	x6,x19,x26
    800021d8:	003d8833          	add	x16,x27,x3
    800021dc:	01410dbb          	addw	x27,x2,x20
    800021e0:	01c4f2b3          	and	x5,x9,x28
    800021e4:	00bb26b3          	slt	x13,x22,x11
    800021e8:	01fb8abb          	addw	x21,x23,x31
    800021ec:	00f5cd33          	xor	x26,x11,x15
    800021f0:	403b8f3b          	subw	x30,x23,x3
    800021f4:	01838a33          	add	x20,x7,x24
    800021f8:	0084033b          	addw	x6,x8,x8
    800021fc:	018ca733          	slt	x14,x25,x24
    80002200:	41f7813b          	subw	x2,x15,x31
    80002204:	41ac8e3b          	subw	x28,x25,x26
    80002208:	004883b3          	add	x7,x17,x4
    8000220c:	01147cb3          	and	x25,x8,x17
    80002210:	0159b8b3          	sltu	x17,x19,x21
    80002214:	00c90133          	add	x2,x18,x12
    80002218:	00387f33          	and	x30,x16,x3
    8000221c:	417a043b          	subw	x8,x20,x23
    80002220:	406d0eb3          	sub	x29,x26,x6
    80002224:	00fb8733          	add	x14,x23,x15
    80002228:	0003803b          	addw	x0,x7,x0
    8000222c:	013c0f33          	add	x30,x24,x19
    80002230:	41628433          	sub	x8,x5,x22
    80002234:	00b66fb3          	or	x31,x12,x11
    80002238:	01d8c233          	xor	x4,x17,x29
    8000223c:	40018bbb          	subw	x23,x3,x0
    80002240:	01ce7833          	and	x16,x28,x28
    80002244:	40650fb3          	sub	x31,x10,x6
    80002248:	016b3eb3          	sltu	x29,x22,x22
    8000224c:	005f023b          	addw	x4,x30,x5
    80002250:	00207f33          	and	x30,x0,x2
    80002254:	00ab8433          	add	x8,x23,x10
    80002258:	015736b3          	sltu	x13,x14,x21
    8000225c:	019d0fb3          	add	x31,x26,x25
    80002260:	011bacb3          	slt	x25,x23,x17
    80002264:	413f063b          	subw	x12,x30,x19
    80002268:	014743b3          	xor	x7,x14,x20
    8000226c:	0052f033          	and	x0,x5,x5
    80002270:	01d77733          	and	x14,x14,x29
    80002274:	00d20d3b          	addw	x26,x4,x13
    80002278:	007501b3          	add	x3,x10,x7
    8000227c:	00d5cab3          	xor	x21,x11,x13
    80002280:	40b309bb          	subw	x19,x6,x11
    80002284:	409d88b3          	sub	x17,x27,x9
    80002288:	01f30533          	add	x10,x6,x31
    8000228c:	00b1bdb3          	sltu	x27,x3,x11
    80002290:	40b60f3b          	subw	x30,x12,x11
    80002294:	4132023b          	subw	x4,x4,x19
    80002298:	01d628b3          	slt	x17,x12,x29
    8000229c:	005902bb          	addw	x5,x18,x5
    800022a0:	00c12833          	slt	x16,x2,x12
    800022a4:	006c8dbb          	addw	x27,x25,x6
    800022a8:	00eacbb3          	xor	x23,x21,x14
    800022ac:	403e81b3          	sub	x3,x29,x3
    800022b0:	0024ed33          	or	x26,x9,x2
    800022b4:	40e2803b          	subw	x0,x5,x14
    800022b8:	011639b3          	sltu	x19,x12,x17
    800022bc:	019aaeb3          	slt	x29,x21,x25
    800022c0:	00d267b3          	or	x15,x4,x13
    800022c4:	01bae4b3          	or	x9,x21,x27
    800022c8:	00d3c833          	xor	x16,x7,x13
    800022cc:	41ff01b3          	sub	x3,x30,x31
    800022d0:	01c90a33          	add	x20,x18,x28
    800022d4:	00e962b3          	or	x5,x18,x14
    800022d8:	002c74b3          	and	x9,x24,x2
    800022dc:	00436bb3          	or	x23,x6,x4
    800022e0:	00e7e8b3          	or	x17,x15,x14
    800022e4:	0042bf33          	sltu	x30,x5,x4
    800022e8:	00da22b3          	slt	x5,x20,x13
    800022ec:	418909bb          	subw	x19,x18,x24
    800022f0:	01188ebb          	addw	x29,x17,x17
    800022f4:	009b6a33          	or	x20,x22,x9
    800022f8:	01ac85b3          	add	x11,x25,x26
    800022fc:	00260f3b          	addw	x30,x12,x2
    80002300:	009fb2b3          	sltu	x5,x31,x9
    80002304:	0157ceb3          	xor	x29,x15,x21
    80002308:	01bc7c33          	and	x24,x24,x27
    8000230c:	003e21b3          	slt	x3,x28,x3
    80002310:	00413fb3          	sltu	x31,x2,x4
    80002314:	00b16333          	or	x6,x2,x11
    80002318:	011f0db3          	add	x27,x30,x17
    8000231c:	01c38f3b          	addw	x30,x7,x28
    80002320:	010b4fb3          	xor	x31,x22,x16
    80002324:	011688bb          	addw	x17,x13,x17
    80002328:	003a3133          	sltu	x2,x20,x3
    8000232c:	004b3db3          	sltu	x27,x22,x4
    80002330:	40b40e3b          	subw	x28,x8,x11
    80002334:	01e7bab3          	sltu	x21,x15,x30
    80002338:	00deafb3          	slt	x31,x29,x13
    8000233c:	01bf6f33          	or	x30,x30,x27
    80002340:	01900bb3          	add	x23,x0,x25
    80002344:	0138c533          	xor	x10,x17,x19
    80002348:	0111f633          	and	x12,x3,x17
    8000234c:	01c5ff33          	and	x30,x11,x28
    80002350:	40fe07bb          	subw	x15,x28,x15
    80002354:	005b8333          	add	x6,x23,x5
    80002358:	01dd65b3          	or	x11,x26,x29
    8000235c:	0131013b          	addw	x2,x2,x19
    80002360:	41f983bb          	subw	x7,x19,x31
    80002364:	406d0cb3          	sub	x25,x26,x6
    80002368:	0161883b          	addw	x16,x3,x22
    8000236c:	0028a733          	slt	x14,x17,x2
    80002370:	405e0933          	sub	x18,x28,x5
    80002374:	017b8133          	add	x2,x23,x23
    80002378:	00564c33          	xor	x24,x12,x5
    8000237c:	0086bbb3          	sltu	x23,x13,x8
    80002380:	41ce0ebb          	subw	x29,x28,x28
    80002384:	01412233          	slt	x4,x2,x20
    80002388:	00cb2ab3          	slt	x21,x22,x12
    8000238c:	416c8c33          	sub	x24,x25,x22
    80002390:	006ffeb3          	and	x29,x31,x6
    80002394:	41a50e3b          	subw	x28,x10,x26
    80002398:	41bf88b3          	sub	x17,x31,x27
    8000239c:	00dde133          	or	x2,x27,x13
    800023a0:	008da6b3          	slt	x13,x27,x8
    800023a4:	018ea733          	slt	x14,x29,x24
    800023a8:	413181b3          	sub	x3,x3,x19
    800023ac:	019a7033          	and	x0,x20,x25
    800023b0:	01c2e533          	or	x10,x5,x28
    800023b4:	011a3d33          	sltu	x26,x20,x17
    800023b8:	0062b633          	sltu	x12,x5,x6
    800023bc:	40380abb          	subw	x21,x16,x3
    800023c0:	404187b3          	sub	x15,x3,x4
    800023c4:	41b28e3b          	subw	x28,x5,x27
    800023c8:	00e80eb3          	add	x29,x16,x14
    800023cc:	41f8803b          	subw	x0,x17,x31
    800023d0:	00450cbb          	addw	x25,x10,x4
    800023d4:	00d2823b          	addw	x4,x5,x13
    800023d8:	00870733          	add	x14,x14,x8
    800023dc:	01e48f33          	add	x30,x9,x30
    800023e0:	006b01bb          	addw	x3,x22,x6
    800023e4:	01846033          	or	x0,x8,x24
    800023e8:	40c10d33          	sub	x26,x2,x12
    800023ec:	01610cbb          	addw	x25,x2,x22
    800023f0:	00736fb3          	or	x31,x6,x7
    800023f4:	00c82233          	slt	x4,x16,x12
    800023f8:	00807333          	and	x6,x0,x8
    800023fc:	00c906bb          	addw	x13,x18,x12
    80002400:	00ec7ab3          	and	x21,x24,x14
    80002404:	0041cb33          	xor	x22,x3,x4
    80002408:	00653a33          	sltu	x20,x10,x6
    8000240c:	41d282bb          	subw	x5,x5,x29
    80002410:	00996633          	or	x12,x18,x9
    80002414:	00b3ee33          	or	x28,x7,x11
    80002418:	002c083b          	addw	x16,x24,x2
    8000241c:	00e04b33          	xor	x22,x0,x14
    80002420:	40518cb3          	sub	x25,x3,x5
    80002424:	40e9853b          	subw	x10,x19,x14
    80002428:	00b7ca33          	xor	x20,x15,x11
    8000242c:	010401bb          	addw	x3,x8,x16
    80002430:	00298c3b          	addw	x24,x19,x2
    80002434:	40f007bb          	subw	x15,x0,x15
    80002438:	00d408bb          	addw	x17,x8,x13
    8000243c:	0061f933          	and	x18,x3,x6
    80002440:	415204b3          	sub	x9,x4,x21
    80002444:	010d4eb3          	xor	x29,x26,x16
    80002448:	40fd833b          	subw	x6,x27,x15
    8000244c:	411503bb          	subw	x7,x10,x17
    80002450:	00e289bb          	addw	x19,x5,x14
    80002454:	003c2c33          	slt	x24,x24,x3
    80002458:	00b42e33          	slt	x28,x8,x11
    8000245c:	00fc8f33          	add	x30,x25,x15
    80002460:	00a3a033          	slt	x0,x7,x10
    80002464:	40bb0d33          	sub	x26,x22,x11
    80002468:	00f33ab3          	sltu	x21,x6,x15
    8000246c:	011c2233          	slt	x4,x24,x17
    80002470:	00ee69b3          	or	x19,x28,x14
    80002474:	00507c33          	and	x24,x0,x5
    80002478:	00017cb3          	and	x25,x2,x0
    8000247c:	0148f6b3          	and	x13,x17,x20
    80002480:	41b2083b          	subw	x16,x4,x27
    80002484:	01f57633          	and	x12,x10,x31
    80002488:	0021ebb3          	or	x23,x3,x2
    8000248c:	40a48eb3          	sub	x29,x9,x10
    80002490:	012235b3          	sltu	x11,x4,x18
    80002494:	00336db3          	or	x27,x6,x3
    80002498:	40a50fbb          	subw	x31,x10,x10
    8000249c:	012a32b3          	sltu	x5,x20,x18
    800024a0:	00f269b3          	or	x19,x4,x15
    800024a4:	01bd3733          	sltu	x14,x26,x27
    800024a8:	00d8f5b3          	and	x11,x17,x13
    800024ac:	01a24333          	xor	x6,x4,x26
    800024b0:	41680833          	sub	x16,x16,x22
    800024b4:	019aa2b3          	slt	x5,x21,x25
    800024b8:	013c7733          	and	x14,x24,x19
    800024bc:	4139843b          	subw	x8,x19,x19
    800024c0:	0189b6b3          	sltu	x13,x19,x24
    800024c4:	00558933          	add	x18,x11,x5
    800024c8:	007ba133          	slt	x2,x23,x7
    800024cc:	00f98733          	add	x14,x19,x15
    800024d0:	004a0fb3          	add	x31,x20,x4
    800024d4:	418d0c33          	sub	x24,x26,x24
    800024d8:	4026003b          	subw	x0,x12,x2
    800024dc:	40a10ab3          	sub	x21,x2,x10
    800024e0:	0064fdb3          	and	x27,x9,x6
    800024e4:	00f2f433          	and	x8,x5,x15
    800024e8:	00e62cb3          	slt	x25,x12,x14
    800024ec:	0167c633          	xor	x12,x15,x22
    800024f0:	41a882bb          	subw	x5,x17,x26
    800024f4:	0066c9b3          	xor	x19,x13,x6
    800024f8:	00e8e3b3          	or	x7,x17,x14
    800024fc:	412e883b          	subw	x16,x29,x18
    80002500:	41d48dbb          	subw	x27,x9,x29
    80002504:	015468b3          	or	x17,x8,x21
    80002508:	008106b3          	add	x13,x2,x8
    8000250c:	40c30fb3          	sub	x31,x6,x12
    80002510:	018b8d33          	add	x26,x23,x24
    80002514:	00aac433          	xor	x8,x21,x10
    80002518:	412f0c33          	sub	x24,x30,x18
    8000251c:	00f6fe33          	and	x28,x13,x15
    80002520:	019b2133          	slt	x2,x22,x25
    80002524:	013b3bb3          	sltu	x23,x22,x19
    80002528:	41180a3b          	subw	x20,x16,x17
    8000252c:	0088fd33          	and	x26,x17,x8
    80002530:	002104bb          	addw	x9,x2,x2
    80002534:	00068333          	add	x6,x13,x0
    80002538:	00507bb3          	and	x23,x0,x5
    8000253c:	41980eb3          	sub	x29,x16,x25
    80002540:	01376ab3          	or	x21,x14,x19
    80002544:	00b3e7b3          	or	x15,x7,x11
    80002548:	41c18b33          	sub	x22,x3,x28
    8000254c:	010985bb          	addw	x11,x19,x16
    80002550:	013004bb          	addw	x9,x0,x19
    80002554:	003703b3          	add	x7,x14,x3
    80002558:	00fa6fb3          	or	x31,x20,x15
    8000255c:	00b46eb3          	or	x29,x8,x11
    80002560:	01e975b3          	and	x11,x18,x30
    80002564:	40d884bb          	subw	x9,x17,x13
    80002568:	01466133          	or	x2,x12,x20
    8000256c:	41390033          	sub	x0,x18,x19
    80002570:	011ea233          	slt	x4,x29,x17
    80002574:	00792933          	slt	x18,x18,x7
    80002578:	406502b3          	sub	x5,x10,x6
    8000257c:	0114c833          	xor	x16,x9,x17
    80002580:	41578f33          	sub	x30,x15,x21
    80002584:	4093813b          	subw	x2,x7,x9
    80002588:	01d324b3          	slt	x9,x6,x29
    8000258c:	0106f733          	and	x14,x13,x16
    80002590:	41760ab3          	sub	x21,x12,x23
    80002594:	01a3beb3          	sltu	x29,x7,x26
    80002598:	01287db3          	and	x27,x16,x18
    8000259c:	009b2933          	slt	x18,x22,x9
    800025a0:	00407433          	and	x8,x0,x4
    800025a4:	40fd0333          	sub	x6,x26,x15
    800025a8:	01b664b3          	or	x9,x12,x27
    800025ac:	014a8db3          	add	x27,x21,x20
    800025b0:	40410fbb          	subw	x31,x2,x4
    800025b4:	40450b3b          	subw	x22,x10,x4
    800025b8:	018b843b          	addw	x8,x23,x24
    800025bc:	0095bc33          	sltu	x24,x11,x9
    800025c0:	00b961b3          	or	x3,x18,x11
    800025c4:	0177053b          	addw	x10,x14,x23
    800025c8:	007aa633          	slt	x12,x21,x7
    800025cc:	01504eb3          	xor	x29,x0,x21
    800025d0:	015736b3          	sltu	x13,x14,x21
    800025d4:	00f28e33          	add	x28,x5,x15
    800025d8:	00394333          	xor	x6,x18,x3
    800025dc:	01d44db3          	xor	x27,x8,x29
    800025e0:	018d2a33          	slt	x20,x26,x24
    800025e4:	005d64b3          	or	x9,x26,x5
    800025e8:	00d76e33          	or	x28,x14,x13
    800025ec:	0048cbb3          	xor	x23,x17,x4
    800025f0:	00da8933          	add	x18,x21,x13
    800025f4:	000527b3          	slt	x15,x10,x0
    800025f8:	006c6a33          	or	x20,x24,x6
    800025fc:	011daeb3          	slt	x29,x27,x17
    80002600:	01fcb5b3          	sltu	x11,x25,x31
    80002604:	416284b3          	sub	x9,x5,x22
    80002608:	41e38cbb          	subw	x25,x7,x30
    8000260c:	00f60ebb          	addw	x29,x12,x15
    80002610:	00c103b3          	add	x7,x2,x12
    80002614:	010fe633          	or	x12,x31,x16
    80002618:	01876533          	or	x10,x14,x24
    8000261c:	00f046b3          	xor	x13,x0,x15
    80002620:	018db133          	sltu	x2,x27,x24
    80002624:	013047b3          	xor	x15,x0,x19
    80002628:	00348033          	add	x0,x9,x3
    8000262c:	00dc0533          	add	x10,x24,x13
    80002630:	40e18f33          	sub	x30,x3,x14
    80002634:	4114033b          	subw	x6,x8,x17
    80002638:	40c702bb          	subw	x5,x14,x12
    8000263c:	01a6cbb3          	xor	x23,x13,x26
    80002640:	410007bb          	subw	x15,x0,x16
    80002644:	01da7a33          	and	x20,x20,x29
    80002648:	01512e33          	slt	x28,x2,x21
    8000264c:	40668733          	sub	x14,x13,x6
    80002650:	01628933          	add	x18,x5,x22
    80002654:	019d3f33          	sltu	x30,x26,x25
    80002658:	0085c1b3          	xor	x3,x11,x8
    8000265c:	01c044b3          	xor	x9,x0,x28
    80002660:	01de4d33          	xor	x26,x28,x29
    80002664:	004cb3b3          	sltu	x7,x25,x4
    80002668:	404b0fbb          	subw	x31,x22,x4
    8000266c:	0152ac33          	slt	x24,x5,x21
    80002670:	01c60533          	add	x10,x12,x28
    80002674:	402b003b          	subw	x0,x22,x2
    80002678:	00c72233          	slt	x4,x14,x12
    8000267c:	0145c933          	xor	x18,x11,x20
    80002680:	01cd843b          	addw	x8,x27,x28
    80002684:	41d586bb          	subw	x13,x11,x29
    80002688:	00b027b3          	slt	x15,x0,x11
    8000268c:	013ab5b3          	sltu	x11,x21,x19
    80002690:	016a8e33          	add	x28,x21,x22
    80002694:	002c34b3          	sltu	x9,x24,x2
    80002698:	004d27b3          	slt	x15,x26,x4
    8000269c:	402906bb          	subw	x13,x18,x2
    800026a0:	002d8533          	add	x10,x27,x2
    800026a4:	016cfcb3          	and	x25,x25,x22
    800026a8:	007e7c33          	and	x24,x28,x7
    800026ac:	00e63933          	sltu	x18,x12,x14
    800026b0:	014273b3          	and	x7,x4,x20
    800026b4:	01548ebb          	addw	x29,x9,x21
    800026b8:	0066bc33          	sltu	x24,x13,x6
    800026bc:	01afc633          	xor	x12,x31,x26
    800026c0:	002f0a33          	add	x20,x30,x2
    800026c4:	00a6c6b3          	xor	x13,x13,x10
    800026c8:	01d975b3          	and	x11,x18,x29
    800026cc:	40680bbb          	subw	x23,x16,x6
    800026d0:	01528eb3          	add	x29,x5,x21
    800026d4:	00c28833          	add	x16,x5,x12
    800026d8:	01888d33          	add	x26,x17,x24
    800026dc:	007afcb3          	and	x25,x21,x7
    800026e0:	409709b3          	sub	x19,x14,x9
    800026e4:	003348b3          	xor	x17,x6,x3
    800026e8:	01224ab3          	xor	x21,x4,x18
    800026ec:	01c6bbb3          	sltu	x23,x13,x28
    800026f0:	40a504bb          	subw	x9,x10,x10
    800026f4:	01ee07b3          	add	x15,x28,x30
    800026f8:	013a7533          	and	x10,x20,x19
    800026fc:	0076b6b3          	sltu	x13,x13,x7
    80002700:	41f28ebb          	subw	x29,x5,x31
    80002704:	00598db3          	add	x27,x19,x5
    80002708:	4028063b          	subw	x12,x16,x2
    8000270c:	015b37b3          	sltu	x15,x22,x21
    80002710:	0136e033          	or	x0,x13,x19
    80002714:	01844cb3          	xor	x25,x8,x24
    80002718:	012d0bbb          	addw	x23,x26,x18
    8000271c:	009d8db3          	add	x27,x27,x9
    80002720:	01c364b3          	or	x9,x6,x28
    80002724:	410a01bb          	subw	x3,x20,x16
    80002728:	011ced33          	or	x26,x25,x17
    8000272c:	019ebeb3          	sltu	x29,x29,x25
    80002730:	41038433          	sub	x8,x7,x16
    80002734:	40eb07b3          	sub	x15,x22,x14
    80002738:	01b87533          	and	x10,x16,x27
    8000273c:	00368bbb          	addw	x23,x13,x3
    80002740:	00097033          	and	x0,x18,x0
    80002744:	00fe7433          	and	x8,x28,x15
    80002748:	418e083b          	subw	x16,x28,x24
    8000274c:	403f0d3b          	subw	x26,x30,x3
    80002750:	015f26b3          	slt	x13,x30,x21
    80002754:	009ccab3          	xor	x21,x25,x9
    80002758:	00e00f3b          	addw	x30,x0,x14
    8000275c:	0022a933          	slt	x18,x5,x2
    80002760:	40cf8a33          	sub	x20,x31,x12
    80002764:	0071803b          	addw	x0,x3,x7
    80002768:	411a8cb3          	sub	x25,x21,x17
    8000276c:	01ff0633          	add	x12,x30,x31
    80002770:	006786b3          	add	x13,x15,x6
    80002774:	005c7833          	and	x16,x24,x5
    80002778:	00afc7b3          	xor	x15,x31,x10
    8000277c:	00533133          	sltu	x2,x6,x5
    80002780:	018d49b3          	xor	x19,x26,x24
    80002784:	014f0db3          	add	x27,x30,x20
    80002788:	019a0f33          	add	x30,x20,x25
    8000278c:	41c6033b          	subw	x6,x12,x28
    80002790:	407981b3          	sub	x3,x19,x7
    80002794:	00be74b3          	and	x9,x28,x11
    80002798:	00cd0d3b          	addw	x26,x26,x12
    8000279c:	0068f9b3          	and	x19,x17,x6
    800027a0:	0022aa33          	slt	x20,x5,x2
    800027a4:	0028cbb3          	xor	x23,x17,x2
    800027a8:	00718f3b          	addw	x30,x3,x7
    800027ac:	01c42ab3          	slt	x21,x8,x28
    800027b0:	019328b3          	slt	x17,x6,x25
    800027b4:	01028bbb          	addw	x23,x5,x16
    800027b8:	0039b133          	sltu	x2,x19,x3
    800027bc:	01e03633          	sltu	x12,x0,x30
    800027c0:	416802b3          	sub	x5,x16,x22
    800027c4:	00e90b3b          	addw	x22,x18,x14
    800027c8:	41e709bb          	subw	x19,x14,x30
    800027cc:	40060333          	sub	x6,x12,x0
    800027d0:	0002cdb3          	xor	x27,x5,x0
    800027d4:	00240b3b          	addw	x22,x8,x2
    800027d8:	41910bbb          	subw	x23,x2,x25
    800027dc:	0026feb3          	and	x29,x13,x2
    800027e0:	003f4633          	xor	x12,x30,x3
    800027e4:	40d8013b          	subw	x2,x16,x13
    800027e8:	0155fc33          	and	x24,x11,x21
    800027ec:	0003a833          	slt	x16,x7,x0
    800027f0:	00852eb3          	slt	x29,x10,x8
    800027f4:	404601bb          	subw	x3,x12,x4
    800027f8:	40068033          	sub	x0,x13,x0
    800027fc:	019b47b3          	xor	x15,x22,x25
    80002800:	01d906b3          	add	x13,x18,x29
    80002804:	01afbdb3          	sltu	x27,x31,x26
    80002808:	01f1a933          	slt	x18,x3,x31
    8000280c:	00ef8a33          	add	x20,x31,x14
    80002810:	011bf033          	and	x0,x23,x17
    80002814:	404f0f33          	sub	x30,x30,x4
    80002818:	011286bb          	addw	x13,x5,x17
    8000281c:	01798333          	add	x6,x19,x23
    80002820:	00f07133          	and	x2,x0,x15
    80002824:	01aa843b          	addw	x8,x21,x26
    80002828:	01c4c4b3          	xor	x9,x9,x28
    8000282c:	00bccc33          	xor	x24,x25,x11
    80002830:	0179003b          	addw	x0,x18,x23
    80002834:	40a501bb          	subw	x3,x10,x10
    80002838:	00a476b3          	and	x13,x8,x10
    8000283c:	0114053b          	addw	x10,x8,x17
    80002840:	006b27b3          	slt	x15,x22,x6
    80002844:	400e0b3b          	subw	x22,x28,x0
    80002848:	01904ab3          	xor	x21,x0,x25
    8000284c:	406e8d3b          	subw	x26,x29,x6
    80002850:	01e04033          	xor	x0,x0,x30
    80002854:	0031093b          	addw	x18,x2,x3
    80002858:	01528e33          	add	x28,x5,x21
    8000285c:	01834db3          	xor	x27,x6,x24
    80002860:	40e00ebb          	subw	x29,x0,x14
    80002864:	40bb09bb          	subw	x19,x22,x11
    80002868:	011662b3          	or	x5,x12,x17
    8000286c:	00376a33          	or	x20,x14,x3
    80002870:	019b47b3          	xor	x15,x22,x25
    80002874:	0108023b          	addw	x4,x16,x16
    80002878:	00976933          	or	x18,x14,x9
    8000287c:	413c04bb          	subw	x9,x24,x19
    80002880:	41e18b3b          	subw	x22,x3,x30
    80002884:	00d9f533          	and	x10,x19,x13
    80002888:	017bb033          	sltu	x0,x23,x23
    8000288c:	0035a4b3          	slt	x9,x11,x3
    80002890:	010e8fbb          	addw	x31,x29,x16
    80002894:	403f0a33          	sub	x20,x30,x3
    80002898:	00074cb3          	xor	x25,x14,x0
    8000289c:	40df0d3b          	subw	x26,x30,x13
    800028a0:	40fc023b          	subw	x4,x24,x15
    800028a4:	00c3a3b3          	slt	x7,x7,x12
    800028a8:	01542833          	slt	x16,x8,x21
    800028ac:	005a7e33          	and	x28,x20,x5
    800028b0:	017286bb          	addw	x13,x5,x23
    800028b4:	01790dbb          	addw	x27,x18,x23
    800028b8:	00713d33          	sltu	x26,x2,x7
    800028bc:	014cf333          	and	x6,x25,x20
    800028c0:	016705bb          	addw	x11,x14,x22
    800028c4:	010a0633          	add	x12,x20,x16
    800028c8:	00a88cb3          	add	x25,x17,x10
    800028cc:	40e38dbb          	subw	x27,x7,x14
    800028d0:	015242b3          	xor	x5,x4,x21
    800028d4:	00f003bb          	addw	x7,x0,x15
    800028d8:	417188bb          	subw	x17,x3,x23
    800028dc:	41580e33          	sub	x28,x16,x21
    800028e0:	005332b3          	sltu	x5,x6,x5
    800028e4:	0004e3b3          	or	x7,x9,x0
    800028e8:	012f3333          	sltu	x6,x30,x18
    800028ec:	00dd8bbb          	addw	x23,x27,x13
    800028f0:	01d20cbb          	addw	x25,x4,x29
    800028f4:	40af8e3b          	subw	x28,x31,x10
    800028f8:	011ac5b3          	xor	x11,x21,x17
    800028fc:	005c09bb          	addw	x19,x24,x5
    80002900:	414d0d3b          	subw	x26,x26,x20
    80002904:	00d77433          	and	x8,x14,x13
    80002908:	40b908bb          	subw	x17,x18,x11
    8000290c:	404f07bb          	subw	x15,x30,x4
    80002910:	016042b3          	xor	x5,x0,x22
    80002914:	01cd3233          	sltu	x4,x26,x28
    80002918:	017c6bb3          	or	x23,x24,x23
    8000291c:	01a5b333          	sltu	x6,x11,x26
    80002920:	01d1c7b3          	xor	x15,x3,x29
    80002924:	00d20033          	add	x0,x4,x13
    80002928:	0192a6b3          	slt	x13,x5,x25
    8000292c:	01ab2733          	slt	x14,x22,x26
    80002930:	01d9fcb3          	and	x25,x19,x29
    80002934:	014a6333          	or	x6,x20,x20
    80002938:	413f8e33          	sub	x28,x31,x19
    8000293c:	016f4033          	xor	x0,x30,x22
    80002940:	016849b3          	xor	x19,x16,x22
    80002944:	018ce833          	or	x16,x25,x24
    80002948:	4161053b          	subw	x10,x2,x22
    8000294c:	01134733          	xor	x14,x6,x17
    80002950:	003e87b3          	add	x15,x29,x3
    80002954:	4144063b          	subw	x12,x8,x20
    80002958:	0179a133          	slt	x2,x19,x23
    8000295c:	414f0533          	sub	x10,x30,x20
    80002960:	010c2ab3          	slt	x21,x24,x16
    80002964:	0093a5b3          	slt	x11,x7,x9
    80002968:	00c33733          	sltu	x14,x6,x12
    8000296c:	0031c8b3          	xor	x17,x3,x3
    80002970:	010b27b3          	slt	x15,x22,x16
    80002974:	0134b1b3          	sltu	x3,x9,x19
    80002978:	00b2ef33          	or	x30,x5,x11
    8000297c:	005e46b3          	xor	x13,x28,x5
    80002980:	002fcc33          	xor	x24,x31,x2
    80002984:	0079ca33          	xor	x20,x19,x7
    80002988:	00ef8133          	add	x2,x31,x14
    8000298c:	016e3d33          	sltu	x26,x28,x22
    80002990:	005cacb3          	slt	x25,x25,x5
    80002994:	01f6a9b3          	slt	x19,x13,x31
    80002998:	01720fbb          	addw	x31,x4,x23
    8000299c:	01040433          	add	x8,x8,x16
    800029a0:	0004f533          	and	x10,x9,x0
    800029a4:	00d9a733          	slt	x14,x19,x13
    800029a8:	416601b3          	sub	x3,x12,x22
    800029ac:	40fd84bb          	subw	x9,x27,x15
    800029b0:	406e0fbb          	subw	x31,x28,x6
    800029b4:	01a46633          	or	x12,x8,x26
    800029b8:	00ee2c33          	slt	x24,x28,x14
    800029bc:	005af733          	and	x14,x21,x5
    800029c0:	413687b3          	sub	x15,x13,x19
    800029c4:	01aba433          	slt	x8,x23,x26
    800029c8:	01168c3b          	addw	x24,x13,x17
    800029cc:	01c776b3          	and	x13,x14,x28
    800029d0:	01227fb3          	and	x31,x4,x18
    800029d4:	00587233          	and	x4,x16,x5
    800029d8:	007d04bb          	addw	x9,x26,x7
    800029dc:	0055093b          	addw	x18,x10,x5
    800029e0:	414887bb          	subw	x15,x17,x20
    800029e4:	017f2b33          	slt	x22,x30,x23
    800029e8:	0136ecb3          	or	x25,x13,x19
    800029ec:	00b478b3          	and	x17,x8,x11
    800029f0:	00303c33          	sltu	x24,x0,x3
    800029f4:	0086a5b3          	slt	x11,x13,x8
    800029f8:	41ca813b          	subw	x2,x21,x28
    800029fc:	00a20833          	add	x16,x4,x10
    80002a00:	0076edb3          	or	x27,x13,x7
    80002a04:	419e83b3          	sub	x7,x29,x25
    80002a08:	0024803b          	addw	x0,x9,x2
    80002a0c:	002a07b3          	add	x15,x20,x2
    80002a10:	017f42b3          	xor	x5,x30,x23
    80002a14:	012de233          	or	x4,x27,x18
    80002a18:	01406fb3          	or	x31,x0,x20
    80002a1c:	408a01bb          	subw	x3,x20,x8
    80002a20:	00f86533          	or	x10,x16,x15
    80002a24:	01002e33          	slt	x28,x0,x16
    80002a28:	002de7b3          	or	x15,x27,x2
    80002a2c:	00daf033          	and	x0,x21,x13
    80002a30:	01860f3b          	addw	x30,x12,x24
    80002a34:	01632bb3          	slt	x23,x6,x22
    80002a38:	00553233          	sltu	x4,x10,x5
    80002a3c:	41900533          	sub	x10,x0,x25
    80002a40:	019e4b33          	xor	x22,x28,x25
    80002a44:	015447b3          	xor	x15,x8,x21
    80002a48:	013803bb          	addw	x7,x16,x19
    80002a4c:	004a3233          	sltu	x4,x20,x4
    80002a50:	012a22b3          	slt	x5,x20,x18
    80002a54:	015924b3          	slt	x9,x18,x21
    80002a58:	00c883bb          	addw	x7,x17,x12
    80002a5c:	414b01bb          	subw	x3,x22,x20
    80002a60:	01ff0f3b          	addw	x30,x30,x31
    80002a64:	00e568b3          	or	x17,x10,x14
    80002a68:	0007adb3          	slt	x27,x15,x0
    80002a6c:	01302cb3          	slt	x25,x0,x19
    80002a70:	40fe0e3b          	subw	x28,x28,x15
    80002a74:	00946733          	or	x14,x8,x9
    80002a78:	0082a8b3          	slt	x17,x5,x8
    80002a7c:	01762533          	slt	x10,x12,x23
    80002a80:	01e2abb3          	slt	x23,x5,x30
    80002a84:	0071bcb3          	sltu	x25,x3,x7
    80002a88:	018b7933          	and	x18,x22,x24
    80002a8c:	40b28133          	sub	x2,x5,x11
    80002a90:	016f8633          	add	x12,x31,x22
    80002a94:	00f8ce33          	xor	x28,x17,x15
    80002a98:	00896833          	or	x16,x18,x8
    80002a9c:	01d14733          	xor	x14,x2,x29
    80002aa0:	01ec0dbb          	addw	x27,x24,x30
    80002aa4:	00bd33b3          	sltu	x7,x26,x11
    80002aa8:	019a49b3          	xor	x19,x20,x25
    80002aac:	419b82bb          	subw	x5,x23,x25
    80002ab0:	009b2cb3          	slt	x25,x22,x9
    80002ab4:	0114a133          	slt	x2,x9,x17
    80002ab8:	009d8a3b          	addw	x20,x27,x9
    80002abc:	006181b3          	add	x3,x3,x6
    80002ac0:	019fe8b3          	or	x17,x31,x25
    80002ac4:	005cecb3          	or	x25,x25,x5
    80002ac8:	017bb7b3          	sltu	x15,x23,x23
    80002acc:	0125fc33          	and	x24,x11,x18
    80002ad0:	01366333          	or	x6,x12,x19
    80002ad4:	00e88d3b          	addw	x26,x17,x14
    80002ad8:	01f62bb3          	slt	x23,x12,x31
    80002adc:	0092a1b3          	slt	x3,x5,x9
    80002ae0:	40e30e33          	sub	x28,x6,x14
    80002ae4:	0089acb3          	slt	x25,x19,x8
    80002ae8:	00010c3b          	addw	x24,x2,x0
    80002aec:	41f183bb          	subw	x7,x3,x31
    80002af0:	41fa0a3b          	subw	x20,x20,x31
    80002af4:	417409bb          	subw	x19,x8,x23
    80002af8:	01228cb3          	add	x25,x5,x18
    80002afc:	0126a533          	slt	x10,x13,x18
    80002b00:	0161b1b3          	sltu	x3,x3,x22
    80002b04:	00802e33          	slt	x28,x0,x8
    80002b08:	40ed8b3b          	subw	x22,x27,x14
    80002b0c:	000d7233          	and	x4,x26,x0
    80002b10:	000feab3          	or	x21,x31,x0
    80002b14:	010336b3          	sltu	x13,x6,x16
    80002b18:	011b72b3          	and	x5,x22,x17
    80002b1c:	00f4ff33          	and	x30,x9,x15
    80002b20:	40c98d3b          	subw	x26,x19,x12
    80002b24:	00aa6eb3          	or	x29,x20,x10
    80002b28:	40b28133          	sub	x2,x5,x11
    80002b2c:	01192233          	slt	x4,x18,x17
    80002b30:	41a786bb          	subw	x13,x15,x26
    80002b34:	01788333          	add	x6,x17,x23
    80002b38:	0003ce33          	xor	x28,x7,x0
    80002b3c:	40980cb3          	sub	x25,x16,x9
    80002b40:	00a50b33          	add	x22,x10,x10
    80002b44:	40a6023b          	subw	x4,x12,x10
    80002b48:	017e8abb          	addw	x21,x29,x23
    80002b4c:	013f6db3          	or	x27,x30,x19
    80002b50:	01263133          	sltu	x2,x12,x18
    80002b54:	0113b033          	sltu	x0,x7,x17
    80002b58:	00bf8bb3          	add	x23,x31,x11
    80002b5c:	006703bb          	addw	x7,x14,x6
    80002b60:	01ceb833          	sltu	x16,x29,x28
    80002b64:	404a8533          	sub	x10,x21,x4
    80002b68:	016fb1b3          	sltu	x3,x31,x22
    80002b6c:	014149b3          	xor	x19,x2,x20
    80002b70:	0152e733          	or	x14,x5,x21
    80002b74:	019d63b3          	or	x7,x26,x25
    80002b78:	017467b3          	or	x15,x8,x23
    80002b7c:	00a326b3          	slt	x13,x6,x10
    80002b80:	008f8abb          	addw	x21,x31,x8
    80002b84:	00bf68b3          	or	x17,x30,x11
    80002b88:	019a44b3          	xor	x9,x20,x25
    80002b8c:	01ec81b3          	add	x3,x25,x30
    80002b90:	01af863b          	addw	x12,x31,x26
    80002b94:	0172013b          	addw	x2,x4,x23
    80002b98:	006e86b3          	add	x13,x29,x6
    80002b9c:	00854d33          	xor	x26,x10,x8
    80002ba0:	01f73a33          	sltu	x20,x14,x31
    80002ba4:	0127a1b3          	slt	x3,x15,x18
    80002ba8:	0057bf33          	sltu	x30,x15,x5
    80002bac:	40c80ab3          	sub	x21,x16,x12
    80002bb0:	0174c5b3          	xor	x11,x9,x23
    80002bb4:	40ac8c3b          	subw	x24,x25,x10
    80002bb8:	000f0033          	add	x0,x30,x0
    80002bbc:	019ff233          	and	x4,x31,x25
    80002bc0:	017a06bb          	addw	x13,x20,x23
    80002bc4:	01aef1b3          	and	x3,x29,x26
    80002bc8:	014d6fb3          	or	x31,x26,x20
    80002bcc:	002b4533          	xor	x10,x22,x2
    80002bd0:	4155883b          	subw	x16,x11,x21
    80002bd4:	01c664b3          	or	x9,x12,x28
    80002bd8:	01a939b3          	sltu	x19,x18,x26
    80002bdc:	406687b3          	sub	x15,x13,x6
    80002be0:	01a43133          	sltu	x2,x8,x26
    80002be4:	00902733          	slt	x14,x0,x9
    80002be8:	41e285b3          	sub	x11,x5,x30
    80002bec:	00094333          	xor	x6,x18,x0
    80002bf0:	00488a3b          	addw	x20,x17,x4
    80002bf4:	00c934b3          	sltu	x9,x18,x12
    80002bf8:	012877b3          	and	x15,x16,x18
    80002bfc:	01fd0333          	add	x6,x26,x31
    80002c00:	00a43733          	sltu	x14,x8,x10
    80002c04:	00bec4b3          	xor	x9,x29,x11
    80002c08:	00bac3b3          	xor	x7,x21,x11
    80002c0c:	00a33033          	sltu	x0,x6,x10
    80002c10:	40b40d3b          	subw	x26,x8,x11
    80002c14:	015f3333          	sltu	x6,x30,x21
    80002c18:	01354db3          	xor	x27,x10,x19
    80002c1c:	01fffeb3          	and	x29,x31,x31
    80002c20:	01c80cb3          	add	x25,x16,x28
    80002c24:	00676133          	or	x2,x14,x6
    80002c28:	4087093b          	subw	x18,x14,x8
    80002c2c:	41198a3b          	subw	x20,x19,x17
    80002c30:	404f8333          	sub	x6,x31,x4
    80002c34:	003f3033          	sltu	x0,x30,x3
    80002c38:	01b50db3          	add	x27,x10,x27
    80002c3c:	40bc08bb          	subw	x17,x24,x11
    80002c40:	40ec06bb          	subw	x13,x24,x14
    80002c44:	01c1fd33          	and	x26,x3,x28
    80002c48:	01b44ab3          	xor	x21,x8,x27
    80002c4c:	01c16fb3          	or	x31,x2,x28
    80002c50:	003e08b3          	add	x17,x28,x3
    80002c54:	0197a433          	slt	x8,x15,x25
    80002c58:	013bcb33          	xor	x22,x23,x19
    80002c5c:	005bf033          	and	x0,x23,x5
    80002c60:	00e70cbb          	addw	x25,x14,x14
    80002c64:	01abf933          	and	x18,x23,x26
    80002c68:	01117333          	and	x6,x2,x17
    80002c6c:	00c76b33          	or	x22,x14,x12
    80002c70:	005825b3          	slt	x11,x16,x5
    80002c74:	01d62f33          	slt	x30,x12,x29
    80002c78:	017f86bb          	addw	x13,x31,x23
    80002c7c:	40fa87bb          	subw	x15,x21,x15
    80002c80:	01dc3533          	sltu	x10,x24,x29
    80002c84:	0078e3b3          	or	x7,x17,x7
    80002c88:	01437a33          	and	x20,x6,x20
    80002c8c:	013bceb3          	xor	x29,x23,x19
    80002c90:	01e93db3          	sltu	x27,x18,x30
    80002c94:	00e4a5b3          	slt	x11,x9,x14
    80002c98:	012b7833          	and	x16,x22,x18
    80002c9c:	007d0eb3          	add	x29,x26,x7
    80002ca0:	003cf8b3          	and	x17,x25,x3
    80002ca4:	004b03b3          	add	x7,x22,x4
    80002ca8:	01e07e33          	and	x28,x0,x30
    80002cac:	006b6333          	or	x6,x22,x6
    80002cb0:	00be8b3b          	addw	x22,x29,x11
    80002cb4:	000c0c33          	add	x24,x24,x0
    80002cb8:	01e38ab3          	add	x21,x7,x30
    80002cbc:	00d47f33          	and	x30,x8,x13
    80002cc0:	01f62d33          	slt	x26,x12,x31
    80002cc4:	00e981bb          	addw	x3,x19,x14
    80002cc8:	41b00c33          	sub	x24,x0,x27
    80002ccc:	013ac033          	xor	x0,x21,x19
    80002cd0:	009df733          	and	x14,x27,x9
    80002cd4:	4076043b          	subw	x8,x12,x7
    80002cd8:	006cc9b3          	xor	x19,x25,x6
    80002cdc:	018b3833          	sltu	x16,x22,x24
    80002ce0:	00f16033          	or	x0,x2,x15
    80002ce4:	018c0c33          	add	x24,x24,x24
    80002ce8:	00f249b3          	xor	x19,x4,x15
    80002cec:	017bf633          	and	x12,x23,x23
    80002cf0:	00b16d33          	or	x26,x2,x11
    80002cf4:	01bc45b3          	xor	x11,x24,x27
    80002cf8:	01697933          	and	x18,x18,x22
    80002cfc:	003b84bb          	addw	x9,x23,x3
    80002d00:	006e2eb3          	slt	x29,x28,x6
    80002d04:	414509b3          	sub	x19,x10,x20
    80002d08:	40f80b3b          	subw	x22,x16,x15
    80002d0c:	01b74ab3          	xor	x21,x14,x27
    80002d10:	01ecccb3          	xor	x25,x25,x30
    80002d14:	404e09b3          	sub	x19,x28,x4
    80002d18:	00a84db3          	xor	x27,x16,x10
    80002d1c:	40ee0bb3          	sub	x23,x28,x14
    80002d20:	004ef4b3          	and	x9,x29,x4
    80002d24:	013f093b          	addw	x18,x30,x19
    80002d28:	41610033          	sub	x0,x2,x22
    80002d2c:	00530e33          	add	x28,x6,x5
    80002d30:	411e873b          	subw	x14,x29,x17
    80002d34:	01eb8633          	add	x12,x23,x30
    80002d38:	00fcc1b3          	xor	x3,x25,x15
    80002d3c:	01146133          	or	x2,x8,x17
    80002d40:	01db8233          	add	x4,x23,x29
    80002d44:	41ba843b          	subw	x8,x21,x27
    80002d48:	01e878b3          	and	x17,x16,x30
    80002d4c:	01edb133          	sltu	x2,x27,x30
    80002d50:	01532ab3          	slt	x21,x6,x21
    80002d54:	01644c33          	xor	x24,x8,x22
    80002d58:	01424f33          	xor	x30,x4,x20
    80002d5c:	0094a533          	slt	x10,x9,x9
    80002d60:	000be733          	or	x14,x23,x0
    80002d64:	01bd89b3          	add	x19,x27,x27
    80002d68:	40bc0033          	sub	x0,x24,x11
    80002d6c:	01e34e33          	xor	x28,x6,x30
    80002d70:	00c2b333          	sltu	x6,x5,x12
    80002d74:	00df0d33          	add	x26,x30,x13
    80002d78:	01ba4633          	xor	x12,x20,x27
    80002d7c:	408701b3          	sub	x3,x14,x8
    80002d80:	0186f8b3          	and	x17,x13,x24
    80002d84:	014aa9b3          	slt	x19,x21,x20
    80002d88:	41060233          	sub	x4,x12,x16
    80002d8c:	41570e3b          	subw	x28,x14,x21
    80002d90:	0127aa33          	slt	x20,x15,x18
    80002d94:	417304b3          	sub	x9,x6,x23
    80002d98:	412f8f3b          	subw	x30,x31,x18
    80002d9c:	005182bb          	addw	x5,x3,x5
    80002da0:	0177c133          	xor	x2,x15,x23
    80002da4:	41320c33          	sub	x24,x4,x19
    80002da8:	00e67ab3          	and	x21,x12,x14
    80002dac:	01ea2733          	slt	x14,x20,x30
    80002db0:	016c8dbb          	addw	x27,x25,x22
    80002db4:	00862933          	slt	x18,x12,x8
    80002db8:	00dd3133          	sltu	x2,x26,x13
    80002dbc:	013e863b          	addw	x12,x29,x19
    80002dc0:	004b04b3          	add	x9,x22,x4
    80002dc4:	0117a2b3          	slt	x5,x15,x17
    80002dc8:	01406ab3          	or	x21,x0,x20
    80002dcc:	01613233          	sltu	x4,x2,x22
    80002dd0:	0087013b          	addw	x2,x14,x8
    80002dd4:	012905bb          	addw	x11,x18,x18
    80002dd8:	418e803b          	subw	x0,x29,x24
    80002ddc:	013c6c33          	or	x24,x24,x19
    80002de0:	01fe8cbb          	addw	x25,x29,x31
    80002de4:	01be41b3          	xor	x3,x28,x27
    80002de8:	007ba933          	slt	x18,x23,x7
    80002dec:	41858d3b          	subw	x26,x11,x24
    80002df0:	01902433          	slt	x8,x0,x25
    80002df4:	01eb2b33          	slt	x22,x22,x30
    80002df8:	00c84ab3          	xor	x21,x16,x12
    80002dfc:	01ca07bb          	addw	x15,x20,x28
    80002e00:	00d74933          	xor	x18,x14,x13
    80002e04:	00a6e633          	or	x12,x13,x10
    80002e08:	0084e3b3          	or	x7,x9,x8
    80002e0c:	00efbb33          	sltu	x22,x31,x14
    80002e10:	00dba4b3          	slt	x9,x23,x13
    80002e14:	005546b3          	xor	x13,x10,x5
    80002e18:	01437a33          	and	x20,x6,x20
    80002e1c:	407908b3          	sub	x17,x18,x7
    80002e20:	01764bb3          	xor	x23,x12,x23
    80002e24:	003eed33          	or	x26,x29,x3
    80002e28:	00a3b833          	sltu	x16,x7,x10
    80002e2c:	407904bb          	subw	x9,x18,x7
    80002e30:	00c78fbb          	addw	x31,x15,x12
    80002e34:	00738133          	add	x2,x7,x7
    80002e38:	011a4f33          	xor	x30,x20,x17
    80002e3c:	40b90533          	sub	x10,x18,x11
    80002e40:	00dea833          	slt	x16,x29,x13
    80002e44:	404f813b          	subw	x2,x31,x4
    80002e48:	01c386b3          	add	x13,x7,x28
    80002e4c:	015dfbb3          	and	x23,x27,x21
    80002e50:	010a25b3          	slt	x11,x20,x16
    80002e54:	01942733          	slt	x14,x8,x25
    80002e58:	41d18db3          	sub	x27,x3,x29
    80002e5c:	41f009b3          	sub	x19,x0,x31
    80002e60:	01ed35b3          	sltu	x11,x26,x30
    80002e64:	40040ab3          	sub	x21,x8,x0
    80002e68:	01e20eb3          	add	x29,x4,x30
    80002e6c:	014f71b3          	and	x3,x30,x20
    80002e70:	41b30cbb          	subw	x25,x6,x27
    80002e74:	00a43fb3          	sltu	x31,x8,x10
    80002e78:	0143f3b3          	and	x7,x7,x20
    80002e7c:	0092e2b3          	or	x5,x5,x9
    80002e80:	00ce7933          	and	x18,x28,x12
    80002e84:	00bbcdb3          	xor	x27,x23,x11
    80002e88:	01e361b3          	or	x3,x6,x30
    80002e8c:	41f403bb          	subw	x7,x8,x31
    80002e90:	018a0733          	add	x14,x20,x24
    80002e94:	01c32cb3          	slt	x25,x6,x28
    80002e98:	01adf1b3          	and	x3,x27,x26
    80002e9c:	01bb7eb3          	and	x29,x22,x27
    80002ea0:	01e36033          	or	x0,x6,x30
    80002ea4:	018aed33          	or	x26,x21,x24
    80002ea8:	006307b3          	add	x15,x6,x6
    80002eac:	0131aa33          	slt	x20,x3,x19
    80002eb0:	006c043b          	addw	x8,x24,x6
    80002eb4:	011ca633          	slt	x12,x25,x17
    80002eb8:	01bc6c33          	or	x24,x24,x27
    80002ebc:	007d7cb3          	and	x25,x26,x7
    80002ec0:	409886b3          	sub	x13,x17,x9
    80002ec4:	00aa09bb          	addw	x19,x20,x10
    80002ec8:	00ea6533          	or	x10,x20,x14
    80002ecc:	40478333          	sub	x6,x15,x4
    80002ed0:	405f8a33          	sub	x20,x31,x5
    80002ed4:	00b822b3          	slt	x5,x16,x11
    80002ed8:	01de34b3          	sltu	x9,x28,x29
    80002edc:	00b1cdb3          	xor	x27,x3,x11
    80002ee0:	0137a6b3          	slt	x13,x15,x19
    80002ee4:	01ff0733          	add	x14,x30,x31
    80002ee8:	40fd0d3b          	subw	x26,x26,x15
    80002eec:	019e32b3          	sltu	x5,x28,x25
    80002ef0:	01733ab3          	sltu	x21,x6,x23
    80002ef4:	010b05b3          	add	x11,x22,x16
    80002ef8:	010b3e33          	sltu	x28,x22,x16
    80002efc:	00e3e833          	or	x16,x7,x14
    80002f00:	40ea0233          	sub	x4,x20,x14
    80002f04:	411c09b3          	sub	x19,x24,x17
    80002f08:	00944133          	xor	x2,x8,x9
    80002f0c:	00fbe333          	or	x6,x23,x15
    80002f10:	415f023b          	subw	x4,x30,x21
    80002f14:	00a56a33          	or	x20,x10,x10
    80002f18:	01f4a1b3          	slt	x3,x9,x31
    80002f1c:	417389b3          	sub	x19,x7,x23
    80002f20:	012b6ab3          	or	x21,x22,x18
    80002f24:	41f70bbb          	subw	x23,x14,x31
    80002f28:	010efcb3          	and	x25,x29,x16
    80002f2c:	01c60633          	add	x12,x12,x28
    80002f30:	002b6d33          	or	x26,x22,x2
    80002f34:	0123e833          	or	x16,x7,x18
    80002f38:	00506f33          	or	x30,x0,x5
    80002f3c:	0038e7b3          	or	x15,x17,x3
    80002f40:	00abfeb3          	and	x29,x23,x10
    80002f44:	419c85bb          	subw	x11,x25,x25
    80002f48:	0161fc33          	and	x24,x3,x22
    80002f4c:	40d88f33          	sub	x30,x17,x13
    80002f50:	405f8433          	sub	x8,x31,x5
    80002f54:	400f84bb          	subw	x9,x31,x0
    80002f58:	0132a633          	slt	x12,x5,x19
    80002f5c:	005c8dbb          	addw	x27,x25,x5
    80002f60:	40d689b3          	sub	x19,x13,x13
    80002f64:	41ee86b3          	sub	x13,x29,x30
    80002f68:	012563b3          	or	x7,x10,x18
    80002f6c:	41bd8c3b          	subw	x24,x27,x27
    80002f70:	405107bb          	subw	x15,x2,x5
    80002f74:	0175a1b3          	slt	x3,x11,x23
    80002f78:	01e449b3          	xor	x19,x8,x30
    80002f7c:	016326b3          	slt	x13,x6,x22
    80002f80:	00a84b33          	xor	x22,x16,x10
    80002f84:	00536233          	or	x4,x6,x5
    80002f88:	010a2fb3          	slt	x31,x20,x16
    80002f8c:	00b14eb3          	xor	x29,x2,x11
    80002f90:	0171aa33          	slt	x20,x3,x23
    80002f94:	00420b3b          	addw	x22,x4,x4
    80002f98:	0028a433          	slt	x8,x17,x2
    80002f9c:	019d0fb3          	add	x31,x26,x25
    80002fa0:	40ae8833          	sub	x16,x29,x10
    80002fa4:	01ca7cb3          	and	x25,x20,x28
    80002fa8:	4164033b          	subw	x6,x8,x22
    80002fac:	415f0c33          	sub	x24,x30,x21
    80002fb0:	0168b3b3          	sltu	x7,x17,x22
    80002fb4:	00556033          	or	x0,x10,x5
    80002fb8:	006bcfb3          	xor	x31,x23,x6
    80002fbc:	00b2c233          	xor	x4,x5,x11
    80002fc0:	411b05b3          	sub	x11,x22,x17
    80002fc4:	00287ab3          	and	x21,x16,x2
    80002fc8:	411f0333          	sub	x6,x30,x17
    80002fcc:	00a68733          	add	x14,x13,x10
    80002fd0:	40b007bb          	subw	x15,x0,x11
    80002fd4:	003e6433          	or	x8,x28,x3
    80002fd8:	014fc4b3          	xor	x9,x31,x20
    80002fdc:	01f6e933          	or	x18,x13,x31
    80002fe0:	01058e33          	add	x28,x11,x16
    80002fe4:	0192ba33          	sltu	x20,x5,x25
    80002fe8:	017a8cbb          	addw	x25,x21,x23
    80002fec:	00a3b6b3          	sltu	x13,x7,x10
    80002ff0:	417b8833          	sub	x16,x23,x23
    80002ff4:	017ef433          	and	x8,x29,x23
    80002ff8:	0035fe33          	and	x28,x11,x3
    80002ffc:	000882bb          	addw	x5,x17,x0
    80003000:	40288bbb          	subw	x23,x17,x2
    80003004:	01baf933          	and	x18,x21,x27
    80003008:	41eb083b          	subw	x16,x22,x30
    8000300c:	01e333b3          	sltu	x7,x6,x30
    80003010:	01e20533          	add	x10,x4,x30
    80003014:	40858d3b          	subw	x26,x11,x8
    80003018:	0135a933          	slt	x18,x11,x19
    8000301c:	411b02bb          	subw	x5,x22,x17
    80003020:	0193ffb3          	and	x31,x7,x25
    80003024:	00a60433          	add	x8,x12,x10
    80003028:	41000c33          	sub	x24,x0,x16
    8000302c:	01aaf633          	and	x12,x21,x26
    80003030:	01c866b3          	or	x13,x16,x28
    80003034:	00824bb3          	xor	x23,x4,x8
    80003038:	012d8e3b          	addw	x28,x27,x18
    8000303c:	01ec2333          	slt	x6,x24,x30
    80003040:	00ff87bb          	addw	x15,x31,x15
    80003044:	404a86bb          	subw	x13,x21,x4
    80003048:	412e8ab3          	sub	x21,x29,x18
    8000304c:	01d04233          	xor	x4,x0,x29
    80003050:	00fd3fb3          	sltu	x31,x26,x15
    80003054:	017724b3          	slt	x9,x14,x23
    80003058:	41810833          	sub	x16,x2,x24
    8000305c:	00b37b33          	and	x22,x6,x11
    80003060:	014279b3          	and	x19,x4,x20
    80003064:	0002803b          	addw	x0,x5,x0
    80003068:	40ce0633          	sub	x12,x28,x12
    8000306c:	00942fb3          	slt	x31,x8,x9
    80003070:	011a8c3b          	addw	x24,x21,x17
    80003074:	010379b3          	and	x19,x6,x16
    80003078:	4002003b          	subw	x0,x4,x0
    8000307c:	408d8633          	sub	x12,x27,x8
    80003080:	0142fab3          	and	x21,x5,x20
    80003084:	0142f233          	and	x4,x5,x20
    80003088:	00917db3          	and	x27,x2,x9
    8000308c:	41038c33          	sub	x24,x7,x16
    80003090:	00a843b3          	xor	x7,x16,x10
    80003094:	01ecc833          	xor	x16,x25,x30
    80003098:	00070a33          	add	x20,x14,x0
    8000309c:	40358233          	sub	x4,x11,x3
    800030a0:	41b5043b          	subw	x8,x10,x27
    800030a4:	4188853b          	subw	x10,x17,x24
    800030a8:	00ff3ab3          	sltu	x21,x30,x15
    800030ac:	01dc4833          	xor	x16,x24,x29
    800030b0:	01778b33          	add	x22,x15,x23
    800030b4:	01266533          	or	x10,x12,x18
    800030b8:	01fc093b          	addw	x18,x24,x31
    800030bc:	009d2db3          	slt	x27,x26,x9
    800030c0:	006e04bb          	addw	x9,x28,x6
    800030c4:	00c84433          	xor	x8,x16,x12
    800030c8:	01690733          	add	x14,x18,x22
    800030cc:	00057cb3          	and	x25,x10,x0
    800030d0:	413d88b3          	sub	x17,x27,x19
    800030d4:	00df43b3          	xor	x7,x30,x13
    800030d8:	00228a3b          	addw	x20,x5,x2
    800030dc:	01d827b3          	slt	x15,x16,x29
    800030e0:	008026b3          	slt	x13,x0,x8
    800030e4:	005961b3          	or	x3,x18,x5
    800030e8:	41aa0db3          	sub	x27,x20,x26
    800030ec:	00ab37b3          	sltu	x15,x22,x10
    800030f0:	00086233          	or	x4,x16,x0
    800030f4:	01acb933          	sltu	x18,x25,x26
    800030f8:	00800dbb          	addw	x27,x0,x8
    800030fc:	01fe7f33          	and	x30,x28,x31
    80003100:	411c07bb          	subw	x15,x24,x17
    80003104:	003171b3          	and	x3,x2,x3
    80003108:	010b873b          	addw	x14,x23,x16
    8000310c:	41ac0ebb          	subw	x29,x24,x26
    80003110:	00f965b3          	or	x11,x18,x15
    80003114:	010bb033          	sltu	x0,x23,x16
    80003118:	00697c33          	and	x24,x18,x6
    8000311c:	410f0cbb          	subw	x25,x30,x16
    80003120:	41ee0d3b          	subw	x26,x28,x30
    80003124:	00c97833          	and	x16,x18,x12
    80003128:	014f7733          	and	x14,x30,x20
    8000312c:	00f14633          	xor	x12,x2,x15
    80003130:	00352933          	slt	x18,x10,x3
    80003134:	00f465b3          	or	x11,x8,x15
    80003138:	00568bb3          	add	x23,x13,x5
    8000313c:	0038cf33          	xor	x30,x17,x3
    80003140:	402a8333          	sub	x6,x21,x2
    80003144:	0003eb33          	or	x22,x7,x0
    80003148:	0187bc33          	sltu	x24,x15,x24
    8000314c:	40e583bb          	subw	x7,x11,x14
    80003150:	0029a5b3          	slt	x11,x19,x2
    80003154:	00434933          	xor	x18,x6,x4
    80003158:	41bf09b3          	sub	x19,x30,x27
    8000315c:	00aefdb3          	and	x27,x29,x10
    80003160:	015176b3          	and	x13,x2,x21
    80003164:	010e75b3          	and	x11,x28,x16
    80003168:	417e0133          	sub	x2,x28,x23
    8000316c:	018974b3          	and	x9,x18,x24
    80003170:	01047ab3          	and	x21,x8,x16
    80003174:	40318833          	sub	x16,x3,x3
    80003178:	40b006b3          	sub	x13,x0,x11
    8000317c:	00207133          	and	x2,x0,x2
    80003180:	017f8333          	add	x6,x31,x23
    80003184:	004c49b3          	xor	x19,x24,x4
    80003188:	015dc033          	xor	x0,x27,x21
    8000318c:	0042ceb3          	xor	x29,x5,x4
    80003190:	418d8b33          	sub	x22,x27,x24
    80003194:	405f0433          	sub	x8,x30,x5
    80003198:	0041a7b3          	slt	x15,x3,x4
    8000319c:	011fad33          	slt	x26,x31,x17
    800031a0:	01433db3          	sltu	x27,x6,x20
    800031a4:	40cf82b3          	sub	x5,x31,x12
    800031a8:	4033093b          	subw	x18,x6,x3
    800031ac:	014d3133          	sltu	x2,x26,x20
    800031b0:	01dde333          	or	x6,x27,x29
    800031b4:	40da073b          	subw	x14,x20,x13
    800031b8:	015b3d33          	sltu	x26,x22,x21
    800031bc:	415485bb          	subw	x11,x9,x21
    800031c0:	40fb02b3          	sub	x5,x22,x15
    800031c4:	00e60dbb          	addw	x27,x12,x14
    800031c8:	00003733          	sltu	x14,x0,x0
    800031cc:	01a50333          	add	x6,x10,x26
    800031d0:	0072ebb3          	or	x23,x5,x7
    800031d4:	41b90f33          	sub	x30,x18,x27
    800031d8:	00a2ac33          	slt	x24,x5,x10
    800031dc:	01f2feb3          	and	x29,x5,x31
    800031e0:	00cb0333          	add	x6,x22,x12
    800031e4:	004b043b          	addw	x8,x22,x4
    800031e8:	00593e33          	sltu	x28,x18,x5
    800031ec:	0174f6b3          	and	x13,x9,x23
    800031f0:	419c0b33          	sub	x22,x24,x25
    800031f4:	00eee633          	or	x12,x29,x14
    800031f8:	40fe04b3          	sub	x9,x28,x15
    800031fc:	01813733          	sltu	x14,x2,x24
    80003200:	0028043b          	addw	x8,x16,x2
    80003204:	41c58abb          	subw	x21,x11,x28
    80003208:	01b14533          	xor	x10,x2,x27
    8000320c:	00d1fdb3          	and	x27,x3,x13
    80003210:	418e003b          	subw	x0,x28,x24
    80003214:	01ebf4b3          	and	x9,x23,x30
    80003218:	01e745b3          	xor	x11,x14,x30
    8000321c:	0072bc33          	sltu	x24,x5,x7
    80003220:	015fa3b3          	slt	x7,x31,x21
    80003224:	41e60833          	sub	x16,x12,x30
    80003228:	00000533          	add	x10,x0,x0
    8000322c:	00f346b3          	xor	x13,x6,x15
    80003230:	01eaeb33          	or	x22,x21,x30
    80003234:	014c6133          	or	x2,x24,x20
    80003238:	019a68b3          	or	x17,x20,x25
    8000323c:	00cbaab3          	slt	x21,x23,x12
    80003240:	01c286bb          	addw	x13,x5,x28
    80003244:	006607b3          	add	x15,x12,x6
    80003248:	01b42fb3          	slt	x31,x8,x27
    8000324c:	400b0dbb          	subw	x27,x22,x0
    80003250:	011ceab3          	or	x21,x25,x17
    80003254:	40668d3b          	subw	x26,x13,x6
    80003258:	00d74bb3          	xor	x23,x14,x13
    8000325c:	01bdaf33          	slt	x30,x27,x27
    80003260:	0181e4b3          	or	x9,x3,x24
    80003264:	00b04a33          	xor	x20,x0,x11
    80003268:	00a2c233          	xor	x4,x5,x10
    8000326c:	0135c7b3          	xor	x15,x11,x19
    80003270:	41ba863b          	subw	x12,x21,x27
    80003274:	405909bb          	subw	x19,x18,x5
    80003278:	0095fbb3          	and	x23,x11,x9
    8000327c:	00e57db3          	and	x27,x10,x14
    80003280:	01683033          	sltu	x0,x16,x22
    80003284:	00f43933          	sltu	x18,x8,x15
    80003288:	01cbfd33          	and	x26,x23,x28
    8000328c:	40218dbb          	subw	x27,x3,x2
    80003290:	41d189bb          	subw	x19,x3,x29
    80003294:	000efc33          	and	x24,x29,x0
    80003298:	01db8833          	add	x16,x23,x29
    8000329c:	41460a3b          	subw	x20,x12,x20
    800032a0:	0137a933          	slt	x18,x15,x19
    800032a4:	01d32b33          	slt	x22,x6,x29
    800032a8:	00760bb3          	add	x23,x12,x7
    800032ac:	0081f733          	and	x14,x3,x8
    800032b0:	415e8333          	sub	x6,x29,x21
    800032b4:	0122ac33          	slt	x24,x5,x18
    800032b8:	01f88fbb          	addw	x31,x17,x31
    800032bc:	01ee48b3          	xor	x17,x28,x30
    800032c0:	0195f833          	and	x16,x11,x25
    800032c4:	008e3d33          	sltu	x26,x28,x8
    800032c8:	00998633          	add	x12,x19,x9
    800032cc:	417a0f3b          	subw	x30,x20,x23
    800032d0:	41228533          	sub	x10,x5,x18
    800032d4:	00d1c2b3          	xor	x5,x3,x13
    800032d8:	01206133          	or	x2,x0,x18
    800032dc:	014b2233          	slt	x4,x22,x20
    800032e0:	012c0433          	add	x8,x24,x18
    800032e4:	00564b33          	xor	x22,x12,x5
    800032e8:	01137733          	and	x14,x6,x17
    800032ec:	0046013b          	addw	x2,x12,x4
    800032f0:	405c8bb3          	sub	x23,x25,x5
    800032f4:	0155fcb3          	and	x25,x11,x21
    800032f8:	000e03bb          	addw	x7,x28,x0
    800032fc:	01672733          	slt	x14,x14,x22
    80003300:	01f861b3          	or	x3,x16,x31
    80003304:	0198f9b3          	and	x19,x17,x25
    80003308:	010327b3          	slt	x15,x6,x16
    8000330c:	01886e33          	or	x28,x16,x24
    80003310:	01d1e4b3          	or	x9,x3,x29
    80003314:	00d648b3          	xor	x17,x12,x13
    80003318:	010efeb3          	and	x29,x29,x16
    8000331c:	0103043b          	addw	x8,x6,x16
    80003320:	01c64cb3          	xor	x25,x12,x28
    80003324:	0042e8b3          	or	x17,x5,x4
    80003328:	010b3ab3          	sltu	x21,x22,x16
    8000332c:	0181833b          	addw	x6,x3,x24
    80003330:	00d503bb          	addw	x7,x10,x13
    80003334:	40d78233          	sub	x4,x15,x13
    80003338:	01f706bb          	addw	x13,x14,x31
    8000333c:	018c84b3          	add	x9,x25,x24
    80003340:	0073fc33          	and	x24,x7,x7
    80003344:	00893333          	sltu	x6,x18,x8
    80003348:	40b98d33          	sub	x26,x19,x11
    8000334c:	41b70133          	sub	x2,x14,x27
    80003350:	412887b3          	sub	x15,x17,x18
    80003354:	00334cb3          	xor	x25,x6,x3
    80003358:	405b8333          	sub	x6,x23,x5
    8000335c:	40b20b3b          	subw	x22,x4,x11
    80003360:	404a0a33          	sub	x20,x20,x4
    80003364:	00bdefb3          	or	x31,x27,x11
    80003368:	40f8833b          	subw	x6,x17,x15
    8000336c:	01767db3          	and	x27,x12,x23
    80003370:	00ee4b33          	xor	x22,x28,x14
    80003374:	01e3f3b3          	and	x7,x7,x30
    80003378:	412b8433          	sub	x8,x23,x18
    8000337c:	011d8cbb          	addw	x25,x27,x17
    80003380:	410986b3          	sub	x13,x19,x16
    80003384:	002ef8b3          	and	x17,x29,x2
    80003388:	01234633          	xor	x12,x6,x18
    8000338c:	0051e433          	or	x8,x3,x5
    80003390:	00e22833          	slt	x16,x4,x14
    80003394:	0056e233          	or	x4,x13,x5
    80003398:	015be533          	or	x10,x23,x21
    8000339c:	01f98cbb          	addw	x25,x19,x31
    800033a0:	01fb8abb          	addw	x21,x23,x31
    800033a4:	009c2933          	slt	x18,x24,x9
    800033a8:	018b7033          	and	x0,x22,x24
    800033ac:	01344533          	xor	x10,x8,x19
    800033b0:	005f3d33          	sltu	x26,x30,x5
    800033b4:	0053f8b3          	and	x17,x7,x5
    800033b8:	01398833          	add	x16,x19,x19
    800033bc:	014abb33          	sltu	x22,x21,x20
    800033c0:	40b70fbb          	subw	x31,x14,x11
    800033c4:	0115843b          	addw	x8,x11,x17
    800033c8:	01ad4933          	xor	x18,x26,x26
    800033cc:	01c88d33          	add	x26,x17,x28
    800033d0:	0141c033          	xor	x0,x3,x20
    800033d4:	01c30fb3          	add	x31,x6,x28
    800033d8:	40b601b3          	sub	x3,x12,x11
    800033dc:	0182edb3          	or	x27,x5,x24
    800033e0:	01948d33          	add	x26,x9,x25
    800033e4:	00e6ceb3          	xor	x29,x13,x14
    800033e8:	00cb3a33          	sltu	x20,x22,x12
    800033ec:	419683bb          	subw	x7,x13,x25
    800033f0:	009d0b33          	add	x22,x26,x9
    800033f4:	000d8833          	add	x16,x27,x0
    800033f8:	408e02bb          	subw	x5,x28,x8
    800033fc:	406c0ab3          	sub	x21,x24,x6
    80003400:	00b50e3b          	addw	x28,x10,x11
    80003404:	00f92633          	slt	x12,x18,x15
    80003408:	009ea5b3          	slt	x11,x29,x9
    8000340c:	01153fb3          	sltu	x31,x10,x17
    80003410:	0187b6b3          	sltu	x13,x15,x24
    80003414:	009d87bb          	addw	x15,x27,x9
    80003418:	019e83b3          	add	x7,x29,x25
    8000341c:	0105ae33          	slt	x28,x11,x16
    80003420:	41ed0d3b          	subw	x26,x26,x30
    80003424:	0088c333          	xor	x6,x17,x8
    80003428:	00344ab3          	xor	x21,x8,x3
    8000342c:	012f7933          	and	x18,x30,x18
    80003430:	007fcb33          	xor	x22,x31,x7
    80003434:	00882233          	slt	x4,x16,x8
    80003438:	41e283bb          	subw	x7,x5,x30
    8000343c:	01a109b3          	add	x19,x2,x26
    80003440:	41bd8eb3          	sub	x29,x27,x27
    80003444:	40528ab3          	sub	x21,x5,x5
    80003448:	00c66bb3          	or	x23,x12,x12
    8000344c:	41068233          	sub	x4,x13,x16
    80003450:	012a4633          	xor	x12,x20,x18
    80003454:	01c4eb33          	or	x22,x9,x28
    80003458:	0055abb3          	slt	x23,x11,x5
    8000345c:	004f47b3          	xor	x15,x30,x4
    80003460:	0062ed33          	or	x26,x5,x6
    80003464:	018ef4b3          	and	x9,x29,x24
    80003468:	0198833b          	addw	x6,x17,x25
    8000346c:	01c20a3b          	addw	x20,x4,x28
    80003470:	402007b3          	sub	x15,x0,x2
    80003474:	00986633          	or	x12,x16,x9
    80003478:	004b083b          	addw	x16,x22,x4
    8000347c:	017981bb          	addw	x3,x19,x23
    80003480:	00f4a5b3          	slt	x11,x9,x15
    80003484:	00768733          	add	x14,x13,x7
    80003488:	41250ab3          	sub	x21,x10,x18
    8000348c:	017e8eb3          	add	x29,x29,x23
    80003490:	01a2cfb3          	xor	x31,x5,x26
    80003494:	0175b9b3          	sltu	x19,x11,x23
    80003498:	018f2f33          	slt	x30,x30,x24
    8000349c:	41c68db3          	sub	x27,x13,x28
    800034a0:	000577b3          	and	x15,x10,x0
    800034a4:	41c00fbb          	subw	x31,x0,x28
    800034a8:	00522e33          	slt	x28,x4,x5
    800034ac:	015575b3          	and	x11,x10,x21
    800034b0:	010dc8b3          	xor	x17,x27,x16
    800034b4:	00560b33          	add	x22,x12,x5
    800034b8:	40a00ebb          	subw	x29,x0,x10
    800034bc:	01ce4a33          	xor	x20,x28,x28
    800034c0:	01f741b3          	xor	x3,x14,x31
    800034c4:	01f83fb3          	sltu	x31,x16,x31
    800034c8:	006dbbb3          	sltu	x23,x27,x6
    800034cc:	40660ebb          	subw	x29,x12,x6
    800034d0:	0069b633          	sltu	x12,x19,x6
    800034d4:	404401b3          	sub	x3,x8,x4
    800034d8:	01fce933          	or	x18,x25,x31
    800034dc:	01fee033          	or	x0,x29,x31
    800034e0:	40e586bb          	subw	x13,x11,x14
    800034e4:	01ba78b3          	and	x17,x20,x27
    800034e8:	012f85b3          	add	x11,x31,x18
    800034ec:	41c40fbb          	subw	x31,x8,x28
    800034f0:	01d9a033          	slt	x0,x19,x29
    800034f4:	41ee0cbb          	subw	x25,x28,x30
    800034f8:	00da043b          	addw	x8,x20,x13
    800034fc:	0073feb3          	and	x29,x7,x7
    80003500:	004e73b3          	and	x7,x28,x4
    80003504:	00578d3b          	addw	x26,x15,x5
    80003508:	01857e33          	and	x28,x10,x24
    8000350c:	00074fb3          	xor	x31,x14,x0
    80003510:	40d30eb3          	sub	x29,x6,x13
    80003514:	416181bb          	subw	x3,x3,x22
    80003518:	008269b3          	or	x19,x4,x8
    8000351c:	01480d3b          	addw	x26,x16,x20
    80003520:	41d38e33          	sub	x28,x7,x29
    80003524:	014acdb3          	xor	x27,x21,x20
    80003528:	01978fb3          	add	x31,x15,x25
    8000352c:	002973b3          	and	x7,x18,x2
    80003530:	016021b3          	slt	x3,x0,x22
    80003534:	00848b33          	add	x22,x9,x8
    80003538:	009cae33          	slt	x28,x25,x9
    8000353c:	01aa35b3          	sltu	x11,x20,x26
    80003540:	41f682b3          	sub	x5,x13,x31
    80003544:	000ebeb3          	sltu	x29,x29,x0
    80003548:	01460bbb          	addw	x23,x12,x20
    8000354c:	0005ea33          	or	x20,x11,x0
    80003550:	40b1863b          	subw	x12,x3,x11
    80003554:	00de7f33          	and	x30,x28,x13
    80003558:	405a8533          	sub	x10,x21,x5
    8000355c:	000d013b          	addw	x2,x26,x0
    80003560:	4098003b          	subw	x0,x16,x9
    80003564:	40d90b3b          	subw	x22,x18,x13
    80003568:	015d0433          	add	x8,x26,x21
    8000356c:	01822a33          	slt	x20,x4,x24
    80003570:	01d10cb3          	add	x25,x2,x29
    80003574:	40e702b3          	sub	x5,x14,x14
    80003578:	0174cdb3          	xor	x27,x9,x23
    8000357c:	01f03233          	sltu	x4,x0,x31
    80003580:	01e787b3          	add	x15,x15,x30
    80003584:	00ef73b3          	and	x7,x30,x14
    80003588:	01868cb3          	add	x25,x13,x24
    8000358c:	413409bb          	subw	x19,x8,x19
    80003590:	01848b3b          	addw	x22,x9,x24
    80003594:	01180733          	add	x14,x16,x17
    80003598:	007f0f33          	add	x30,x30,x7
    8000359c:	006d083b          	addw	x16,x26,x6
    800035a0:	007163b3          	or	x7,x2,x7
    800035a4:	40cd85b3          	sub	x11,x27,x12
    800035a8:	01d60dbb          	addw	x27,x12,x29
    800035ac:	01aac333          	xor	x6,x21,x26
    800035b0:	40f1053b          	subw	x10,x2,x15
    800035b4:	41da8e33          	sub	x28,x21,x29
    800035b8:	00fea3b3          	slt	x7,x29,x15
    800035bc:	00fde833          	or	x16,x27,x15
    800035c0:	011bca33          	xor	x20,x23,x17
    800035c4:	017c013b          	addw	x2,x24,x23
    800035c8:	013434b3          	sltu	x9,x8,x19
    800035cc:	4165093b          	subw	x18,x10,x22
    800035d0:	40628ab3          	sub	x21,x5,x6
    800035d4:	00c045b3          	xor	x11,x0,x12
    800035d8:	418b82b3          	sub	x5,x23,x24
    800035dc:	007ebbb3          	sltu	x23,x29,x7
    800035e0:	00053833          	sltu	x16,x10,x0
    800035e4:	0131033b          	addw	x6,x2,x19
    800035e8:	0198ed33          	or	x26,x17,x25
    800035ec:	01f7fe33          	and	x28,x15,x31
    800035f0:	01448db3          	add	x27,x9,x20
    800035f4:	0165f3b3          	and	x7,x11,x22
    800035f8:	40af0c33          	sub	x24,x30,x10
    800035fc:	00bf26b3          	slt	x13,x30,x11
    80003600:	004d0533          	add	x10,x26,x4
    80003604:	00c385bb          	addw	x11,x7,x12
    80003608:	007f6433          	or	x8,x30,x7
    8000360c:	00486cb3          	or	x25,x16,x4
    80003610:	006c3533          	sltu	x10,x24,x6
    80003614:	014007bb          	addw	x15,x0,x20
    80003618:	01880a33          	add	x20,x16,x24
    8000361c:	41ae84b3          	sub	x9,x29,x26
    80003620:	01b5e9b3          	or	x19,x11,x27
    80003624:	40f90233          	sub	x4,x18,x15
    80003628:	0063b733          	sltu	x14,x7,x6
    8000362c:	41fd85b3          	sub	x11,x27,x31
    80003630:	00c9f3b3          	and	x7,x19,x12
    80003634:	016aefb3          	or	x31,x21,x22
    80003638:	01c961b3          	or	x3,x18,x28
    8000363c:	00b86733          	or	x14,x16,x11
    80003640:	006e02bb          	addw	x5,x28,x6
    80003644:	00fc2f33          	slt	x30,x24,x15
    80003648:	01b1b333          	sltu	x6,x3,x27
    8000364c:	012da7b3          	slt	x15,x27,x18
    80003650:	00bb0ebb          	addw	x29,x22,x11
    80003654:	0025a2b3          	slt	x5,x11,x2
    80003658:	403e0cbb          	subw	x25,x28,x3
    8000365c:	0033aa33          	slt	x20,x7,x3
    80003660:	40970fb3          	sub	x31,x14,x9
    80003664:	00e27b33          	and	x22,x4,x14
    80003668:	01307933          	and	x18,x0,x19
    8000366c:	00ed06b3          	add	x13,x26,x14
    80003670:	01c43633          	sltu	x12,x8,x28
    80003674:	018c6333          	or	x6,x24,x24
    80003678:	417a8233          	sub	x4,x21,x23
    8000367c:	0137c6b3          	xor	x13,x15,x19
    80003680:	01c8b533          	sltu	x10,x17,x28
    80003684:	007bcbb3          	xor	x23,x23,x7
    80003688:	019e033b          	addw	x6,x28,x25
    8000368c:	004286b3          	add	x13,x5,x4
    80003690:	009b3633          	sltu	x12,x22,x9
    80003694:	415d8db3          	sub	x27,x27,x21
    80003698:	412c0d33          	sub	x26,x24,x18
    8000369c:	011c3ab3          	sltu	x21,x24,x17
    800036a0:	003a75b3          	and	x11,x20,x3
    800036a4:	00ebe133          	or	x2,x23,x14
    800036a8:	00dd79b3          	and	x19,x26,x13
    800036ac:	00a6eb33          	or	x22,x13,x10
    800036b0:	410f0eb3          	sub	x29,x30,x16
    800036b4:	004c4133          	xor	x2,x24,x4
    800036b8:	01b52cb3          	slt	x25,x10,x27
    800036bc:	0008053b          	addw	x10,x16,x0
    800036c0:	01768dbb          	addw	x27,x13,x23
    800036c4:	01a6ef33          	or	x30,x13,x26
    800036c8:	00ec06bb          	addw	x13,x24,x14
    800036cc:	01676033          	or	x0,x14,x22
    800036d0:	01c7b5b3          	sltu	x11,x15,x28
    800036d4:	005f8ab3          	add	x21,x31,x5
    800036d8:	0068013b          	addw	x2,x16,x6
    800036dc:	40330f33          	sub	x30,x6,x3
    800036e0:	01b435b3          	sltu	x11,x8,x27
    800036e4:	004a84bb          	addw	x9,x21,x4
    800036e8:	00d86c33          	or	x24,x16,x13
    800036ec:	0111f033          	and	x0,x3,x17
    800036f0:	0087fbb3          	and	x23,x15,x8
    800036f4:	00284db3          	xor	x27,x16,x2
    800036f8:	00714fb3          	xor	x31,x2,x7
    800036fc:	01a601b3          	add	x3,x12,x26
    80003700:	01e48bb3          	add	x23,x9,x30
    80003704:	00b568b3          	or	x17,x10,x11
    80003708:	014c0dbb          	addw	x27,x24,x20
    8000370c:	019e0b3b          	addw	x22,x28,x25
    80003710:	01e92ab3          	slt	x21,x18,x30
    80003714:	01a28433          	add	x8,x5,x26
    80003718:	005264b3          	or	x9,x4,x5
    8000371c:	414b8133          	sub	x2,x23,x20
    80003720:	41bf0b33          	sub	x22,x30,x27
    80003724:	411c08bb          	subw	x17,x24,x17
    80003728:	417d803b          	subw	x0,x27,x23
    8000372c:	01a63c33          	sltu	x24,x12,x26
    80003730:	01633433          	sltu	x8,x6,x22
    80003734:	01967a33          	and	x20,x12,x25
    80003738:	41c90b3b          	subw	x22,x18,x28
    8000373c:	015a8833          	add	x16,x21,x21
    80003740:	0134e6b3          	or	x13,x9,x19
    80003744:	01e27db3          	and	x27,x4,x30
    80003748:	009c8abb          	addw	x21,x25,x9
    8000374c:	010834b3          	sltu	x9,x16,x16
    80003750:	40bf0a33          	sub	x20,x30,x11
    80003754:	01a18d3b          	addw	x26,x3,x26
    80003758:	41b60fbb          	subw	x31,x12,x27
    8000375c:	01d20e33          	add	x28,x4,x29
    80003760:	00498ebb          	addw	x29,x19,x4
    80003764:	0169b3b3          	sltu	x7,x19,x22
    80003768:	00b00033          	add	x0,x0,x11
    8000376c:	0189a2b3          	slt	x5,x19,x24
    80003770:	00bd89b3          	add	x19,x27,x11
    80003774:	00ca7fb3          	and	x31,x20,x12
    80003778:	00ed7433          	and	x8,x26,x14
    8000377c:	00c5a8b3          	slt	x17,x11,x12
    80003780:	015f0db3          	add	x27,x30,x21
    80003784:	01967233          	and	x4,x12,x25
    80003788:	41070333          	sub	x6,x14,x16
    8000378c:	00b77f33          	and	x30,x14,x11
    80003790:	01446cb3          	or	x25,x8,x20
    80003794:	01152833          	slt	x16,x10,x17
    80003798:	406b81b3          	sub	x3,x23,x6
    8000379c:	00ae3133          	sltu	x2,x28,x10
    800037a0:	00e68fbb          	addw	x31,x13,x14
    800037a4:	00dc07b3          	add	x15,x24,x13
    800037a8:	003945b3          	xor	x11,x18,x3
    800037ac:	00c539b3          	sltu	x19,x10,x12
    800037b0:	018bfe33          	and	x28,x23,x24
    800037b4:	00df01bb          	addw	x3,x30,x13
    800037b8:	01e80eb3          	add	x29,x16,x30
    800037bc:	00bac6b3          	xor	x13,x21,x11
    800037c0:	01107933          	and	x18,x0,x17
    800037c4:	00864433          	xor	x8,x12,x8
    800037c8:	402c0fb3          	sub	x31,x24,x2
    800037cc:	40ee083b          	subw	x16,x28,x14
    800037d0:	01800633          	add	x12,x0,x24
    800037d4:	007488b3          	add	x17,x9,x7
    800037d8:	01a24933          	xor	x18,x4,x26
    800037dc:	40910abb          	subw	x21,x2,x9
    800037e0:	400102b3          	sub	x5,x2,x0
    800037e4:	0199f7b3          	and	x15,x19,x25
    800037e8:	00c1feb3          	and	x29,x3,x12
    800037ec:	00a62ab3          	slt	x21,x12,x10
    800037f0:	01a1043b          	addw	x8,x2,x26
    800037f4:	012834b3          	sltu	x9,x16,x18
    800037f8:	00ff0cb3          	add	x25,x30,x15
    800037fc:	0079813b          	addw	x2,x19,x7
    80003800:	40050a33          	sub	x20,x10,x0
    80003804:	01d33633          	sltu	x12,x6,x29
    80003808:	01596b33          	or	x22,x18,x21
    8000380c:	010327b3          	slt	x15,x6,x16
    80003810:	00d17333          	and	x6,x2,x13
    80003814:	01bfffb3          	and	x31,x31,x27
    80003818:	00950bbb          	addw	x23,x10,x9
    8000381c:	41e1003b          	subw	x0,x2,x30
    80003820:	40ca8333          	sub	x6,x21,x12
    80003824:	01d1c133          	xor	x2,x3,x29
    80003828:	008b34b3          	sltu	x9,x22,x8
    8000382c:	415383b3          	sub	x7,x7,x21
    80003830:	000848b3          	xor	x17,x16,x0
    80003834:	01c7063b          	addw	x12,x14,x28
    80003838:	000b04b3          	add	x9,x22,x0
    8000383c:	00ee0e3b          	addw	x28,x28,x14
    80003840:	018a81bb          	addw	x3,x21,x24
    80003844:	0102073b          	addw	x14,x4,x16
    80003848:	00aae6b3          	or	x13,x21,x10
    8000384c:	014f4433          	xor	x8,x30,x20
    80003850:	01e2cbb3          	xor	x23,x5,x30
    80003854:	00c23eb3          	sltu	x29,x4,x12
    80003858:	004abb33          	sltu	x22,x21,x4
    8000385c:	00f4c633          	xor	x12,x9,x15
    80003860:	00e37833          	and	x16,x6,x14
    80003864:	40b206bb          	subw	x13,x4,x11
    80003868:	01dfc4b3          	xor	x9,x31,x29
    8000386c:	01c94633          	xor	x12,x18,x28
    80003870:	40fe87b3          	sub	x15,x29,x15
    80003874:	00ecffb3          	and	x31,x25,x14
    80003878:	0073c833          	xor	x16,x7,x7
    8000387c:	0168cab3          	xor	x21,x17,x22
    80003880:	414e0c3b          	subw	x24,x28,x20
    80003884:	00c06e33          	or	x28,x0,x12
    80003888:	00e7c033          	xor	x0,x15,x14
    8000388c:	40e18f33          	sub	x30,x3,x14
    80003890:	008c7ab3          	and	x21,x24,x8
    80003894:	419f813b          	subw	x2,x31,x25
    80003898:	011b6733          	or	x14,x22,x17
    8000389c:	00f82bb3          	slt	x23,x16,x15
    800038a0:	407581bb          	subw	x3,x11,x7
    800038a4:	00cf4fb3          	xor	x31,x30,x12
    800038a8:	410a8933          	sub	x18,x21,x16
    800038ac:	00ef4ab3          	xor	x21,x30,x14
    800038b0:	0092ecb3          	or	x25,x5,x9
    800038b4:	01ce87b3          	add	x15,x29,x28
    800038b8:	00cf88bb          	addw	x17,x31,x12
    800038bc:	00a43e33          	sltu	x28,x8,x10
    800038c0:	005c8933          	add	x18,x25,x5
    800038c4:	000673b3          	and	x7,x12,x0
    800038c8:	01a7fb33          	and	x22,x15,x26
    800038cc:	01f4e033          	or	x0,x9,x31
    800038d0:	40bf833b          	subw	x6,x31,x11
    800038d4:	007e34b3          	sltu	x9,x28,x7
    800038d8:	419f0b3b          	subw	x22,x30,x25
    800038dc:	01efa733          	slt	x14,x31,x30
    800038e0:	01dd2bb3          	slt	x23,x26,x29
    800038e4:	015dc033          	xor	x0,x27,x21
    800038e8:	410f0cbb          	subw	x25,x30,x16
    800038ec:	006e85bb          	addw	x11,x29,x6
    800038f0:	00f57933          	and	x18,x10,x15
    800038f4:	010f6eb3          	or	x29,x30,x16
    800038f8:	01136cb3          	or	x25,x6,x17
    800038fc:	01ed2133          	slt	x2,x26,x30
    80003900:	40b9043b          	subw	x8,x18,x11
    80003904:	40b602bb          	subw	x5,x12,x11
    80003908:	00ae43b3          	xor	x7,x28,x10
    8000390c:	00f4f333          	and	x6,x9,x15
    80003910:	016b6fb3          	or	x31,x22,x22
    80003914:	00524133          	xor	x2,x4,x5
    80003918:	00c67ab3          	and	x21,x12,x12
    8000391c:	014541b3          	xor	x3,x10,x20
    80003920:	00b8033b          	addw	x6,x16,x11
    80003924:	014b8d3b          	addw	x26,x23,x20
    80003928:	01f5bbb3          	sltu	x23,x11,x31
    8000392c:	41d989b3          	sub	x19,x19,x29
    80003930:	01b58033          	add	x0,x11,x27
    80003934:	41d88b3b          	subw	x22,x17,x29
    80003938:	01da8cbb          	addw	x25,x21,x29
    8000393c:	00f7e2b3          	or	x5,x15,x15
    80003940:	40af8a33          	sub	x20,x31,x10
    80003944:	01ddb6b3          	sltu	x13,x27,x29
    80003948:	00604133          	xor	x2,x0,x6
    8000394c:	41d70f3b          	subw	x30,x14,x29
    80003950:	00ce0733          	add	x14,x28,x12
    80003954:	01debab3          	sltu	x21,x29,x29
    80003958:	404c89bb          	subw	x19,x25,x4
    8000395c:	407a0bb3          	sub	x23,x20,x7
    80003960:	012c65b3          	or	x11,x24,x18
    80003964:	403102bb          	subw	x5,x2,x3
    80003968:	00870c33          	add	x24,x14,x8
    8000396c:	417d0abb          	subw	x21,x26,x23
    80003970:	40c407b3          	sub	x15,x8,x12
    80003974:	41cd8233          	sub	x4,x27,x28
    80003978:	0194c533          	xor	x10,x9,x25
    8000397c:	010fc433          	xor	x8,x31,x16
    80003980:	409f84bb          	subw	x9,x31,x9
    80003984:	01160a33          	add	x20,x12,x17
    80003988:	01d269b3          	or	x19,x4,x29
    8000398c:	01fc0fbb          	addw	x31,x24,x31
    80003990:	008884bb          	addw	x9,x17,x8
    80003994:	0153aab3          	slt	x21,x7,x21
    80003998:	004c0a33          	add	x20,x24,x4
    8000399c:	004c77b3          	and	x15,x24,x4
    800039a0:	00b58233          	add	x4,x11,x11
    800039a4:	40558bb3          	sub	x23,x11,x5
    800039a8:	00beefb3          	or	x31,x29,x11
    800039ac:	411702b3          	sub	x5,x14,x17
    800039b0:	0064c633          	xor	x12,x9,x6
    800039b4:	01916333          	or	x6,x2,x25
    800039b8:	01598933          	add	x18,x19,x21
    800039bc:	01f834b3          	sltu	x9,x16,x31
    800039c0:	01ebe433          	or	x8,x23,x30
    800039c4:	41a306b3          	sub	x13,x6,x26
    800039c8:	01297233          	and	x4,x18,x18
    800039cc:	00b9ec33          	or	x24,x19,x11
    800039d0:	011ea433          	slt	x8,x29,x17
    800039d4:	01e4cb33          	xor	x22,x9,x30
    800039d8:	40a786bb          	subw	x13,x15,x10
    800039dc:	41b2833b          	subw	x6,x5,x27
    800039e0:	01d23933          	sltu	x18,x4,x29
    800039e4:	01976bb3          	or	x23,x14,x25
    800039e8:	0105f033          	and	x0,x11,x16
    800039ec:	00b4e733          	or	x14,x9,x11
    800039f0:	01e6813b          	addw	x2,x13,x30
    800039f4:	01cd88b3          	add	x17,x27,x28
    800039f8:	018e8b33          	add	x22,x29,x24
    800039fc:	01b03eb3          	sltu	x29,x0,x27
    80003a00:	01570133          	add	x2,x14,x21
    80003a04:	01767833          	and	x16,x12,x23
    80003a08:	00570a33          	add	x20,x14,x5
    80003a0c:	41be853b          	subw	x10,x29,x27
    80003a10:	00260eb3          	add	x29,x12,x2
    80003a14:	01cb86b3          	add	x13,x23,x28
    80003a18:	41ac8b33          	sub	x22,x25,x26
    80003a1c:	01790bb3          	add	x23,x18,x23
    80003a20:	41ca0f33          	sub	x30,x20,x28
    80003a24:	0133b133          	sltu	x2,x7,x19
    80003a28:	40550ebb          	subw	x29,x10,x5
    80003a2c:	41f283b3          	sub	x7,x5,x31
    80003a30:	00a54a33          	xor	x20,x10,x10
    80003a34:	00e52b33          	slt	x22,x10,x14
    80003a38:	01296133          	or	x2,x18,x18
    80003a3c:	01f22fb3          	slt	x31,x4,x31
    80003a40:	01976333          	or	x6,x14,x25
    80003a44:	00a52233          	slt	x4,x10,x10
    80003a48:	41e803b3          	sub	x7,x16,x30
    80003a4c:	017628b3          	slt	x17,x12,x23
    80003a50:	01516ab3          	or	x21,x2,x21
    80003a54:	412d02bb          	subw	x5,x26,x18
    80003a58:	00e5c133          	xor	x2,x11,x14
    80003a5c:	0178acb3          	slt	x25,x17,x23
    80003a60:	417e06bb          	subw	x13,x28,x23
    80003a64:	004f34b3          	sltu	x9,x30,x4
    80003a68:	013a7fb3          	and	x31,x20,x19
    80003a6c:	01aee633          	or	x12,x29,x26
    80003a70:	013f7433          	and	x8,x30,x19
    80003a74:	41c5853b          	subw	x10,x11,x28
    80003a78:	40ed873b          	subw	x14,x27,x14
    80003a7c:	00c26f33          	or	x30,x4,x12
    80003a80:	008273b3          	and	x7,x4,x8
    80003a84:	40c30a3b          	subw	x20,x6,x12
    80003a88:	010e67b3          	or	x15,x28,x16
    80003a8c:	00d9e533          	or	x10,x19,x13
    80003a90:	41618fbb          	subw	x31,x3,x22
    80003a94:	004c28b3          	slt	x17,x24,x4
    80003a98:	01c24bb3          	xor	x23,x4,x28
    80003a9c:	0094be33          	sltu	x28,x9,x9
    80003aa0:	007686b3          	add	x13,x13,x7
    80003aa4:	01d30ab3          	add	x21,x6,x29
    80003aa8:	00b787b3          	add	x15,x15,x11
    80003aac:	40ed8ebb          	subw	x29,x27,x14
    80003ab0:	018884b3          	add	x9,x17,x24
    80003ab4:	005101b3          	add	x3,x2,x5
    80003ab8:	01f3b533          	sltu	x10,x7,x31
    80003abc:	014308bb          	addw	x17,x6,x20
    80003ac0:	0099fe33          	and	x28,x19,x9
    80003ac4:	416284b3          	sub	x9,x5,x22
    80003ac8:	0002e433          	or	x8,x5,x0
    80003acc:	00c588b3          	add	x17,x11,x12
    80003ad0:	0127b033          	sltu	x0,x15,x18
    80003ad4:	0183c1b3          	xor	x3,x7,x24
    80003ad8:	00e78a33          	add	x20,x15,x14
    80003adc:	40268fb3          	sub	x31,x13,x2
    80003ae0:	00992d33          	slt	x26,x18,x9
    80003ae4:	00e176b3          	and	x13,x2,x14
    80003ae8:	01d328b3          	slt	x17,x6,x29
    80003aec:	01f26bb3          	or	x23,x4,x31
    80003af0:	013239b3          	sltu	x19,x4,x19
    80003af4:	01ae6c33          	or	x24,x28,x26
    80003af8:	0095b6b3          	sltu	x13,x11,x9
    80003afc:	002b6db3          	or	x27,x22,x2
    80003b00:	00348bbb          	addw	x23,x9,x3
    80003b04:	01c84233          	xor	x4,x16,x28
    80003b08:	00a688b3          	add	x17,x13,x10
    80003b0c:	41a103bb          	subw	x7,x2,x26
    80003b10:	008fb433          	sltu	x8,x31,x8
    80003b14:	41ad0dbb          	subw	x27,x26,x26
    80003b18:	014b6633          	or	x12,x22,x20
    80003b1c:	00048133          	add	x2,x9,x0
    80003b20:	01150ebb          	addw	x29,x10,x17
    80003b24:	00d9f533          	and	x10,x19,x13
    80003b28:	0172033b          	addw	x6,x4,x23
    80003b2c:	01e22a33          	slt	x20,x4,x30
    80003b30:	40d382b3          	sub	x5,x7,x13
    80003b34:	40ba84bb          	subw	x9,x21,x11
    80003b38:	00b70c3b          	addw	x24,x14,x11
    80003b3c:	000dbfb3          	sltu	x31,x27,x0
    80003b40:	0171be33          	sltu	x28,x3,x23
    80003b44:	41320b3b          	subw	x22,x4,x19
    80003b48:	403d87bb          	subw	x15,x27,x3
    80003b4c:	41e80d33          	sub	x26,x16,x30
    80003b50:	006dc6b3          	xor	x13,x27,x6
    80003b54:	402a0fbb          	subw	x31,x20,x2
    80003b58:	00a487bb          	addw	x15,x9,x10
    80003b5c:	015bc1b3          	xor	x3,x23,x21
    80003b60:	01c62a33          	slt	x20,x12,x28
    80003b64:	01dceab3          	or	x21,x25,x29
    80003b68:	01048f33          	add	x30,x9,x16
    80003b6c:	0122b733          	sltu	x14,x5,x18
    80003b70:	007d3133          	sltu	x2,x26,x7
    80003b74:	00a47a33          	and	x20,x8,x10
    80003b78:	01a689b3          	add	x19,x13,x26
    80003b7c:	00337733          	and	x14,x6,x3
    80003b80:	01e56bb3          	or	x23,x10,x30
    80003b84:	00056833          	or	x16,x10,x0
    80003b88:	014787b3          	add	x15,x15,x20
    80003b8c:	01930d33          	add	x26,x6,x25
    80003b90:	40870633          	sub	x12,x14,x8
    80003b94:	01377e33          	and	x28,x14,x19
    80003b98:	01928a3b          	addw	x20,x5,x25
    80003b9c:	418385b3          	sub	x11,x7,x24
    80003ba0:	01bf8733          	add	x14,x31,x27
    80003ba4:	407604bb          	subw	x9,x12,x7
    80003ba8:	008e3d33          	sltu	x26,x28,x8
    80003bac:	01d90eb3          	add	x29,x18,x29
    80003bb0:	006563b3          	or	x7,x10,x6
    80003bb4:	0024c833          	xor	x16,x9,x2
    80003bb8:	40e704b3          	sub	x9,x14,x14
    80003bbc:	400e0c3b          	subw	x24,x28,x0
    80003bc0:	01a5cb33          	xor	x22,x11,x26
    80003bc4:	01417bb3          	and	x23,x2,x20
    80003bc8:	00d86533          	or	x10,x16,x13
    80003bcc:	41dc8ab3          	sub	x21,x25,x29
    80003bd0:	010c81bb          	addw	x3,x25,x16
    80003bd4:	016b84bb          	addw	x9,x23,x22
    80003bd8:	00e28eb3          	add	x29,x5,x14
    80003bdc:	00c42fb3          	slt	x31,x8,x12
    80003be0:	01a27cb3          	and	x25,x4,x26
    80003be4:	016f01b3          	add	x3,x30,x22
    80003be8:	41140f3b          	subw	x30,x8,x17
    80003bec:	013ee8b3          	or	x17,x29,x19
    80003bf0:	407909bb          	subw	x19,x18,x7
    80003bf4:	00f94033          	xor	x0,x18,x15
    80003bf8:	41878fb3          	sub	x31,x15,x24
    80003bfc:	00438d3b          	addw	x26,x7,x4
    80003c00:	008a883b          	addw	x16,x21,x8
    80003c04:	00ee2bb3          	slt	x23,x28,x14
    80003c08:	00a48333          	add	x6,x9,x10
    80003c0c:	019fb5b3          	sltu	x11,x31,x25
    80003c10:	400a8e3b          	subw	x28,x21,x0
    80003c14:	00c921b3          	slt	x3,x18,x12
    80003c18:	00ea2c33          	slt	x24,x20,x14
    80003c1c:	01622ab3          	slt	x21,x4,x22
    80003c20:	00fe7433          	and	x8,x28,x15
    80003c24:	017826b3          	slt	x13,x16,x23
    80003c28:	012d4e33          	xor	x28,x26,x18
    80003c2c:	017501bb          	addw	x3,x10,x23
    80003c30:	01836ab3          	or	x21,x6,x24
    80003c34:	004bb5b3          	sltu	x11,x23,x4
    80003c38:	01f04db3          	xor	x27,x0,x31
    80003c3c:	01cd3a33          	sltu	x20,x26,x28
    80003c40:	013eb833          	sltu	x16,x29,x19
    80003c44:	000324b3          	slt	x9,x6,x0
    80003c48:	40f586bb          	subw	x13,x11,x15
    80003c4c:	00210d33          	add	x26,x2,x2
    80003c50:	017e6833          	or	x16,x28,x23
    80003c54:	41270133          	sub	x2,x14,x18
    80003c58:	000562b3          	or	x5,x10,x0
    80003c5c:	003bc9b3          	xor	x19,x23,x3
    80003c60:	40758033          	sub	x0,x11,x7
    80003c64:	01e42e33          	slt	x28,x8,x30
    80003c68:	009be4b3          	or	x9,x23,x9
    80003c6c:	00313c33          	sltu	x24,x2,x3
    80003c70:	005628b3          	slt	x17,x12,x5
    80003c74:	419f8133          	sub	x2,x31,x25
    80003c78:	009b81b3          	add	x3,x23,x9
    80003c7c:	40be0e3b          	subw	x28,x28,x11
    80003c80:	01d58933          	add	x18,x11,x29
    80003c84:	40430a33          	sub	x20,x6,x4
    80003c88:	01758d3b          	addw	x26,x11,x23
    80003c8c:	007bbfb3          	sltu	x31,x23,x7
    80003c90:	01cabbb3          	sltu	x23,x21,x28
    80003c94:	00a8e933          	or	x18,x17,x10
    80003c98:	00633433          	sltu	x8,x6,x6
    80003c9c:	00b201bb          	addw	x3,x4,x11
    80003ca0:	40ba083b          	subw	x16,x20,x11
    80003ca4:	00e2b333          	sltu	x6,x5,x14
    80003ca8:	408f02bb          	subw	x5,x30,x8
    80003cac:	000a88b3          	add	x17,x21,x0
    80003cb0:	016dfcb3          	and	x25,x27,x22
    80003cb4:	000e04bb          	addw	x9,x28,x0
    80003cb8:	00800133          	add	x2,x0,x8
    80003cbc:	01bb82bb          	addw	x5,x23,x27
    80003cc0:	412606b3          	sub	x13,x12,x18
    80003cc4:	01130e33          	add	x28,x6,x17
    80003cc8:	01b56533          	or	x10,x10,x27
    80003ccc:	404a02b3          	sub	x5,x20,x4
    80003cd0:	00be873b          	addw	x14,x29,x11
    80003cd4:	0111813b          	addw	x2,x3,x17
    80003cd8:	00b7feb3          	and	x29,x15,x11
    80003cdc:	00c90333          	add	x6,x18,x12
    80003ce0:	010264b3          	or	x9,x4,x16
    80003ce4:	003c0a3b          	addw	x20,x24,x3
    80003ce8:	017c43b3          	xor	x7,x24,x23
    80003cec:	003aef33          	or	x30,x21,x3
    80003cf0:	01b97cb3          	and	x25,x18,x27
    80003cf4:	40db013b          	subw	x2,x22,x13
    80003cf8:	014a6833          	or	x16,x20,x20
    80003cfc:	0059e8b3          	or	x17,x19,x5
    80003d00:	01f6a433          	slt	x8,x13,x31
    80003d04:	01ad063b          	addw	x12,x26,x26
    80003d08:	01c80f33          	add	x30,x16,x28
    80003d0c:	410786b3          	sub	x13,x15,x16
    80003d10:	01f2843b          	addw	x8,x5,x31
    80003d14:	019787bb          	addw	x15,x15,x25
    80003d18:	01ed35b3          	sltu	x11,x26,x30
    80003d1c:	0033eeb3          	or	x29,x7,x3
    80003d20:	40638f3b          	subw	x30,x7,x6
    80003d24:	01b66133          	or	x2,x12,x27
    80003d28:	41f20b3b          	subw	x22,x4,x31
    80003d2c:	413a8e33          	sub	x28,x21,x19
    80003d30:	007306b3          	add	x13,x6,x7
    80003d34:	00b7883b          	addw	x16,x15,x11
    80003d38:	00b57db3          	and	x27,x10,x11
    80003d3c:	41130d3b          	subw	x26,x6,x17
    80003d40:	0057cbb3          	xor	x23,x15,x5
    80003d44:	40ca893b          	subw	x18,x21,x12
    80003d48:	0190023b          	addw	x4,x0,x25
    80003d4c:	00c6cd33          	xor	x26,x13,x12
    80003d50:	00bce2b3          	or	x5,x25,x11
    80003d54:	00610b3b          	addw	x22,x2,x6
    80003d58:	013bafb3          	slt	x31,x23,x19
    80003d5c:	01186033          	or	x0,x16,x17
    80003d60:	408204b3          	sub	x9,x4,x8
    80003d64:	016e6bb3          	or	x23,x28,x22
    80003d68:	00276733          	or	x14,x14,x2
    80003d6c:	01f57d33          	and	x26,x10,x31
    80003d70:	002a85b3          	add	x11,x21,x2
    80003d74:	0038033b          	addw	x6,x16,x3
    80003d78:	405c8a3b          	subw	x20,x25,x5
    80003d7c:	019aa933          	slt	x18,x21,x25
    80003d80:	0006803b          	addw	x0,x13,x0
    80003d84:	41a88833          	sub	x16,x17,x26
    80003d88:	003a04b3          	add	x9,x20,x3
    80003d8c:	411287b3          	sub	x15,x5,x17
    80003d90:	0169cfb3          	xor	x31,x19,x22
    80003d94:	00077ab3          	and	x21,x14,x0
    80003d98:	007a3133          	sltu	x2,x20,x7
    80003d9c:	0103cb33          	xor	x22,x7,x16
    80003da0:	00044833          	xor	x16,x8,x0
    80003da4:	0131be33          	sltu	x28,x3,x19
    80003da8:	0096a8b3          	slt	x17,x13,x9
    80003dac:	016b25b3          	slt	x11,x22,x22
    80003db0:	004bbbb3          	sltu	x23,x23,x4
    80003db4:	018ccab3          	xor	x21,x25,x24
    80003db8:	01188833          	add	x16,x17,x17
    80003dbc:	01c47733          	and	x14,x8,x28
    80003dc0:	01bd8133          	add	x2,x27,x27
    80003dc4:	009987bb          	addw	x15,x19,x9
    80003dc8:	008c0ab3          	add	x21,x24,x8
    80003dcc:	006d043b          	addw	x8,x26,x6
    80003dd0:	01aa7a33          	and	x20,x20,x26
    80003dd4:	017fc7b3          	xor	x15,x31,x23
    80003dd8:	40e50d33          	sub	x26,x10,x14
    80003ddc:	00cb61b3          	or	x3,x22,x12
    80003de0:	41de033b          	subw	x6,x28,x29
    80003de4:	412a0ebb          	subw	x29,x20,x18
    80003de8:	40e805b3          	sub	x11,x16,x14
    80003dec:	00fd8f3b          	addw	x30,x27,x15
    80003df0:	00fd0e3b          	addw	x28,x26,x15
    80003df4:	0103f033          	and	x0,x7,x16
    80003df8:	00c2043b          	addw	x8,x4,x12
    80003dfc:	010f87b3          	add	x15,x31,x16
    80003e00:	00a8eb33          	or	x22,x17,x10
    80003e04:	4002063b          	subw	x12,x4,x0
    80003e08:	00356c33          	or	x24,x10,x3
    80003e0c:	0071e533          	or	x10,x3,x7
    80003e10:	01aac433          	xor	x8,x21,x26
    80003e14:	40c68bbb          	subw	x23,x13,x12
    80003e18:	013c44b3          	xor	x9,x24,x19
    80003e1c:	005e2033          	slt	x0,x28,x5
    80003e20:	004b2c33          	slt	x24,x22,x4
    80003e24:	011f0633          	add	x12,x30,x17
    80003e28:	0149f433          	and	x8,x19,x20
    80003e2c:	01efcbb3          	xor	x23,x31,x30
    80003e30:	006285bb          	addw	x11,x5,x6
    80003e34:	00cd07bb          	addw	x15,x26,x12
    80003e38:	01f908bb          	addw	x17,x18,x31
    80003e3c:	412b833b          	subw	x6,x23,x18
    80003e40:	010e6533          	or	x10,x28,x16
    80003e44:	40d109bb          	subw	x19,x2,x13
    80003e48:	002c26b3          	slt	x13,x24,x2
    80003e4c:	0187093b          	addw	x18,x14,x24
    80003e50:	01e1a1b3          	slt	x3,x3,x30
    80003e54:	00bc35b3          	sltu	x11,x24,x11
    80003e58:	41868fbb          	subw	x31,x13,x24
    80003e5c:	018722b3          	slt	x5,x14,x24
    80003e60:	01482bb3          	slt	x23,x16,x20
    80003e64:	00d98733          	add	x14,x19,x13
    80003e68:	000e06b3          	add	x13,x28,x0
    80003e6c:	010b29b3          	slt	x19,x22,x16
    80003e70:	002d6cb3          	or	x25,x26,x2
    80003e74:	014ef933          	and	x18,x29,x20
    80003e78:	007a6b33          	or	x22,x20,x7
    80003e7c:	404688b3          	sub	x17,x13,x4
    80003e80:	00b4b133          	sltu	x2,x9,x11
    80003e84:	019801bb          	addw	x3,x16,x25
    80003e88:	000b4a33          	xor	x20,x22,x0
    80003e8c:	40b905bb          	subw	x11,x18,x11
    80003e90:	00c4bcb3          	sltu	x25,x9,x12
    80003e94:	0113c433          	xor	x8,x7,x17
    80003e98:	00ae64b3          	or	x9,x28,x10
    80003e9c:	01aa83bb          	addw	x7,x21,x26
    80003ea0:	01d182bb          	addw	x5,x3,x29
    80003ea4:	40ae053b          	subw	x10,x28,x10
    80003ea8:	01f86f33          	or	x30,x16,x31
    80003eac:	00ccc933          	xor	x18,x25,x12
    80003eb0:	41b20d33          	sub	x26,x4,x27
    80003eb4:	002073b3          	and	x7,x0,x2
    80003eb8:	00b801bb          	addw	x3,x16,x11
    80003ebc:	00b7f933          	and	x18,x15,x11
    80003ec0:	00eaecb3          	or	x25,x21,x14
    80003ec4:	0172bb33          	sltu	x22,x5,x23
    80003ec8:	004606bb          	addw	x13,x12,x4
    80003ecc:	0152be33          	sltu	x28,x5,x21
    80003ed0:	014faab3          	slt	x21,x31,x20
    80003ed4:	41d6093b          	subw	x18,x12,x29
    80003ed8:	0182f9b3          	and	x19,x5,x24
    80003edc:	0051ceb3          	xor	x29,x3,x5
    80003ee0:	419104b3          	sub	x9,x2,x25
    80003ee4:	00d96bb3          	or	x23,x18,x13
    80003ee8:	41f689bb          	subw	x19,x13,x31
    80003eec:	41dd8d33          	sub	x26,x27,x29
    80003ef0:	01ba3cb3          	sltu	x25,x20,x27
    80003ef4:	007e2033          	slt	x0,x28,x7
    80003ef8:	0027beb3          	sltu	x29,x15,x2
    80003efc:	41478bbb          	subw	x23,x15,x20
    80003f00:	0054b9b3          	sltu	x19,x9,x5
    80003f04:	40e58fb3          	sub	x31,x11,x14
    80003f08:	007b3533          	sltu	x10,x22,x7
    80003f0c:	01732833          	slt	x16,x6,x23
    80003f10:	012a79b3          	and	x19,x20,x18
    80003f14:	01bf023b          	addw	x4,x30,x27
    80003f18:	00de0633          	add	x12,x28,x13
    80003f1c:	00aaa333          	slt	x6,x21,x10
    80003f20:	008901b3          	add	x3,x18,x8
    80003f24:	0186ac33          	slt	x24,x13,x24
    80003f28:	015433b3          	sltu	x7,x8,x21
    80003f2c:	41350cb3          	sub	x25,x10,x19
    80003f30:	00414833          	xor	x16,x2,x4
    80003f34:	00ce36b3          	sltu	x13,x28,x12
    80003f38:	4044063b          	subw	x12,x8,x4
    80003f3c:	413d8ebb          	subw	x29,x27,x19
    80003f40:	016ab1b3          	sltu	x3,x21,x22
    80003f44:	00d025b3          	slt	x11,x0,x13
    80003f48:	0182b933          	sltu	x18,x5,x24
    80003f4c:	01f63db3          	sltu	x27,x12,x31
    80003f50:	40de8b33          	sub	x22,x29,x13
    80003f54:	01ca0e33          	add	x28,x20,x28
    80003f58:	01754eb3          	xor	x29,x10,x23
    80003f5c:	010f45b3          	xor	x11,x30,x16
    80003f60:	00cf6733          	or	x14,x30,x12
    80003f64:	00d03f33          	sltu	x30,x0,x13
    80003f68:	00788abb          	addw	x21,x17,x7
    80003f6c:	01aa27b3          	slt	x15,x20,x26
    80003f70:	0117073b          	addw	x14,x14,x17
    80003f74:	00296333          	or	x6,x18,x2
    80003f78:	01f9e133          	or	x2,x19,x31
    80003f7c:	00828433          	add	x8,x5,x8
    80003f80:	01bcb533          	sltu	x10,x25,x27
    80003f84:	41f28cb3          	sub	x25,x5,x31
    80003f88:	400983bb          	subw	x7,x19,x0
    80003f8c:	004347b3          	xor	x15,x6,x4
    80003f90:	41360fbb          	subw	x31,x12,x19
    80003f94:	0028ec33          	or	x24,x17,x2
    80003f98:	41238233          	sub	x4,x7,x18
    80003f9c:	419982b3          	sub	x5,x19,x25
    80003fa0:	40018b33          	sub	x22,x3,x0
    80003fa4:	0158c5b3          	xor	x11,x17,x21
    80003fa8:	01963333          	sltu	x6,x12,x25
    80003fac:	015aff33          	and	x30,x21,x21
    80003fb0:	01b566b3          	or	x13,x10,x27
    80003fb4:	012bcd33          	xor	x26,x23,x18
    80003fb8:	007bc5b3          	xor	x11,x23,x7
    80003fbc:	016de2b3          	or	x5,x27,x22
    80003fc0:	4027893b          	subw	x18,x15,x2
    80003fc4:	000ecbb3          	xor	x23,x29,x0
    80003fc8:	002f7233          	and	x4,x30,x2
    80003fcc:	4083013b          	subw	x2,x6,x8
    80003fd0:	009cf2b3          	and	x5,x25,x9
    80003fd4:	01090b33          	add	x22,x18,x16
    80003fd8:	40990cbb          	subw	x25,x18,x9
    80003fdc:	003c7d33          	and	x26,x24,x3
    80003fe0:	00b7083b          	addw	x16,x14,x11
    80003fe4:	01f10bb3          	add	x23,x2,x31
    80003fe8:	411a8a33          	sub	x20,x21,x17
    80003fec:	01fd23b3          	slt	x7,x26,x31
    80003ff0:	00a02933          	slt	x18,x0,x10
    80003ff4:	01e4e133          	or	x2,x9,x30
    80003ff8:	014d8ebb          	addw	x29,x27,x20
    80003ffc:	00e1fdb3          	and	x27,x3,x14
    80004000:	00940c3b          	addw	x24,x8,x9
    80004004:	014065b3          	or	x11,x0,x20
    80004008:	40818133          	sub	x2,x3,x8
    8000400c:	005d8b3b          	addw	x22,x27,x5
    80004010:	018537b3          	sltu	x15,x10,x24
    80004014:	0113eeb3          	or	x29,x7,x17
    80004018:	01442833          	slt	x16,x8,x20
    8000401c:	41498db3          	sub	x27,x19,x20
    80004020:	01c24c33          	xor	x24,x4,x28
    80004024:	006a0f3b          	addw	x30,x20,x6
    80004028:	41748bb3          	sub	x23,x9,x23
    8000402c:	4053853b          	subw	x10,x7,x5
    80004030:	41640c33          	sub	x24,x8,x22
    80004034:	01d4e5b3          	or	x11,x9,x29
    80004038:	01e20fb3          	add	x31,x4,x30
    8000403c:	01d8c9b3          	xor	x19,x17,x29
    80004040:	0032fcb3          	and	x25,x5,x3
    80004044:	41d38db3          	sub	x27,x7,x29
    80004048:	00543433          	sltu	x8,x8,x5
    8000404c:	01f8a3b3          	slt	x7,x17,x31
    80004050:	00efa233          	slt	x4,x31,x14
    80004054:	40048abb          	subw	x21,x9,x0
    80004058:	416e8c3b          	subw	x24,x29,x22
    8000405c:	006d4a33          	xor	x20,x26,x6
    80004060:	411d863b          	subw	x12,x27,x17
    80004064:	01afb3b3          	sltu	x7,x31,x26
    80004068:	0174e733          	or	x14,x9,x23
    8000406c:	002c2f33          	slt	x30,x24,x2
    80004070:	41dc0b3b          	subw	x22,x24,x29
    80004074:	00b9a133          	slt	x2,x19,x11
    80004078:	007ee633          	or	x12,x29,x7
    8000407c:	01ff06b3          	add	x13,x30,x31
    80004080:	01522e33          	slt	x28,x4,x21
    80004084:	41550f3b          	subw	x30,x10,x21
    80004088:	01743333          	sltu	x6,x8,x23
    8000408c:	018208b3          	add	x17,x4,x24
    80004090:	0155e833          	or	x16,x11,x21
    80004094:	01a075b3          	and	x11,x0,x26
    80004098:	003c84bb          	addw	x9,x25,x3
    8000409c:	01200bb3          	add	x23,x0,x18
    800040a0:	002182b3          	add	x5,x3,x2
    800040a4:	003df633          	and	x12,x27,x3
    800040a8:	40918f33          	sub	x30,x3,x9
    800040ac:	017e8e33          	add	x28,x29,x23
    800040b0:	01da85bb          	addw	x11,x21,x29
    800040b4:	01d9a033          	slt	x0,x19,x29
    800040b8:	00ff2d33          	slt	x26,x30,x15
    800040bc:	002b7fb3          	and	x31,x22,x2
    800040c0:	01d6e6b3          	or	x13,x13,x29
    800040c4:	0077833b          	addw	x6,x15,x7
    800040c8:	400e013b          	subw	x2,x28,x0
    800040cc:	015bfe33          	and	x28,x23,x21
    800040d0:	00766fb3          	or	x31,x12,x7
    800040d4:	01d70cb3          	add	x25,x14,x29
    800040d8:	00207433          	and	x8,x0,x2
    800040dc:	01584d33          	xor	x26,x16,x21
    800040e0:	01e4cf33          	xor	x30,x9,x30
    800040e4:	00eb05bb          	addw	x11,x22,x14
    800040e8:	003dbc33          	sltu	x24,x27,x3
    800040ec:	009438b3          	sltu	x17,x8,x9
    800040f0:	00dff133          	and	x2,x31,x13
    800040f4:	00aafeb3          	and	x29,x21,x10
    800040f8:	00c5ecb3          	or	x25,x11,x12
    800040fc:	00a5bf33          	sltu	x30,x11,x10
    80004100:	4172083b          	subw	x16,x4,x23
    80004104:	41638733          	sub	x14,x7,x22
    80004108:	018ecc33          	xor	x24,x29,x24
    8000410c:	00cfe4b3          	or	x9,x31,x12
    80004110:	011bb8b3          	sltu	x17,x23,x17
    80004114:	414e03bb          	subw	x7,x28,x20
    80004118:	0046afb3          	slt	x31,x13,x4
    8000411c:	00b96b33          	or	x22,x18,x11
    80004120:	40200eb3          	sub	x29,x0,x2
    80004124:	418c0bb3          	sub	x23,x24,x24
    80004128:	01576933          	or	x18,x14,x21
    8000412c:	003208bb          	addw	x17,x4,x3
    80004130:	010da533          	slt	x10,x27,x16
    80004134:	0155a133          	slt	x2,x11,x21
    80004138:	00e9bfb3          	sltu	x31,x19,x14
    8000413c:	014c2333          	slt	x6,x24,x20
    80004140:	0111ebb3          	or	x23,x3,x17
    80004144:	009a64b3          	or	x9,x20,x9
    80004148:	00f20633          	add	x12,x4,x15
    8000414c:	0057083b          	addw	x16,x14,x5
    80004150:	4112893b          	subw	x18,x5,x17
    80004154:	00d14433          	xor	x8,x2,x13
    80004158:	011caf33          	slt	x30,x25,x17
    8000415c:	40a60c33          	sub	x24,x12,x10
    80004160:	00bccd33          	xor	x26,x25,x11
    80004164:	00a883b3          	add	x7,x17,x10
    80004168:	0101f4b3          	and	x9,x3,x16
    8000416c:	41b90a33          	sub	x20,x18,x27
    80004170:	00c30fbb          	addw	x31,x6,x12
    80004174:	00703233          	sltu	x4,x0,x7
    80004178:	01e9e6b3          	or	x13,x19,x30
    8000417c:	00ce4733          	xor	x14,x28,x12
    80004180:	01f465b3          	or	x11,x8,x31
    80004184:	01913e33          	sltu	x28,x2,x25
    80004188:	40f504bb          	subw	x9,x10,x15
    8000418c:	002bf1b3          	and	x3,x23,x2
    80004190:	006f0ab3          	add	x21,x30,x6
    80004194:	01406a33          	or	x20,x0,x20
    80004198:	017f4b33          	xor	x22,x30,x23
    8000419c:	00637cb3          	and	x25,x6,x6
    800041a0:	010ba133          	slt	x2,x23,x16
    800041a4:	0099ffb3          	and	x31,x19,x9
    800041a8:	008e02bb          	addw	x5,x28,x8
    800041ac:	00b3e3b3          	or	x7,x7,x11
    800041b0:	01163933          	sltu	x18,x12,x17
    800041b4:	0096f4b3          	and	x9,x13,x9
    800041b8:	01d9c8b3          	xor	x17,x19,x29
    800041bc:	01c44a33          	xor	x20,x8,x28
    800041c0:	4075073b          	subw	x14,x10,x7
    800041c4:	01050c3b          	addw	x24,x10,x16
    800041c8:	00d7cd33          	xor	x26,x15,x13
    800041cc:	007da7b3          	slt	x15,x27,x7
    800041d0:	012a04b3          	add	x9,x20,x18
    800041d4:	01590c33          	add	x24,x18,x21
    800041d8:	016b0833          	add	x16,x22,x22
    800041dc:	01604033          	xor	x0,x0,x22
    800041e0:	01e273b3          	and	x7,x4,x30
    800041e4:	002685b3          	add	x11,x13,x2
    800041e8:	00587fb3          	and	x31,x16,x5
    800041ec:	40dd083b          	subw	x16,x26,x13
    800041f0:	01ceecb3          	or	x25,x29,x28
    800041f4:	015f6333          	or	x6,x30,x21
    800041f8:	00c72f33          	slt	x30,x14,x12
    800041fc:	005d29b3          	slt	x19,x26,x5
    80004200:	40bd8d33          	sub	x26,x27,x11
    80004204:	004faab3          	slt	x21,x31,x4
    80004208:	01254eb3          	xor	x29,x10,x18
    8000420c:	00b8eb33          	or	x22,x17,x11
    80004210:	41b589bb          	subw	x19,x11,x27
    80004214:	40080633          	sub	x12,x16,x0
    80004218:	419282b3          	sub	x5,x5,x25
    8000421c:	01d37533          	and	x10,x6,x29
    80004220:	00e7e3b3          	or	x7,x15,x14
    80004224:	01cfb5b3          	sltu	x11,x31,x28
    80004228:	01f16b33          	or	x22,x2,x31
    8000422c:	01443cb3          	sltu	x25,x8,x20
    80004230:	0066af33          	slt	x30,x13,x6
    80004234:	4078083b          	subw	x16,x16,x7
    80004238:	0186a9b3          	slt	x19,x13,x24
    8000423c:	01227433          	and	x8,x4,x18
    80004240:	0177aeb3          	slt	x29,x15,x23
    80004244:	0041f633          	and	x12,x3,x4
    80004248:	009f4bb3          	xor	x23,x30,x9
    8000424c:	002329b3          	slt	x19,x6,x2
    80004250:	01b92333          	slt	x6,x18,x27
    80004254:	009022b3          	slt	x5,x0,x9
    80004258:	002bc4b3          	xor	x9,x23,x2
    8000425c:	013e07bb          	addw	x15,x28,x19
    80004260:	0166feb3          	and	x29,x13,x22
    80004264:	00b1863b          	addw	x12,x3,x11
    80004268:	41bc81bb          	subw	x3,x25,x27
    8000426c:	00dbab33          	slt	x22,x23,x13
    80004270:	00580ebb          	addw	x29,x16,x5
    80004274:	40600c33          	sub	x24,x0,x6
    80004278:	01c639b3          	sltu	x19,x12,x28
    8000427c:	0121e033          	or	x0,x3,x18
    80004280:	40f58cb3          	sub	x25,x11,x15
    80004284:	40cf05bb          	subw	x11,x30,x12
    80004288:	009e21b3          	slt	x3,x28,x9
    8000428c:	0106fd33          	and	x26,x13,x16
    80004290:	0042013b          	addw	x2,x4,x4
    80004294:	015f86b3          	add	x13,x31,x21
    80004298:	00b1cdb3          	xor	x27,x3,x11
    8000429c:	01fb7eb3          	and	x29,x22,x31
    800042a0:	01c96b33          	or	x22,x18,x28
    800042a4:	01e3893b          	addw	x18,x7,x30
    800042a8:	00fae2b3          	or	x5,x21,x15
    800042ac:	41af0f3b          	subw	x30,x30,x26
    800042b0:	01a541b3          	xor	x3,x10,x26
    800042b4:	41868fbb          	subw	x31,x13,x24
    800042b8:	00fb05bb          	addw	x11,x22,x15
    800042bc:	008b8e3b          	addw	x28,x23,x8
    800042c0:	01bd0db3          	add	x27,x26,x27
    800042c4:	403602bb          	subw	x5,x12,x3
    800042c8:	006944b3          	xor	x9,x18,x6
    800042cc:	002aa633          	slt	x12,x21,x2
    800042d0:	01592d33          	slt	x26,x18,x21
    800042d4:	01f9cbb3          	xor	x23,x19,x31
    800042d8:	41fa81bb          	subw	x3,x21,x31
    800042dc:	01686f33          	or	x30,x16,x22
    800042e0:	413609bb          	subw	x19,x12,x19
    800042e4:	000ee133          	or	x2,x29,x0
    800042e8:	01977b33          	and	x22,x14,x25
    800042ec:	0184c4b3          	xor	x9,x9,x24
    800042f0:	41fb8fbb          	subw	x31,x23,x31
    800042f4:	006dbf33          	sltu	x30,x27,x6
    800042f8:	01914bb3          	xor	x23,x2,x25
    800042fc:	0009e233          	or	x4,x19,x0
    80004300:	0032ea33          	or	x20,x5,x3
    80004304:	00648433          	add	x8,x9,x6
    80004308:	013866b3          	or	x13,x16,x19
    8000430c:	416701bb          	subw	x3,x14,x22
    80004310:	41dc0733          	sub	x14,x24,x29
    80004314:	40ca02bb          	subw	x5,x20,x12
    80004318:	00c10233          	add	x4,x2,x12
    8000431c:	01d17d33          	and	x26,x2,x29
    80004320:	00e74333          	xor	x6,x14,x14
    80004324:	0188f433          	and	x8,x17,x24
    80004328:	41748e3b          	subw	x28,x9,x23
    8000432c:	010261b3          	or	x3,x4,x16
    80004330:	013ac933          	xor	x18,x21,x19
    80004334:	013caa33          	slt	x20,x25,x19
    80004338:	01a04e33          	xor	x28,x0,x26
    8000433c:	40580033          	sub	x0,x16,x5
    80004340:	003ae633          	or	x12,x21,x3
    80004344:	40a989b3          	sub	x19,x19,x10
    80004348:	0106c533          	xor	x10,x13,x16
    8000434c:	40ff8db3          	sub	x27,x31,x15
    80004350:	01458d33          	add	x26,x11,x20
    80004354:	00caf7b3          	and	x15,x21,x12
    80004358:	00252c33          	slt	x24,x10,x2
    8000435c:	005d88b3          	add	x17,x27,x5
    80004360:	40710cb3          	sub	x25,x2,x7
    80004364:	01627433          	and	x8,x4,x22
    80004368:	007d34b3          	sltu	x9,x26,x7
    8000436c:	00c83633          	sltu	x12,x16,x12
    80004370:	0179adb3          	slt	x27,x19,x23
    80004374:	418383bb          	subw	x7,x7,x24
    80004378:	00e40cb3          	add	x25,x8,x14
    8000437c:	008ec5b3          	xor	x11,x29,x8
    80004380:	01080a33          	add	x20,x16,x16
    80004384:	0053b633          	sltu	x12,x7,x5
    80004388:	0022f1b3          	and	x3,x5,x2
    8000438c:	0183013b          	addw	x2,x6,x24
    80004390:	40630a33          	sub	x20,x6,x6
    80004394:	00f38333          	add	x6,x7,x15
    80004398:	0058f033          	and	x0,x17,x5
    8000439c:	017debb3          	or	x23,x27,x23
    800043a0:	01d13a33          	sltu	x20,x2,x29
    800043a4:	015163b3          	or	x7,x2,x21
    800043a8:	00bfa533          	slt	x10,x31,x11
    800043ac:	0179cfb3          	xor	x31,x19,x23
    800043b0:	406206bb          	subw	x13,x4,x6
    800043b4:	41228a33          	sub	x20,x5,x18
    800043b8:	002b4033          	xor	x0,x22,x2
    800043bc:	00a2f433          	and	x8,x5,x10
    800043c0:	01d978b3          	and	x17,x18,x29
    800043c4:	017ce5b3          	or	x11,x25,x23
    800043c8:	00c93833          	sltu	x16,x18,x12
    800043cc:	015ba433          	slt	x8,x23,x21
    800043d0:	40f8823b          	subw	x4,x17,x15
    800043d4:	00ede2b3          	or	x5,x27,x14
    800043d8:	01bfecb3          	or	x25,x31,x27
    800043dc:	003c09b3          	add	x19,x24,x3
    800043e0:	00d78d33          	add	x26,x15,x13
    800043e4:	00b3ec33          	or	x24,x7,x11
    800043e8:	41f1023b          	subw	x4,x2,x31
    800043ec:	00bfa7b3          	slt	x15,x31,x11
    800043f0:	00ab7733          	and	x14,x22,x10
    800043f4:	41830b3b          	subw	x22,x6,x24
    800043f8:	0061c033          	xor	x0,x3,x6
    800043fc:	017f8633          	add	x12,x31,x23
    80004400:	01e889bb          	addw	x19,x17,x30
    80004404:	40f40ebb          	subw	x29,x8,x15
    80004408:	018d86b3          	add	x13,x27,x24
    8000440c:	018c3733          	sltu	x14,x24,x24
    80004410:	00fb2ab3          	slt	x21,x22,x15
    80004414:	016bff33          	and	x30,x23,x22
    80004418:	40a30bb3          	sub	x23,x6,x10
    8000441c:	012c4b33          	xor	x22,x24,x18
    80004420:	0054b6b3          	sltu	x13,x9,x5
    80004424:	40a78533          	sub	x10,x15,x10
    80004428:	41200bbb          	subw	x23,x0,x18
    8000442c:	00bfe9b3          	or	x19,x31,x11
    80004430:	016e6033          	or	x0,x28,x22
    80004434:	00f2b5b3          	sltu	x11,x5,x15
    80004438:	00e78dbb          	addw	x27,x15,x14
    8000443c:	40d40f3b          	subw	x30,x8,x13
    80004440:	01520133          	add	x2,x4,x21
    80004444:	016b3c33          	sltu	x24,x22,x22
    80004448:	40c782bb          	subw	x5,x15,x12
    8000444c:	01a6e6b3          	or	x13,x13,x26
    80004450:	00c3073b          	addw	x14,x6,x12
    80004454:	00c501bb          	addw	x3,x10,x12
    80004458:	0065fc33          	and	x24,x11,x6
    8000445c:	40978abb          	subw	x21,x15,x9
    80004460:	410504b3          	sub	x9,x10,x16
    80004464:	0055ceb3          	xor	x29,x11,x5
    80004468:	00807133          	and	x2,x0,x8
    8000446c:	017c06bb          	addw	x13,x24,x23
    80004470:	41788cb3          	sub	x25,x17,x23
    80004474:	01230533          	add	x10,x6,x18
    80004478:	00366433          	or	x8,x12,x3
    8000447c:	411905b3          	sub	x11,x18,x17
    80004480:	01bef8b3          	and	x17,x29,x27
    80004484:	006a8b3b          	addw	x22,x21,x6
    80004488:	40520e33          	sub	x28,x4,x5
    8000448c:	41f184bb          	subw	x9,x3,x31
    80004490:	01fcba33          	sltu	x20,x25,x31
    80004494:	00697fb3          	and	x31,x18,x6
    80004498:	00d427b3          	slt	x15,x8,x13
    8000449c:	01def4b3          	and	x9,x29,x29
    800044a0:	0075033b          	addw	x6,x10,x7
    800044a4:	410e0633          	sub	x12,x28,x16
    800044a8:	41b9073b          	subw	x14,x18,x27
    800044ac:	41e18cb3          	sub	x25,x3,x30
    800044b0:	01133433          	sltu	x8,x6,x17
    800044b4:	01c6eab3          	or	x21,x13,x28
    800044b8:	01d2f133          	and	x2,x5,x29
    800044bc:	01170d33          	add	x26,x14,x17
    800044c0:	014e7c33          	and	x24,x28,x20
    800044c4:	01eb7cb3          	and	x25,x22,x30
    800044c8:	000b033b          	addw	x6,x22,x0
    800044cc:	010073b3          	and	x7,x0,x16
    800044d0:	01022fb3          	slt	x31,x4,x16
    800044d4:	0021adb3          	slt	x27,x3,x2
    800044d8:	00fc2bb3          	slt	x23,x24,x15
    800044dc:	0132e4b3          	or	x9,x5,x19
    800044e0:	0161a833          	slt	x16,x3,x22
    800044e4:	01e78d3b          	addw	x26,x15,x30
    800044e8:	012935b3          	sltu	x11,x18,x18
    800044ec:	00aaa633          	slt	x12,x21,x10
    800044f0:	40320233          	sub	x4,x4,x3
    800044f4:	0128ed33          	or	x26,x17,x18
    800044f8:	41e88ab3          	sub	x21,x17,x30
    800044fc:	006389b3          	add	x19,x7,x6
    80004500:	41890f3b          	subw	x30,x18,x24
    80004504:	00bc833b          	addw	x6,x25,x11
    80004508:	00e8c4b3          	xor	x9,x17,x14
    8000450c:	00774233          	xor	x4,x14,x7
    80004510:	007d22b3          	slt	x5,x26,x7
    80004514:	01f10e3b          	addw	x28,x2,x31
    80004518:	41d60633          	sub	x12,x12,x29
    8000451c:	018af3b3          	and	x7,x21,x24
    80004520:	019967b3          	or	x15,x18,x25
    80004524:	01853033          	sltu	x0,x10,x24
    80004528:	40c28b3b          	subw	x22,x5,x12
    8000452c:	00ea0a3b          	addw	x20,x20,x14
    80004530:	010275b3          	and	x11,x4,x16
    80004534:	0008e533          	or	x10,x17,x0
    80004538:	00406eb3          	or	x29,x0,x4
    8000453c:	005806b3          	add	x13,x16,x5
    80004540:	01e27133          	and	x2,x4,x30
    80004544:	41158fb3          	sub	x31,x11,x17
    80004548:	01037d33          	and	x26,x6,x16
    8000454c:	00a6fdb3          	and	x27,x13,x10
    80004550:	41c9873b          	subw	x14,x19,x28
    80004554:	01da3533          	sltu	x10,x20,x29
    80004558:	01942833          	slt	x16,x8,x25
    8000455c:	00b94cb3          	xor	x25,x18,x11
    80004560:	006ac233          	xor	x4,x21,x6
    80004564:	00be4533          	xor	x10,x28,x11
    80004568:	0056f2b3          	and	x5,x13,x5
    8000456c:	016184b3          	add	x9,x3,x22
    80004570:	00c10a3b          	addw	x20,x2,x12
    80004574:	00722833          	slt	x16,x4,x7
    80004578:	007d7cb3          	and	x25,x26,x7
    8000457c:	0065eb33          	or	x22,x11,x6
    80004580:	00700133          	add	x2,x0,x7
    80004584:	403c0db3          	sub	x27,x24,x3
    80004588:	0085a233          	slt	x4,x11,x8
    8000458c:	017cb733          	sltu	x14,x25,x23
    80004590:	41cf83bb          	subw	x7,x31,x28
    80004594:	01aa6d33          	or	x26,x20,x26
    80004598:	01133ab3          	sltu	x21,x6,x17
    8000459c:	402f043b          	subw	x8,x30,x2
    800045a0:	016b3e33          	sltu	x28,x22,x22
    800045a4:	411c8a3b          	subw	x20,x25,x17
    800045a8:	01eb47b3          	xor	x15,x22,x30
    800045ac:	018fb933          	sltu	x18,x31,x24
    800045b0:	41eb0333          	sub	x6,x22,x30
    800045b4:	007bc633          	xor	x12,x23,x7
    800045b8:	40ef0f3b          	subw	x30,x30,x14
    800045bc:	40b80c3b          	subw	x24,x16,x11
    800045c0:	0147e733          	or	x14,x15,x20
    800045c4:	408c893b          	subw	x18,x25,x8
    800045c8:	019021b3          	slt	x3,x0,x25
    800045cc:	00c12a33          	slt	x20,x2,x12
    800045d0:	00ce0e3b          	addw	x28,x28,x12
    800045d4:	015cabb3          	slt	x23,x25,x21
    800045d8:	01f9fdb3          	and	x27,x19,x31
    800045dc:	01e131b3          	sltu	x3,x2,x30
    800045e0:	41e58cb3          	sub	x25,x11,x30
    800045e4:	009d4533          	xor	x10,x26,x9
    800045e8:	408a82b3          	sub	x5,x21,x8
    800045ec:	00b80633          	add	x12,x16,x11
    800045f0:	402b8a33          	sub	x20,x23,x2
    800045f4:	01930db3          	add	x27,x6,x25
    800045f8:	0057e1b3          	or	x3,x15,x5
    800045fc:	01d4023b          	addw	x4,x8,x29
    80004600:	015e6933          	or	x18,x28,x21
    80004604:	414e8fb3          	sub	x31,x29,x20
    80004608:	0109ef33          	or	x30,x19,x16
    8000460c:	00cac7b3          	xor	x15,x21,x12
    80004610:	00a262b3          	or	x5,x4,x10
    80004614:	019c29b3          	slt	x19,x24,x25
    80004618:	01040733          	add	x14,x8,x16
    8000461c:	01d32b33          	slt	x22,x6,x29
    80004620:	41da013b          	subw	x2,x20,x29
    80004624:	014489b3          	add	x19,x9,x20
    80004628:	006e003b          	addw	x0,x28,x6
    8000462c:	40a30a33          	sub	x20,x6,x10
    80004630:	0086c733          	xor	x14,x13,x8
    80004634:	41a40833          	sub	x16,x8,x26
    80004638:	01244d33          	xor	x26,x8,x18
    8000463c:	4066053b          	subw	x10,x12,x6
    80004640:	00ecf5b3          	and	x11,x25,x14
    80004644:	008f843b          	addw	x8,x31,x8
    80004648:	018ce8b3          	or	x17,x25,x24
    8000464c:	01c647b3          	xor	x15,x12,x28
    80004650:	002f6333          	or	x6,x30,x2
    80004654:	01960cbb          	addw	x25,x12,x25
    80004658:	01e405b3          	add	x11,x8,x30
    8000465c:	002ba2b3          	slt	x5,x23,x2
    80004660:	008f4a33          	xor	x20,x30,x8
    80004664:	009808bb          	addw	x17,x16,x9
    80004668:	007e3333          	sltu	x6,x28,x7
    8000466c:	01eba9b3          	slt	x19,x23,x30
    80004670:	01704d33          	xor	x26,x0,x23
    80004674:	00228733          	add	x14,x5,x2
    80004678:	00daec33          	or	x24,x21,x13
    8000467c:	01c068b3          	or	x17,x0,x28
    80004680:	404a09bb          	subw	x19,x20,x4
    80004684:	01e177b3          	and	x15,x2,x30
    80004688:	002f893b          	addw	x18,x31,x2
    8000468c:	01afa2b3          	slt	x5,x31,x26
    80004690:	00dbcd33          	xor	x26,x23,x13
    80004694:	002c2633          	slt	x12,x24,x2
    80004698:	418a8433          	sub	x8,x21,x24
    8000469c:	01c801b3          	add	x3,x16,x28
    800046a0:	00e2f4b3          	and	x9,x5,x14
    800046a4:	013ee733          	or	x14,x29,x19
    800046a8:	008ab833          	sltu	x16,x21,x8
    800046ac:	003f67b3          	or	x15,x30,x3
    800046b0:	000f29b3          	slt	x19,x30,x0
    800046b4:	007023b3          	slt	x7,x0,x7
    800046b8:	014be5b3          	or	x11,x23,x20
    800046bc:	01c941b3          	xor	x3,x18,x28
    800046c0:	4004083b          	subw	x16,x8,x0
    800046c4:	005e8233          	add	x4,x29,x5
    800046c8:	00532bb3          	slt	x23,x6,x5
    800046cc:	00a66733          	or	x14,x12,x10
    800046d0:	018b0e33          	add	x28,x22,x24
    800046d4:	018dba33          	sltu	x20,x27,x24
    800046d8:	01a9a933          	slt	x18,x19,x26
    800046dc:	01820bbb          	addw	x23,x4,x24
    800046e0:	00048e3b          	addw	x28,x9,x0
    800046e4:	01fc7133          	and	x2,x24,x31
    800046e8:	00068733          	add	x14,x13,x0
    800046ec:	0076aab3          	slt	x21,x13,x7
    800046f0:	007dee33          	or	x28,x27,x7
    800046f4:	016b3f33          	sltu	x30,x22,x22
    800046f8:	0174ceb3          	xor	x29,x9,x23
    800046fc:	0057adb3          	slt	x27,x15,x5
    80004700:	006e64b3          	or	x9,x28,x6
    80004704:	40540bb3          	sub	x23,x8,x5
    80004708:	41180533          	sub	x10,x16,x17
    8000470c:	00500c3b          	addw	x24,x0,x5
    80004710:	008d66b3          	or	x13,x26,x8
    80004714:	01f48033          	add	x0,x9,x31
    80004718:	0111cab3          	xor	x21,x3,x17
    8000471c:	005b7733          	and	x14,x22,x5
    80004720:	40f6053b          	subw	x10,x12,x15
    80004724:	01e687bb          	addw	x15,x13,x30
    80004728:	00ba03bb          	addw	x7,x20,x11
    8000472c:	01fdafb3          	slt	x31,x27,x31
    80004730:	00a16133          	or	x2,x2,x10
    80004734:	01640f3b          	addw	x30,x8,x22
    80004738:	009725b3          	slt	x11,x14,x9
    8000473c:	01b30e33          	add	x28,x6,x27
    80004740:	01f334b3          	sltu	x9,x6,x31
    80004744:	418b063b          	subw	x12,x22,x24
    80004748:	00ed7033          	and	x0,x26,x14
    8000474c:	41978b33          	sub	x22,x15,x25
    80004750:	01a98f3b          	addw	x30,x19,x26
    80004754:	009a8cbb          	addw	x25,x21,x9
    80004758:	0004b433          	sltu	x8,x9,x0
    8000475c:	01863333          	sltu	x6,x12,x24
    80004760:	0164bdb3          	sltu	x27,x9,x22
    80004764:	01f57733          	and	x14,x10,x31
    80004768:	414f86bb          	subw	x13,x31,x20
    8000476c:	40b58fbb          	subw	x31,x11,x11
    80004770:	41d507bb          	subw	x15,x10,x29
    80004774:	019a6bb3          	or	x23,x20,x25
    80004778:	403f04b3          	sub	x9,x30,x3
    8000477c:	01f88f3b          	addw	x30,x17,x31
    80004780:	0138c9b3          	xor	x19,x17,x19
    80004784:	40638533          	sub	x10,x7,x6
    80004788:	414604b3          	sub	x9,x12,x20
    8000478c:	000a06b3          	add	x13,x20,x0
    80004790:	0049c7b3          	xor	x15,x19,x4
    80004794:	008ce833          	or	x16,x25,x8
    80004798:	01707133          	and	x2,x0,x23
    8000479c:	019b0abb          	addw	x21,x22,x25
    800047a0:	00067fb3          	and	x31,x12,x0
    800047a4:	000b3db3          	sltu	x27,x22,x0
    800047a8:	4177843b          	subw	x8,x15,x23
    800047ac:	00e2a5b3          	slt	x11,x5,x14
    800047b0:	010483b3          	add	x7,x9,x16
    800047b4:	41918eb3          	sub	x29,x3,x25
    800047b8:	01c6f1b3          	and	x3,x13,x28
    800047bc:	0052c833          	xor	x16,x5,x5
    800047c0:	01c3e2b3          	or	x5,x7,x28
    800047c4:	00eae4b3          	or	x9,x21,x14
    800047c8:	41950a33          	sub	x20,x10,x25
    800047cc:	008d7e33          	and	x28,x26,x8
    800047d0:	01d533b3          	sltu	x7,x10,x29
    800047d4:	416f0433          	sub	x8,x30,x22
    800047d8:	0151a533          	slt	x10,x3,x21
    800047dc:	000e0f3b          	addw	x30,x28,x0
    800047e0:	00737c33          	and	x24,x6,x7
    800047e4:	019b09b3          	add	x19,x22,x25
    800047e8:	019d2db3          	slt	x27,x26,x25
    800047ec:	01eab633          	sltu	x12,x21,x30
    800047f0:	005d6733          	or	x14,x26,x5
    800047f4:	013e8e3b          	addw	x28,x29,x19
    800047f8:	00393333          	sltu	x6,x18,x3
    800047fc:	0126e933          	or	x18,x13,x18
    80004800:	41a3853b          	subw	x10,x7,x26
    80004804:	018f8fb3          	add	x31,x31,x24
    80004808:	003124b3          	slt	x9,x2,x3
    8000480c:	01d70e33          	add	x28,x14,x29
    80004810:	00ff38b3          	sltu	x17,x30,x15
    80004814:	00722db3          	slt	x27,x4,x7
    80004818:	00968633          	add	x12,x13,x9
    8000481c:	00bb09bb          	addw	x19,x22,x11
    80004820:	0042c5b3          	xor	x11,x5,x4
    80004824:	00e481bb          	addw	x3,x9,x14
    80004828:	40df82bb          	subw	x5,x31,x13
    8000482c:	01484f33          	xor	x30,x16,x20
    80004830:	008775b3          	and	x11,x14,x8
    80004834:	01240233          	add	x4,x8,x18
    80004838:	409f86b3          	sub	x13,x31,x9
    8000483c:	00797eb3          	and	x29,x18,x7
    80004840:	41440bbb          	subw	x23,x8,x20
    80004844:	006839b3          	sltu	x19,x16,x6
    80004848:	0102acb3          	slt	x25,x5,x16
    8000484c:	00cda933          	slt	x18,x27,x12
    80004850:	002d3e33          	sltu	x28,x26,x2
    80004854:	0181e333          	or	x6,x3,x24
    80004858:	00e8873b          	addw	x14,x17,x14
    8000485c:	015137b3          	sltu	x15,x2,x21
    80004860:	00a382bb          	addw	x5,x7,x10
    80004864:	01f3cb33          	xor	x22,x7,x31
    80004868:	004f2e33          	slt	x28,x30,x4
    8000486c:	01ea8f3b          	addw	x30,x21,x30
    80004870:	014ae933          	or	x18,x21,x20
    80004874:	414285bb          	subw	x11,x5,x20
    80004878:	010b3e33          	sltu	x28,x22,x16
    8000487c:	01e73233          	sltu	x4,x14,x30
    80004880:	4116863b          	subw	x12,x13,x17
    80004884:	005887bb          	addw	x15,x17,x5
    80004888:	0129c9b3          	xor	x19,x19,x18
    8000488c:	01b3ce33          	xor	x28,x7,x27
    80004890:	01724cb3          	xor	x25,x4,x23
    80004894:	01ee82bb          	addw	x5,x29,x30
    80004898:	016a33b3          	sltu	x7,x20,x22
    8000489c:	00a538b3          	sltu	x17,x10,x10
    800048a0:	0189b833          	sltu	x16,x19,x24
    800048a4:	014bc133          	xor	x2,x23,x20
    800048a8:	005a75b3          	and	x11,x20,x5
    800048ac:	011509b3          	add	x19,x10,x17
    800048b0:	01250d33          	add	x26,x10,x18
    800048b4:	01ea0f33          	add	x30,x20,x30
    800048b8:	01482db3          	slt	x27,x16,x20
    800048bc:	016ab5b3          	sltu	x11,x21,x22
    800048c0:	0099a7b3          	slt	x15,x19,x9
    800048c4:	008181b3          	add	x3,x3,x8
    800048c8:	01856433          	or	x8,x10,x24
    800048cc:	01fa8c3b          	addw	x24,x21,x31
    800048d0:	00a7ca33          	xor	x20,x15,x10
    800048d4:	0001e933          	or	x18,x3,x0
    800048d8:	00a3003b          	addw	x0,x6,x10
    800048dc:	406188bb          	subw	x17,x3,x6
    800048e0:	017e0ebb          	addw	x29,x28,x23
    800048e4:	40e305b3          	sub	x11,x6,x14
    800048e8:	412f8c3b          	subw	x24,x31,x18
    800048ec:	01fd2633          	slt	x12,x26,x31
    800048f0:	00d74433          	xor	x8,x14,x13
    800048f4:	01b84ab3          	xor	x21,x16,x27
    800048f8:	40de86bb          	subw	x13,x29,x13
    800048fc:	00583f33          	sltu	x30,x16,x5
    80004900:	019ba1b3          	slt	x3,x23,x25
    80004904:	000477b3          	and	x15,x8,x0
    80004908:	0098bdb3          	sltu	x27,x17,x9
    8000490c:	000c7033          	and	x0,x24,x0
    80004910:	002f7b33          	and	x22,x30,x2
    80004914:	01248ab3          	add	x21,x9,x18
    80004918:	00df86bb          	addw	x13,x31,x13
    8000491c:	414e0933          	sub	x18,x28,x20
    80004920:	0022f033          	and	x0,x5,x2
    80004924:	40ca8fb3          	sub	x31,x21,x12
    80004928:	41aa8e33          	sub	x28,x21,x26
    8000492c:	01b6f333          	and	x6,x13,x27
    80004930:	00f06ab3          	or	x21,x0,x15
    80004934:	01a7b633          	sltu	x12,x15,x26
    80004938:	41178cbb          	subw	x25,x15,x17
    8000493c:	41000933          	sub	x18,x0,x16
    80004940:	00d27c33          	and	x24,x4,x13
    80004944:	41158833          	sub	x16,x11,x17
    80004948:	414206bb          	subw	x13,x4,x20
    8000494c:	01778333          	add	x6,x15,x23
    80004950:	4021073b          	subw	x14,x2,x2
    80004954:	01d3c7b3          	xor	x15,x7,x29
    80004958:	013ba5b3          	slt	x11,x23,x19
    8000495c:	01850e3b          	addw	x28,x10,x24
    80004960:	412306b3          	sub	x13,x6,x18
    80004964:	01d88cb3          	add	x25,x17,x29
    80004968:	407604bb          	subw	x9,x12,x7
    8000496c:	01640733          	add	x14,x8,x22
    80004970:	01d3b233          	sltu	x4,x7,x29
    80004974:	40760fbb          	subw	x31,x12,x7
    80004978:	01ce0833          	add	x16,x28,x28
    8000497c:	00788b3b          	addw	x22,x17,x7
    80004980:	41d3853b          	subw	x10,x7,x29
    80004984:	00d4bcb3          	sltu	x25,x9,x13
    80004988:	015a873b          	addw	x14,x21,x21
    8000498c:	41de0dbb          	subw	x27,x28,x29
    80004990:	402386b3          	sub	x13,x7,x2
    80004994:	01ac6933          	or	x18,x24,x26
    80004998:	014409bb          	addw	x19,x8,x20
    8000499c:	01ae68b3          	or	x17,x28,x26
    800049a0:	004e2433          	slt	x8,x28,x4
    800049a4:	00adc2b3          	xor	x5,x27,x10
    800049a8:	01ee033b          	addw	x6,x28,x30
    800049ac:	016c8b33          	add	x22,x25,x22
    800049b0:	00f437b3          	sltu	x15,x8,x15
    800049b4:	002fafb3          	slt	x31,x31,x2
    800049b8:	01767833          	and	x16,x12,x23
    800049bc:	0166ff33          	and	x30,x13,x22
    800049c0:	40e1893b          	subw	x18,x3,x14
    800049c4:	00852d33          	slt	x26,x10,x8
    800049c8:	01550733          	add	x14,x10,x21
    800049cc:	011aaab3          	slt	x21,x21,x17
    800049d0:	41b58c3b          	subw	x24,x11,x27
    800049d4:	005e8b3b          	addw	x22,x29,x5
    800049d8:	00f9853b          	addw	x10,x19,x15
    800049dc:	00b3c933          	xor	x18,x7,x11
    800049e0:	40928833          	sub	x16,x5,x9
    800049e4:	41468333          	sub	x6,x13,x20
    800049e8:	01512b33          	slt	x22,x2,x21
    800049ec:	00fd4cb3          	xor	x25,x26,x15
    800049f0:	01706533          	or	x10,x0,x23
    800049f4:	017c003b          	addw	x0,x24,x23
    800049f8:	00568fbb          	addw	x31,x13,x5
    800049fc:	00fa6233          	or	x4,x20,x15
    80004a00:	015c87b3          	add	x15,x25,x21
    80004a04:	01e374b3          	and	x9,x6,x30
    80004a08:	01d732b3          	sltu	x5,x14,x29
    80004a0c:	01ed3433          	sltu	x8,x26,x30
    80004a10:	01be6c33          	or	x24,x28,x27
    80004a14:	017f3833          	sltu	x16,x30,x23
    80004a18:	017e47b3          	xor	x15,x28,x23
    80004a1c:	01f484b3          	add	x9,x9,x31
    80004a20:	40b90033          	sub	x0,x18,x11
    80004a24:	00377e33          	and	x28,x14,x3
    80004a28:	41618dbb          	subw	x27,x3,x22
    80004a2c:	002a8433          	add	x8,x21,x2
    80004a30:	01e3c1b3          	xor	x3,x7,x30
    80004a34:	0107bbb3          	sltu	x23,x15,x16
    80004a38:	018282bb          	addw	x5,x5,x24
    80004a3c:	018266b3          	or	x13,x4,x24
    80004a40:	01da43b3          	xor	x7,x20,x29
    80004a44:	0149ed33          	or	x26,x19,x20
    80004a48:	413a8833          	sub	x16,x21,x19
    80004a4c:	00cce9b3          	or	x19,x25,x12
    80004a50:	00f6f933          	and	x18,x13,x15
    80004a54:	41800b33          	sub	x22,x0,x24
    80004a58:	40c18fbb          	subw	x31,x3,x12
    80004a5c:	002d79b3          	and	x19,x26,x2
    80004a60:	00430633          	add	x12,x6,x4
    80004a64:	01d966b3          	or	x13,x18,x29
    80004a68:	01558e33          	add	x28,x11,x21
    80004a6c:	00b46ab3          	or	x21,x8,x11
    80004a70:	41bc0fb3          	sub	x31,x24,x27
    80004a74:	40b20133          	sub	x2,x4,x11
    80004a78:	019ba733          	slt	x14,x23,x25
    80004a7c:	40d6093b          	subw	x18,x12,x13
    80004a80:	01130e33          	add	x28,x6,x17
    80004a84:	40558a33          	sub	x20,x11,x5
    80004a88:	40f105bb          	subw	x11,x2,x15
    80004a8c:	40d30b3b          	subw	x22,x6,x13
    80004a90:	00882eb3          	slt	x29,x16,x8
    80004a94:	01ba8a3b          	addw	x20,x21,x27
    80004a98:	00898c33          	add	x24,x19,x8
    80004a9c:	01f431b3          	sltu	x3,x8,x31
    80004aa0:	40f38b33          	sub	x22,x7,x15
    80004aa4:	019e24b3          	slt	x9,x28,x25
    80004aa8:	017cfbb3          	and	x23,x25,x23
    80004aac:	41d88033          	sub	x0,x17,x29
    80004ab0:	01a30133          	add	x2,x6,x26
    80004ab4:	012d0eb3          	add	x29,x26,x18
    80004ab8:	007844b3          	xor	x9,x16,x7
    80004abc:	01438433          	add	x8,x7,x20
    80004ac0:	005183b3          	add	x7,x3,x5
    80004ac4:	00a03e33          	sltu	x28,x0,x10
    80004ac8:	41ab8dbb          	subw	x27,x23,x26
    80004acc:	01dbbeb3          	sltu	x29,x23,x29
    80004ad0:	000a2bb3          	slt	x23,x20,x0
    80004ad4:	0096a8b3          	slt	x17,x13,x9
    80004ad8:	00ff8db3          	add	x27,x31,x15
    80004adc:	007fc833          	xor	x16,x31,x7
    80004ae0:	400783b3          	sub	x7,x15,x0
    80004ae4:	00ef0ebb          	addw	x29,x30,x14
    80004ae8:	40ec0f33          	sub	x30,x24,x14
    80004aec:	019ac733          	xor	x14,x21,x25
    80004af0:	00a7bcb3          	sltu	x25,x15,x10
    80004af4:	0099c7b3          	xor	x15,x19,x9
    80004af8:	01d23f33          	sltu	x30,x4,x29
    80004afc:	41ad0ebb          	subw	x29,x26,x26
    80004b00:	400b0633          	sub	x12,x22,x0
    80004b04:	019538b3          	sltu	x17,x10,x25
    80004b08:	41780abb          	subw	x21,x16,x23
    80004b0c:	012ea6b3          	slt	x13,x29,x18
    80004b10:	000439b3          	sltu	x19,x8,x0
    80004b14:	008f043b          	addw	x8,x30,x8
    80004b18:	01087533          	and	x10,x16,x16
    80004b1c:	0002f633          	and	x12,x5,x0
    80004b20:	013be2b3          	or	x5,x23,x19
    80004b24:	01faeab3          	or	x21,x21,x31
    80004b28:	01712933          	slt	x18,x2,x23
    80004b2c:	002fb8b3          	sltu	x17,x31,x2
    80004b30:	017d8d33          	add	x26,x27,x23
    80004b34:	408f8c33          	sub	x24,x31,x8
    80004b38:	405409b3          	sub	x19,x8,x5
    80004b3c:	416b8a3b          	subw	x20,x23,x22
    80004b40:	005f7eb3          	and	x29,x30,x5
    80004b44:	01cb64b3          	or	x9,x22,x28
    80004b48:	005525b3          	slt	x11,x10,x5
    80004b4c:	019a7433          	and	x8,x20,x25
    80004b50:	41e503bb          	subw	x7,x10,x30
    80004b54:	005e0a33          	add	x20,x28,x5
    80004b58:	00a77b33          	and	x22,x14,x10
    80004b5c:	01f4feb3          	and	x29,x9,x31
    80004b60:	019a88b3          	add	x17,x21,x25
    80004b64:	41348833          	sub	x16,x9,x19
    80004b68:	00d66033          	or	x0,x12,x13
    80004b6c:	40da893b          	subw	x18,x21,x13
    80004b70:	41de0d3b          	subw	x26,x28,x29
    80004b74:	00ba7533          	and	x10,x20,x11
    80004b78:	00058abb          	addw	x21,x11,x0
    80004b7c:	004c86b3          	add	x13,x25,x4
    80004b80:	40ef0f3b          	subw	x30,x30,x14
    80004b84:	0198ae33          	slt	x28,x17,x25
    80004b88:	005d89bb          	addw	x19,x27,x5
    80004b8c:	0146c033          	xor	x0,x13,x20
    80004b90:	01b2ef33          	or	x30,x5,x27
    80004b94:	00b44e33          	xor	x28,x8,x11
    80004b98:	019af833          	and	x16,x21,x25
    80004b9c:	00257433          	and	x8,x10,x2
    80004ba0:	009eb2b3          	sltu	x5,x29,x9
    80004ba4:	01df06bb          	addw	x13,x30,x29
    80004ba8:	018269b3          	or	x19,x4,x24
    80004bac:	00f42533          	slt	x10,x8,x15
    80004bb0:	4028013b          	subw	x2,x16,x2
    80004bb4:	41e8823b          	subw	x4,x17,x30
    80004bb8:	00ecec33          	or	x24,x25,x14
    80004bbc:	01138f33          	add	x30,x7,x17
    80004bc0:	01783d33          	sltu	x26,x16,x23
    80004bc4:	405108bb          	subw	x17,x2,x5
    80004bc8:	01044e33          	xor	x28,x8,x16
    80004bcc:	40310fb3          	sub	x31,x2,x3
    80004bd0:	01303033          	sltu	x0,x0,x19
    80004bd4:	00d20bbb          	addw	x23,x4,x13
    80004bd8:	01388433          	add	x8,x17,x19
    80004bdc:	41d48ab3          	sub	x21,x9,x29
    80004be0:	009075b3          	and	x11,x0,x9
    80004be4:	01c32c33          	slt	x24,x6,x28
    80004be8:	002be6b3          	or	x13,x23,x2
    80004bec:	017f8f33          	add	x30,x31,x23
    80004bf0:	00e9a5b3          	slt	x11,x19,x14
    80004bf4:	00098133          	add	x2,x19,x0
    80004bf8:	00924a33          	xor	x20,x4,x9
    80004bfc:	015eacb3          	slt	x25,x29,x21
    80004c00:	0034b933          	sltu	x18,x9,x3
    80004c04:	005067b3          	or	x15,x0,x5
    80004c08:	00880333          	add	x6,x16,x8
    80004c0c:	01fca233          	slt	x4,x25,x31
    80004c10:	011a8cbb          	addw	x25,x21,x17
    80004c14:	00aaae33          	slt	x28,x21,x10
    80004c18:	01a561b3          	or	x3,x10,x26
    80004c1c:	417708bb          	subw	x17,x14,x23
    80004c20:	00bcc5b3          	xor	x11,x25,x11
    80004c24:	01e47033          	and	x0,x8,x30
    80004c28:	002964b3          	or	x9,x18,x2
    80004c2c:	40e80f33          	sub	x30,x16,x14
    80004c30:	41910933          	sub	x18,x2,x25
    80004c34:	011c083b          	addw	x16,x24,x17
    80004c38:	018a84b3          	add	x9,x21,x24
    80004c3c:	017373b3          	and	x7,x6,x23
    80004c40:	0145b5b3          	sltu	x11,x11,x20
    80004c44:	41df8eb3          	sub	x29,x31,x29
    80004c48:	41378833          	sub	x16,x15,x19
    80004c4c:	41768db3          	sub	x27,x13,x23
    80004c50:	00e4ffb3          	and	x31,x9,x14
    80004c54:	00e727b3          	slt	x15,x14,x14
    80004c58:	404e04bb          	subw	x9,x28,x4
    80004c5c:	013a4db3          	xor	x27,x20,x19
    80004c60:	010abb33          	sltu	x22,x21,x16
    80004c64:	00e30633          	add	x12,x6,x14
    80004c68:	00253cb3          	sltu	x25,x10,x2
    80004c6c:	000d8c3b          	addw	x24,x27,x0
    80004c70:	00d40033          	add	x0,x8,x13
    80004c74:	01f46233          	or	x4,x8,x31
    80004c78:	016b84b3          	add	x9,x23,x22
    80004c7c:	015ac7b3          	xor	x15,x21,x21
    80004c80:	005ef8b3          	and	x17,x29,x5
    80004c84:	0102ad33          	slt	x26,x5,x16
    80004c88:	01530633          	add	x12,x6,x21
    80004c8c:	000025b3          	slt	x11,x0,x0
    80004c90:	0159f3b3          	and	x7,x19,x21
    80004c94:	01a33e33          	sltu	x28,x6,x26
    80004c98:	41590b3b          	subw	x22,x18,x21
    80004c9c:	00d4a433          	slt	x8,x9,x13
    80004ca0:	0136aa33          	slt	x20,x13,x19
    80004ca4:	40f5893b          	subw	x18,x11,x15
    80004ca8:	0178f5b3          	and	x11,x17,x23
    80004cac:	402d0db3          	sub	x27,x26,x2
    80004cb0:	00e48e33          	add	x28,x9,x14
    80004cb4:	00eb3b33          	sltu	x22,x22,x14
    80004cb8:	002c6ab3          	or	x21,x24,x2
    80004cbc:	411f89bb          	subw	x19,x31,x17
    80004cc0:	00bc8cb3          	add	x25,x25,x11
    80004cc4:	00c42f33          	slt	x30,x8,x12
    80004cc8:	014b35b3          	sltu	x11,x22,x20
    80004ccc:	00810c33          	add	x24,x2,x8
    80004cd0:	01a8a7b3          	slt	x15,x17,x26
    80004cd4:	01eb7533          	and	x10,x22,x30
    80004cd8:	409f8033          	sub	x0,x31,x9
    80004cdc:	405f0fb3          	sub	x31,x30,x5
    80004ce0:	01af6a33          	or	x20,x30,x26
    80004ce4:	011384bb          	addw	x9,x7,x17
    80004ce8:	40d20dbb          	subw	x27,x4,x13
    80004cec:	01f281b3          	add	x3,x5,x31
    80004cf0:	405e8fb3          	sub	x31,x29,x5
    80004cf4:	407708bb          	subw	x17,x14,x7
    80004cf8:	0140093b          	addw	x18,x0,x20
    80004cfc:	0185e533          	or	x10,x11,x24
    80004d00:	01476333          	or	x6,x14,x20
    80004d04:	01f275b3          	and	x11,x4,x31
    80004d08:	418e0a3b          	subw	x20,x28,x24
    80004d0c:	01ed81bb          	addw	x3,x27,x30
    80004d10:	01647733          	and	x14,x8,x22
    80004d14:	40de0cbb          	subw	x25,x28,x13
    80004d18:	412b8033          	sub	x0,x23,x18
    80004d1c:	01e204b3          	add	x9,x4,x30
    80004d20:	0152fc33          	and	x24,x5,x21
    80004d24:	00b1f833          	and	x16,x3,x11
    80004d28:	415d0d33          	sub	x26,x26,x21
    80004d2c:	40c983bb          	subw	x7,x19,x12
    80004d30:	011fe2b3          	or	x5,x31,x17
    80004d34:	41b78a33          	sub	x20,x15,x27
    80004d38:	413409b3          	sub	x19,x8,x19
    80004d3c:	40740833          	sub	x16,x8,x7
    80004d40:	006d8fbb          	addw	x31,x27,x6
    80004d44:	00ac8cb3          	add	x25,x25,x10
    80004d48:	41ee873b          	subw	x14,x29,x30
    80004d4c:	003983b3          	add	x7,x19,x3
    80004d50:	01e32fb3          	slt	x31,x6,x30
    80004d54:	01ce68b3          	or	x17,x28,x28
    80004d58:	00472033          	slt	x0,x14,x4
    80004d5c:	00eaf433          	and	x8,x21,x14
    80004d60:	0052e233          	or	x4,x5,x5
    80004d64:	41bd8dbb          	subw	x27,x27,x27
    80004d68:	00506633          	or	x12,x0,x5
    80004d6c:	00998ebb          	addw	x29,x19,x9
    80004d70:	002f8733          	add	x14,x31,x2
    80004d74:	0192c233          	xor	x4,x5,x25
    80004d78:	408688b3          	sub	x17,x13,x8
    80004d7c:	019d4d33          	xor	x26,x26,x25
    80004d80:	003fff33          	and	x30,x31,x3
    80004d84:	40ac05bb          	subw	x11,x24,x10
    80004d88:	01b98a3b          	addw	x20,x19,x27
    80004d8c:	40740c33          	sub	x24,x8,x7
    80004d90:	416287bb          	subw	x15,x5,x22
    80004d94:	40840db3          	sub	x27,x8,x8
    80004d98:	00ed7cb3          	and	x25,x26,x14
    80004d9c:	01d17733          	and	x14,x2,x29
    80004da0:	009686b3          	add	x13,x13,x9
    80004da4:	00478eb3          	add	x29,x15,x4
    80004da8:	000a8233          	add	x4,x21,x0
    80004dac:	00f07133          	and	x2,x0,x15
    80004db0:	01ba3b33          	sltu	x22,x20,x27
    80004db4:	01d34933          	xor	x18,x6,x29
    80004db8:	40f18ab3          	sub	x21,x3,x15
    80004dbc:	01e46433          	or	x8,x8,x30
    80004dc0:	019201b3          	add	x3,x4,x25
    80004dc4:	01dc6e33          	or	x28,x24,x29
    80004dc8:	00efe8b3          	or	x17,x31,x14
    80004dcc:	00dcb633          	sltu	x12,x25,x13
    80004dd0:	00e707b3          	add	x15,x14,x14
    80004dd4:	01e5a833          	slt	x16,x11,x30
    80004dd8:	01d3c033          	xor	x0,x7,x29
    80004ddc:	00676733          	or	x14,x14,x6
    80004de0:	01952e33          	slt	x28,x10,x25
    80004de4:	003eba33          	sltu	x20,x29,x3
    80004de8:	40758ebb          	subw	x29,x11,x7
    80004dec:	00658733          	add	x14,x11,x6
    80004df0:	41a40bb3          	sub	x23,x8,x26
    80004df4:	00bc06bb          	addw	x13,x24,x11
    80004df8:	01c3833b          	addw	x6,x7,x28
    80004dfc:	0047ef33          	or	x30,x15,x4
    80004e00:	41fe0dbb          	subw	x27,x28,x31
    80004e04:	009abb33          	sltu	x22,x21,x9
    80004e08:	006e7033          	and	x0,x28,x6
    80004e0c:	012676b3          	and	x13,x12,x18
    80004e10:	01b80abb          	addw	x21,x16,x27
    80004e14:	004723b3          	slt	x7,x14,x4
    80004e18:	00ece733          	or	x14,x25,x14
    80004e1c:	00c16eb3          	or	x29,x2,x12
    80004e20:	017cbf33          	sltu	x30,x25,x23
    80004e24:	409f8633          	sub	x12,x31,x9
    80004e28:	005481b3          	add	x3,x9,x5
    80004e2c:	00bfa533          	slt	x10,x31,x11
    80004e30:	41720ab3          	sub	x21,x4,x23
    80004e34:	0042cb33          	xor	x22,x5,x4
    80004e38:	002bb433          	sltu	x8,x23,x2
    80004e3c:	01a649b3          	xor	x19,x12,x26
    80004e40:	405e81b3          	sub	x3,x29,x5
    80004e44:	00ee4f33          	xor	x30,x28,x14
    80004e48:	01194533          	xor	x10,x18,x17
    80004e4c:	01fcf4b3          	and	x9,x25,x31
    80004e50:	00c03db3          	sltu	x27,x0,x12
    80004e54:	00f3e733          	or	x14,x7,x15
    80004e58:	00052633          	slt	x12,x10,x0
    80004e5c:	00a444b3          	xor	x9,x8,x10
    80004e60:	00d472b3          	and	x5,x8,x13
    80004e64:	01f1cab3          	xor	x21,x3,x31
    80004e68:	41e68933          	sub	x18,x13,x30
    80004e6c:	41948eb3          	sub	x29,x9,x25
    80004e70:	00917333          	and	x6,x2,x9
    80004e74:	003f0033          	add	x0,x30,x3
    80004e78:	00dc75b3          	and	x11,x24,x13
    80004e7c:	418388bb          	subw	x17,x7,x24
    80004e80:	0172bc33          	sltu	x24,x5,x23
    80004e84:	40a6883b          	subw	x16,x13,x10
    80004e88:	01a7a233          	slt	x4,x15,x26
    80004e8c:	405782bb          	subw	x5,x15,x5
    80004e90:	0085f933          	and	x18,x11,x8
    80004e94:	41638bbb          	subw	x23,x7,x22
    80004e98:	4073043b          	subw	x8,x6,x7
    80004e9c:	0074b1b3          	sltu	x3,x9,x7
    80004ea0:	00ce863b          	addw	x12,x29,x12
    80004ea4:	017a29b3          	slt	x19,x20,x23
    80004ea8:	00b506b3          	add	x13,x10,x11
    80004eac:	412a8d3b          	subw	x26,x21,x18
    80004eb0:	00078533          	add	x10,x15,x0
    80004eb4:	003cedb3          	or	x27,x25,x3
    80004eb8:	012b65b3          	or	x11,x22,x18
    80004ebc:	00386033          	or	x0,x16,x3
    80004ec0:	00a234b3          	sltu	x9,x4,x10
    80004ec4:	41980b33          	sub	x22,x16,x25
    80004ec8:	404882bb          	subw	x5,x17,x4
    80004ecc:	01de85b3          	add	x11,x29,x29
    80004ed0:	00994733          	xor	x14,x18,x9
    80004ed4:	0087e633          	or	x12,x15,x8
    80004ed8:	013c42b3          	xor	x5,x24,x19
    80004edc:	0063e9b3          	or	x19,x7,x6
    80004ee0:	000c853b          	addw	x10,x25,x0
    80004ee4:	018f45b3          	xor	x11,x30,x24
    80004ee8:	41488c33          	sub	x24,x17,x20
    80004eec:	01b83433          	sltu	x8,x16,x27
    80004ef0:	014be8b3          	or	x17,x23,x20
    80004ef4:	00468cb3          	add	x25,x13,x4
    80004ef8:	415a853b          	subw	x10,x21,x21
    80004efc:	40d90bb3          	sub	x23,x18,x13
    80004f00:	003361b3          	or	x3,x6,x3
    80004f04:	00d28833          	add	x16,x5,x13
    80004f08:	007c82bb          	addw	x5,x25,x7
    80004f0c:	006a063b          	addw	x12,x20,x6
    80004f10:	0116b333          	sltu	x6,x13,x17
    80004f14:	0023cd33          	xor	x26,x7,x2
    80004f18:	008e05bb          	addw	x11,x28,x8
    80004f1c:	0008e633          	or	x12,x17,x0
    80004f20:	01ca34b3          	sltu	x9,x20,x28
    80004f24:	400c0bb3          	sub	x23,x24,x0
    80004f28:	015d6333          	or	x6,x26,x21
    80004f2c:	4112803b          	subw	x0,x5,x17
    80004f30:	411988bb          	subw	x17,x19,x17
    80004f34:	014e0dbb          	addw	x27,x28,x20
    80004f38:	00a22933          	slt	x18,x4,x10
    80004f3c:	407b8733          	sub	x14,x23,x7
    80004f40:	41f601b3          	sub	x3,x12,x31
    80004f44:	40fd07b3          	sub	x15,x26,x15
    80004f48:	41d6043b          	subw	x8,x12,x29
    80004f4c:	0146a133          	slt	x2,x13,x20
    80004f50:	01664633          	xor	x12,x12,x22
    80004f54:	01f18333          	add	x6,x3,x31
    80004f58:	00e5cab3          	xor	x21,x11,x14
    80004f5c:	40f50bbb          	subw	x23,x10,x15
    80004f60:	01166433          	or	x8,x12,x17
    80004f64:	01f0033b          	addw	x6,x0,x31
    80004f68:	00be72b3          	and	x5,x28,x11
    80004f6c:	01ddeeb3          	or	x29,x27,x29
    80004f70:	018abdb3          	sltu	x27,x21,x24
    80004f74:	404f8bbb          	subw	x23,x31,x4
    80004f78:	40f78f3b          	subw	x30,x15,x15
    80004f7c:	40370b3b          	subw	x22,x14,x3
    80004f80:	000503b3          	add	x7,x10,x0
    80004f84:	018eea33          	or	x20,x29,x24
    80004f88:	00674333          	xor	x6,x14,x6
    80004f8c:	017de833          	or	x16,x27,x23
    80004f90:	0003b133          	sltu	x2,x7,x0
    80004f94:	007d0bb3          	add	x23,x26,x7
    80004f98:	01c57533          	and	x10,x10,x28
    80004f9c:	4042043b          	subw	x8,x4,x4
    80004fa0:	01438633          	add	x12,x7,x20
    80004fa4:	01903cb3          	sltu	x25,x0,x25
    80004fa8:	00398d3b          	addw	x26,x19,x3
    80004fac:	015435b3          	sltu	x11,x8,x21
    80004fb0:	011831b3          	sltu	x3,x16,x17
    80004fb4:	019aaa33          	slt	x20,x21,x25
    80004fb8:	011b2b33          	slt	x22,x22,x17
    80004fbc:	015e6e33          	or	x28,x28,x21
    80004fc0:	40290933          	sub	x18,x18,x2
    80004fc4:	01570133          	add	x2,x14,x21
    80004fc8:	400408bb          	subw	x17,x8,x0
    80004fcc:	0197803b          	addw	x0,x15,x25
    80004fd0:	0169eeb3          	or	x29,x19,x22
    80004fd4:	40a28ab3          	sub	x21,x5,x10
    80004fd8:	40bc833b          	subw	x6,x25,x11
    80004fdc:	01a06cb3          	or	x25,x0,x26
    80004fe0:	0099c7b3          	xor	x15,x19,x9
    80004fe4:	01810c3b          	addw	x24,x2,x24
    80004fe8:	00d846b3          	xor	x13,x16,x13
    80004fec:	40ae8733          	sub	x14,x29,x10
    80004ff0:	005404b3          	add	x9,x8,x5
    80004ff4:	406c8b3b          	subw	x22,x25,x6
    80004ff8:	01340e3b          	addw	x28,x8,x19
    80004ffc:	00f706b3          	add	x13,x14,x15
    80005000:	00c18433          	add	x8,x3,x12
    80005004:	01af4933          	xor	x18,x30,x26
    80005008:	015d3233          	sltu	x4,x26,x21
    8000500c:	40ea09b3          	sub	x19,x20,x14
    80005010:	00702c33          	slt	x24,x0,x7
    80005014:	008833b3          	sltu	x7,x16,x8
    80005018:	00b7a2b3          	slt	x5,x15,x11
    8000501c:	011eb133          	sltu	x2,x29,x17
    80005020:	013fc533          	xor	x10,x31,x19
    80005024:	416803b3          	sub	x7,x16,x22
    80005028:	411f85b3          	sub	x11,x31,x17
    8000502c:	00dc26b3          	slt	x13,x24,x13
    80005030:	01b1b233          	sltu	x4,x3,x27
    80005034:	01bd28b3          	slt	x17,x26,x27
    80005038:	40e3043b          	subw	x8,x6,x14
    8000503c:	41a58033          	sub	x0,x11,x26
    80005040:	01d266b3          	or	x13,x4,x29
    80005044:	01454cb3          	xor	x25,x10,x20
    80005048:	402581bb          	subw	x3,x11,x2
    8000504c:	410b0e33          	sub	x28,x22,x16
    80005050:	41390733          	sub	x14,x18,x19
    80005054:	01af3133          	sltu	x2,x30,x26
    80005058:	405d8eb3          	sub	x29,x27,x5
    8000505c:	010ce233          	or	x4,x25,x16
    80005060:	015687b3          	add	x15,x13,x21
    80005064:	41200c3b          	subw	x24,x0,x18
    80005068:	0126b5b3          	sltu	x11,x13,x18
    8000506c:	01df84b3          	add	x9,x31,x29
    80005070:	00860633          	add	x12,x12,x8
    80005074:	0086ccb3          	xor	x25,x13,x8
    80005078:	007c3233          	sltu	x4,x24,x7
    8000507c:	010fe8b3          	or	x17,x31,x16
    80005080:	40698033          	sub	x0,x19,x6
    80005084:	01dec333          	xor	x6,x29,x29
    80005088:	01eac7b3          	xor	x15,x21,x30
    8000508c:	0124bcb3          	sltu	x25,x9,x18
    80005090:	0034a433          	slt	x8,x9,x3
    80005094:	01ce72b3          	and	x5,x28,x28
    80005098:	01f58833          	add	x16,x11,x31
    8000509c:	01eafa33          	and	x20,x21,x30
    800050a0:	019bfab3          	and	x21,x23,x25
    800050a4:	009d26b3          	slt	x13,x26,x9
    800050a8:	019735b3          	sltu	x11,x14,x25
    800050ac:	41eb0db3          	sub	x27,x22,x30
    800050b0:	412f8f33          	sub	x30,x31,x18
    800050b4:	40d602b3          	sub	x5,x12,x13
    800050b8:	40ac07b3          	sub	x15,x24,x10
    800050bc:	413583bb          	subw	x7,x11,x19
    800050c0:	002f7b33          	and	x22,x30,x2
    800050c4:	0059b5b3          	sltu	x11,x19,x5
    800050c8:	010f2433          	slt	x8,x30,x16
    800050cc:	007d0d33          	add	x26,x26,x7
    800050d0:	00af7ab3          	and	x21,x30,x10
    800050d4:	41db8db3          	sub	x27,x23,x29
    800050d8:	01832cb3          	slt	x25,x6,x24
    800050dc:	0025f1b3          	and	x3,x11,x2
    800050e0:	00c7c3b3          	xor	x7,x15,x12
    800050e4:	0062003b          	addw	x0,x4,x6
    800050e8:	01178d3b          	addw	x26,x15,x17
    800050ec:	004c8733          	add	x14,x25,x4
    800050f0:	00cb0bbb          	addw	x23,x22,x12
    800050f4:	01c24833          	xor	x16,x4,x28
    800050f8:	0058bf33          	sltu	x30,x17,x5
    800050fc:	0138a6b3          	slt	x13,x17,x19
    80005100:	01ad7fb3          	and	x31,x26,x26
    80005104:	00b7a3b3          	slt	x7,x15,x11
    80005108:	010e8933          	add	x18,x29,x16
    8000510c:	01d5cb33          	xor	x22,x11,x29
    80005110:	0082043b          	addw	x8,x4,x8
    80005114:	00facdb3          	xor	x27,x21,x15
    80005118:	01ae0bb3          	add	x23,x28,x26
    8000511c:	01a62c33          	slt	x24,x12,x26
    80005120:	015f75b3          	and	x11,x30,x21
    80005124:	01c02233          	slt	x4,x0,x28
    80005128:	00ab8733          	add	x14,x23,x10
    8000512c:	409b0cbb          	subw	x25,x22,x9
    80005130:	41aa84bb          	subw	x9,x21,x26
    80005134:	41720ab3          	sub	x21,x4,x23
    80005138:	01e07a33          	and	x20,x0,x30
    8000513c:	41a58f3b          	subw	x30,x11,x26
    80005140:	00c306bb          	addw	x13,x6,x12
    80005144:	419a8b3b          	subw	x22,x21,x25
    80005148:	41ae0e33          	sub	x28,x28,x26
    8000514c:	00b7bdb3          	sltu	x27,x15,x11
    80005150:	014275b3          	and	x11,x4,x20
    80005154:	008fc833          	xor	x16,x31,x8
    80005158:	0198e233          	or	x4,x17,x25
    8000515c:	017cc033          	xor	x0,x25,x23
    80005160:	01bec733          	xor	x14,x29,x27
    80005164:	00a60db3          	add	x27,x12,x10
    80005168:	01aa4233          	xor	x4,x20,x26
    8000516c:	003b093b          	addw	x18,x22,x3
    80005170:	01f1003b          	addw	x0,x2,x31
    80005174:	0103033b          	addw	x6,x6,x16
    80005178:	00ffaf33          	slt	x30,x31,x15
    8000517c:	015b05bb          	addw	x11,x22,x21
    80005180:	00ab84b3          	add	x9,x23,x10
    80005184:	01ac6c33          	or	x24,x24,x26
    80005188:	017db033          	sltu	x0,x27,x23
    8000518c:	002cb933          	sltu	x18,x25,x2
    80005190:	00413133          	sltu	x2,x2,x4
    80005194:	01174c33          	xor	x24,x14,x17
    80005198:	005a2eb3          	slt	x29,x20,x5
    8000519c:	41c983bb          	subw	x7,x19,x28
    800051a0:	00dfa333          	slt	x6,x31,x13
    800051a4:	01f1a433          	slt	x8,x3,x31
    800051a8:	000faf33          	slt	x30,x31,x0
    800051ac:	016ea7b3          	slt	x15,x29,x22
    800051b0:	411d8133          	sub	x2,x27,x17
    800051b4:	406a82b3          	sub	x5,x21,x6
    800051b8:	016da433          	slt	x8,x27,x22
    800051bc:	01118333          	add	x6,x3,x17
    800051c0:	00f2073b          	addw	x14,x4,x15
    800051c4:	404b89bb          	subw	x19,x23,x4
    800051c8:	01f20433          	add	x8,x4,x31
    800051cc:	012048b3          	xor	x17,x0,x18
    800051d0:	41728abb          	subw	x21,x5,x23
    800051d4:	01a28db3          	add	x27,x5,x26
    800051d8:	4122023b          	subw	x4,x4,x18
    800051dc:	009cb4b3          	sltu	x9,x25,x9
    800051e0:	01ec02b3          	add	x5,x24,x30
    800051e4:	418e0133          	sub	x2,x28,x24
    800051e8:	0067853b          	addw	x10,x15,x6
    800051ec:	00b703bb          	addw	x7,x14,x11
    800051f0:	015a0cb3          	add	x25,x20,x21
    800051f4:	005aa233          	slt	x4,x21,x5
    800051f8:	00690f3b          	addw	x30,x18,x6
    800051fc:	0168b3b3          	sltu	x7,x17,x22
    80005200:	0191033b          	addw	x6,x2,x25
    80005204:	00e5ccb3          	xor	x25,x11,x14
    80005208:	0155853b          	addw	x10,x11,x21
    8000520c:	40db863b          	subw	x12,x23,x13
