
./build/test:     file format elf64-littleriscv


Disassembly of section .text:

0000000080000000 <_start>:
    80000000:	14ba5d17          	auipc	x26,0x14ba5
    80000004:	78c86f93          	ori	x31,x16,1932
    80000008:	9b4bcf17          	auipc	x30,0x9b4bc
    8000000c:	01b95593          	srli	x11,x18,0x1b
    80000010:	478cc4b7          	lui	x9,0x478cc
    80000014:	410ad19b          	sraiw	x3,x21,0x10
    80000018:	32911637          	lui	x12,0x32911
    8000001c:	015fd11b          	srliw	x2,x31,0x15
    80000020:	338f1a17          	auipc	x20,0x338f1
    80000024:	e8b5f793          	andi	x15,x11,-373
    80000028:	855f3817          	auipc	x16,0x855f3
    8000002c:	87398e13          	addi	x28,x19,-1933
    80000030:	cc329cb7          	lui	x25,0xcc329
    80000034:	000dde9b          	srliw	x29,x27,0x0
    80000038:	aa90bd97          	auipc	x27,0xaa90b
    8000003c:	a0354b93          	xori	x23,x10,-1533
    80000040:	71832937          	lui	x18,0x71832
    80000044:	65524e13          	xori	x28,x4,1621
    80000048:	a3de3137          	lui	x2,0xa3de3
    8000004c:	42625813          	srai	x16,x4,0x26
    80000050:	3fe73c17          	auipc	x24,0x3fe73
    80000054:	41aed593          	srai	x11,x29,0x1a
    80000058:	2eea6797          	auipc	x15,0x2eea6
    8000005c:	22568e1b          	addiw	x28,x13,549
    80000060:	5e2404b7          	lui	x9,0x5e240
    80000064:	90e2ce93          	xori	x29,x5,-1778
    80000068:	235f2817          	auipc	x16,0x235f2
    8000006c:	c2ad2b93          	slti	x23,x26,-982
    80000070:	291640b7          	lui	x1,0x29164
    80000074:	0199de9b          	srliw	x29,x19,0x19
    80000078:	7893a897          	auipc	x17,0x7893a
    8000007c:	56bbcf93          	xori	x31,x23,1387
    80000080:	fc3d5717          	auipc	x14,0xfc3d5
    80000084:	016c1b1b          	slliw	x22,x24,0x16
    80000088:	3b0f1537          	lui	x10,0x3b0f1
    8000008c:	02abda13          	srli	x20,x23,0x2a
    80000090:	084c83b7          	lui	x7,0x84c8
    80000094:	00e1d49b          	srliw	x9,x3,0xe
    80000098:	57496e17          	auipc	x28,0x57496
    8000009c:	9fdef793          	andi	x15,x29,-1539
    800000a0:	4aef7db7          	lui	x27,0x4aef7
    800000a4:	0040d39b          	srliw	x7,x1,0x4
    800000a8:	6085c1b7          	lui	x3,0x6085c
    800000ac:	bd4a0e9b          	addiw	x29,x20,-1068 # ffffffffb38f0bf4 <_start+0xffffffff338f0bf4>
    800000b0:	bd82f117          	auipc	x2,0xbd82f
    800000b4:	8b1aa093          	slti	x1,x21,-1871
    800000b8:	3f6f23b7          	lui	x7,0x3f6f2
    800000bc:	007d5493          	srli	x9,x26,0x7
    800000c0:	d9eaba37          	lui	x20,0xd9eab
    800000c4:	051e819b          	addiw	x3,x29,81
    800000c8:	24d97437          	lui	x8,0x24d97
    800000cc:	01b6959b          	slliw	x11,x13,0x1b
    800000d0:	ef2bd0b7          	lui	x1,0xef2bd
    800000d4:	48520b13          	addi	x22,x4,1157 # 485 <_start-0x7ffffb7b>
    800000d8:	b79484b7          	lui	x9,0xb7948
    800000dc:	00aed89b          	srliw	x17,x29,0xa
    800000e0:	1db8ddb7          	lui	x27,0x1db8d
    800000e4:	40a2db9b          	sraiw	x23,x5,0xa
    800000e8:	805a1817          	auipc	x16,0x805a1
    800000ec:	d9872a13          	slti	x20,x14,-616
    800000f0:	d1df17b7          	lui	x15,0xd1df1
    800000f4:	1f790f1b          	addiw	x30,x18,503 # 718321f7 <_start-0xe7cde09>
    800000f8:	807a3617          	auipc	x12,0x807a3
    800000fc:	865c3993          	sltiu	x19,x24,-1947
    80000100:	287c5c97          	auipc	x25,0x287c5
    80000104:	0fc0fd13          	andi	x26,x1,252
    80000108:	f6b203b7          	lui	x7,0xf6b20
    8000010c:	37e57a13          	andi	x20,x10,894
    80000110:	9edf5c37          	lui	x24,0x9edf5
    80000114:	00a71d13          	slli	x26,x14,0xa
    80000118:	627669b7          	lui	x19,0x62766
    8000011c:	00f2d51b          	srliw	x10,x5,0xf
    80000120:	e571fb37          	lui	x22,0xe571f
    80000124:	035f9c93          	slli	x25,x31,0x35
    80000128:	d621c6b7          	lui	x13,0xd621c
    8000012c:	402c5b9b          	sraiw	x23,x24,0x2
    80000130:	20b5b7b7          	lui	x15,0x20b5b
    80000134:	6482ec93          	ori	x25,x5,1608
    80000138:	00091917          	auipc	x18,0x91
    8000013c:	1fc50813          	addi	x16,x10,508 # 3b0f11fc <_start-0x44f0ee04>
    80000140:	d48ce097          	auipc	x1,0xd48ce
    80000144:	aabbca13          	xori	x20,x23,-1365
    80000148:	cdbae037          	lui	x0,0xcdbae
    8000014c:	0006179b          	slliw	x15,x12,0x0
    80000150:	013500b7          	lui	x1,0x1350
    80000154:	006b199b          	slliw	x19,x22,0x6
    80000158:	65a3f237          	lui	x4,0x65a3f
    8000015c:	dd4ce513          	ori	x10,x25,-556
    80000160:	cb1bc8b7          	lui	x17,0xcb1bc
    80000164:	0110111b          	slliw	x2,x0,0x11
    80000168:	3b476e17          	auipc	x28,0x3b476
    8000016c:	31bb6293          	ori	x5,x22,795
    80000170:	4f12cf37          	lui	x30,0x4f12c
    80000174:	95a06e93          	ori	x29,x0,-1702
    80000178:	84f363b7          	lui	x7,0x84f36
    8000017c:	40565593          	srai	x11,x12,0x5
    80000180:	ead60c17          	auipc	x24,0xead60
    80000184:	00b6979b          	slliw	x15,x13,0xb
    80000188:	950296b7          	lui	x13,0x95029
    8000018c:	0af20213          	addi	x4,x4,175 # 65a3f0af <_start-0x1a5c0f51>
    80000190:	bc01d597          	auipc	x11,0xbc01d
    80000194:	0026511b          	srliw	x2,x12,0x2
    80000198:	53e58537          	lui	x10,0x53e58
    8000019c:	38c63a93          	sltiu	x21,x12,908
    800001a0:	42604997          	auipc	x19,0x42604
    800001a4:	fab86193          	ori	x3,x16,-85
    800001a8:	5bf2c537          	lui	x10,0x5bf2c
    800001ac:	42615d13          	srai	x26,x2,0x26
    800001b0:	a833de97          	auipc	x29,0xa833d
    800001b4:	b2e1e713          	ori	x14,x3,-1234
    800001b8:	ac95d817          	auipc	x16,0xac95d
    800001bc:	40755d9b          	sraiw	x27,x10,0x7
    800001c0:	fed70197          	auipc	x3,0xfed70
    800001c4:	02a51093          	slli	x1,x10,0x2a
    800001c8:	c04ae3b7          	lui	x7,0xc04ae
    800001cc:	40425b9b          	sraiw	x23,x4,0x4
    800001d0:	712e9437          	lui	x8,0x712e9
    800001d4:	b2300713          	addi	x14,x0,-1245
    800001d8:	94636997          	auipc	x19,0x94636
    800001dc:	01be5893          	srli	x17,x28,0x1b
    800001e0:	bc95f117          	auipc	x2,0xbc95f
    800001e4:	d54ac493          	xori	x9,x21,-684
    800001e8:	b78ff397          	auipc	x7,0xb78ff
    800001ec:	8e2ea193          	slti	x3,x29,-1822
    800001f0:	6743ad97          	auipc	x27,0x6743a
    800001f4:	03572893          	slti	x17,x14,53
    800001f8:	158e5b37          	lui	x22,0x158e5
    800001fc:	409a531b          	sraiw	x6,x20,0x9
    80000200:	eab473b7          	lui	x7,0xeab47
    80000204:	01399693          	slli	x13,x19,0x13
    80000208:	f9ce3b37          	lui	x22,0xf9ce3
    8000020c:	58b73a13          	sltiu	x20,x14,1419
    80000210:	a5198c17          	auipc	x24,0xa5198
    80000214:	019ad793          	srli	x15,x21,0x19
    80000218:	ae315037          	lui	x0,0xae315
    8000021c:	014fdd1b          	srliw	x26,x31,0x14
    80000220:	4bf6b117          	auipc	x2,0x4bf6b
    80000224:	cfde6a93          	ori	x21,x28,-771
    80000228:	96b94997          	auipc	x19,0x96b94
    8000022c:	01ee5c9b          	srliw	x25,x28,0x1e
    80000230:	2b565e37          	lui	x28,0x2b565
    80000234:	4080df13          	srai	x30,x1,0x8
    80000238:	14cdb237          	lui	x4,0x14cdb
    8000023c:	65ace013          	ori	x0,x25,1626
    80000240:	5245fe97          	auipc	x29,0x5245f
    80000244:	41df531b          	sraiw	x6,x30,0x1d
    80000248:	c3b3f917          	auipc	x18,0xc3b3f
    8000024c:	40b0d893          	srai	x17,x1,0xb
    80000250:	da4cbd37          	lui	x26,0xda4cb
    80000254:	41a4d31b          	sraiw	x6,x9,0x1a
    80000258:	c6f28f17          	auipc	x30,0xc6f28
    8000025c:	8a74099b          	addiw	x19,x8,-1881 # 712e88a7 <_start-0xed17759>
    80000260:	5d2b0cb7          	lui	x25,0x5d2b0
    80000264:	02496813          	ori	x16,x18,36
    80000268:	fcad5117          	auipc	x2,0xfcad5
    8000026c:	50e56e93          	ori	x29,x10,1294
    80000270:	c471ad97          	auipc	x27,0xc471a
    80000274:	c13a8313          	addi	x6,x21,-1005
    80000278:	ab054537          	lui	x10,0xab054
    8000027c:	55f88093          	addi	x1,x17,1375 # ffffffffcb1bc55f <_start+0xffffffff4b1bc55f>
    80000280:	29ca0937          	lui	x18,0x29ca0
    80000284:	01629c9b          	slliw	x25,x5,0x16
    80000288:	eebc1117          	auipc	x2,0xeebc1
    8000028c:	00c09793          	slli	x15,x1,0xc
    80000290:	4d801d97          	auipc	x27,0x4d801
    80000294:	c3fa8093          	addi	x1,x21,-961
    80000298:	b17e7217          	auipc	x4,0xb17e7
    8000029c:	7b0e4713          	xori	x14,x28,1968
    800002a0:	1ecd6fb7          	lui	x31,0x1ecd6
    800002a4:	2cf80c1b          	addiw	x24,x16,719 # 2c95d487 <_start-0x536a2b79>
    800002a8:	97bffb37          	lui	x22,0x97bff
    800002ac:	41825e9b          	sraiw	x29,x4,0x18
    800002b0:	3e3c1c97          	auipc	x25,0x3e3c1
    800002b4:	418ddf13          	srai	x30,x27,0x18
    800002b8:	c8b7ad37          	lui	x26,0xc8b7a
    800002bc:	018c5593          	srli	x11,x24,0x18
    800002c0:	2692e617          	auipc	x12,0x2692e
    800002c4:	78e08f93          	addi	x31,x1,1934 # 135078e <_start-0x7ecaf872>
    800002c8:	0da5df17          	auipc	x30,0xda5d
    800002cc:	41b9db13          	srai	x22,x19,0x1b
    800002d0:	d718c137          	lui	x2,0xd718c
    800002d4:	41225513          	srai	x10,x4,0x12
    800002d8:	d817cf97          	auipc	x31,0xd817c
    800002dc:	a037a213          	slti	x4,x15,-1533
    800002e0:	4ff3c7b7          	lui	x15,0x4ff3c
    800002e4:	01cdd01b          	srliw	x0,x27,0x1c
    800002e8:	d5839c17          	auipc	x24,0xd5839
    800002ec:	262f0893          	addi	x17,x30,610 # 8da5d52a <_start+0xda5d52a>
    800002f0:	b47b4197          	auipc	x3,0xb47b4
    800002f4:	8f062213          	slti	x4,x12,-1808
    800002f8:	5b16b697          	auipc	x13,0x5b16b
    800002fc:	3b448e93          	addi	x29,x9,948 # ffffffffb79483b4 <_start+0xffffffff379483b4>
    80000300:	495d7ab7          	lui	x21,0x495d7
    80000304:	bf134013          	xori	x0,x6,-1039
    80000308:	bcfea537          	lui	x10,0xbcfea
    8000030c:	00eb509b          	srliw	x1,x22,0xe
    80000310:	e878f3b7          	lui	x7,0xe878f
    80000314:	04372913          	slti	x18,x14,67
    80000318:	6a8eb037          	lui	x0,0x6a8eb
    8000031c:	15d8f613          	andi	x12,x17,349
    80000320:	276a6f93          	ori	x31,x20,630
    80000324:	295fca37          	lui	x20,0x295fc
    80000328:	40998933          	sub	x18,x19,x9
    8000032c:	cb3f3613          	sltiu	x12,x30,-845
    80000330:	72152e37          	lui	x28,0x72152
    80000334:	007388bb          	addw	x17,x7,x7
    80000338:	4174d29b          	sraiw	x5,x9,0x17
    8000033c:	17aedb97          	auipc	x23,0x17aed
    80000340:	000ad23b          	srlw	x4,x21,x0
    80000344:	009c9113          	slli	x2,x25,0x9
    80000348:	994937b7          	lui	x15,0x99493
    8000034c:	006d3833          	sltu	x16,x26,x6
    80000350:	3585071b          	addiw	x14,x10,856 # ffffffffbcfea358 <_start+0xffffffff3cfea358>
    80000354:	e3be43b7          	lui	x7,0xe3be4
    80000358:	013bd633          	srl	x12,x23,x19
    8000035c:	84580793          	addi	x15,x16,-1979
    80000360:	a42efd17          	auipc	x26,0xa42ef
    80000364:	0095a333          	slt	x6,x11,x9
    80000368:	00d2d113          	srli	x2,x5,0xd
    8000036c:	4ec93217          	auipc	x4,0x4ec93
    80000370:	00f89cbb          	sllw	x25,x17,x15
    80000374:	5d07bd93          	sltiu	x27,x15,1488
    80000378:	e82a3437          	lui	x8,0xe82a3
    8000037c:	00c208bb          	addw	x17,x4,x12
    80000380:	00bb5b13          	srli	x22,x22,0xb
    80000384:	68437d97          	auipc	x27,0x68437
    80000388:	018ef033          	and	x0,x29,x24
    8000038c:	0007da13          	srli	x20,x15,0x0
    80000390:	3a9a2537          	lui	x10,0x3a9a2
    80000394:	01359bbb          	sllw	x23,x11,x19
    80000398:	7157021b          	addiw	x4,x14,1813 # 7c3d5795 <_start-0x3c2a86b>
    8000039c:	fecfdc37          	lui	x24,0xfecfd
    800003a0:	01b9143b          	sllw	x8,x18,x27
    800003a4:	002b1513          	slli	x10,x22,0x2
    800003a8:	14c294b7          	lui	x9,0x14c29
    800003ac:	013785b3          	add	x11,x15,x19
    800003b0:	63a78c9b          	addiw	x25,x15,1594 # ffffffff9949363a <_start+0xffffffff1949363a>
    800003b4:	8155dd37          	lui	x26,0x8155d
    800003b8:	01bf04bb          	addw	x9,x30,x27
    800003bc:	005a131b          	slliw	x6,x20,0x5
    800003c0:	8664a137          	lui	x2,0x8664a
    800003c4:	0046fa33          	and	x20,x13,x4
    800003c8:	4144df13          	srai	x30,x9,0x14
    800003cc:	94528737          	lui	x14,0x94528
    800003d0:	013278b3          	and	x17,x4,x19
    800003d4:	40d35b13          	srai	x22,x6,0xd
    800003d8:	ce8c2b97          	auipc	x23,0xce8c2
    800003dc:	41cfddb3          	sra	x27,x31,x28
    800003e0:	3e576493          	ori	x9,x14,997
    800003e4:	3f20f2b7          	lui	x5,0x3f20f
    800003e8:	40e751b3          	sra	x3,x14,x14
    800003ec:	1913089b          	addiw	x17,x6,401
    800003f0:	f2013b97          	auipc	x23,0xf2013
    800003f4:	4103d733          	sra	x14,x7,x16
    800003f8:	02895c93          	srli	x25,x18,0x28
    800003fc:	1ed56a97          	auipc	x21,0x1ed56
    80000400:	01a224b3          	slt	x9,x4,x26
    80000404:	01bfd093          	srli	x1,x31,0x1b
    80000408:	f16c36b7          	lui	x13,0xf16c3
    8000040c:	41e00fbb          	subw	x31,x0,x30
    80000410:	40abd193          	srai	x3,x23,0xa
    80000414:	b8f97017          	auipc	x0,0xb8f97
    80000418:	001a82b3          	add	x5,x21,x1
    8000041c:	15cbef13          	ori	x30,x23,348
    80000420:	936ac337          	lui	x6,0x936ac
    80000424:	0107e1b3          	or	x3,x15,x16
    80000428:	00a7561b          	srliw	x12,x14,0xa
    8000042c:	dedbb817          	auipc	x16,0xdedbb
    80000430:	005cc8b3          	xor	x17,x25,x5
    80000434:	41a25513          	srai	x10,x4,0x1a
    80000438:	b2c607b7          	lui	x15,0xb2c60
    8000043c:	01c716bb          	sllw	x13,x14,x28
    80000440:	01cd5713          	srli	x14,x26,0x1c
    80000444:	6895e8b7          	lui	x17,0x6895e
    80000448:	01f09cb3          	sll	x25,x1,x31
    8000044c:	00a39093          	slli	x1,x7,0xa
    80000450:	1d2dd637          	lui	x12,0x1d2dd
    80000454:	406bdb33          	sra	x22,x23,x6
    80000458:	ac554a93          	xori	x21,x10,-1339
    8000045c:	b4c5bd97          	auipc	x27,0xb4c5b
    80000460:	4140873b          	subw	x14,x1,x20
    80000464:	01bbd89b          	srliw	x17,x23,0x1b
    80000468:	826ee817          	auipc	x16,0x826ee
    8000046c:	40a35933          	sra	x18,x6,x10
    80000470:	9ae0e093          	ori	x1,x1,-1618
    80000474:	01fbd637          	lui	x12,0x1fbd
    80000478:	00507bb3          	and	x23,x0,x5
    8000047c:	f1b7ae13          	slti	x28,x15,-229
    80000480:	71235917          	auipc	x18,0x71235
    80000484:	01452333          	slt	x6,x10,x20
    80000488:	abdfaa93          	slti	x21,x31,-1347
    8000048c:	e9575597          	auipc	x11,0xe9575
    80000490:	4004d63b          	sraw	x12,x9,x0
    80000494:	42f35093          	srai	x1,x6,0x2f
    80000498:	b105c3b7          	lui	x7,0xb105c
    8000049c:	00a46eb3          	or	x29,x8,x10
    800004a0:	013c9c9b          	slliw	x25,x25,0x13
    800004a4:	c4f3b897          	auipc	x17,0xc4f3b
    800004a8:	01e5f7b3          	and	x15,x11,x30
    800004ac:	0130d39b          	srliw	x7,x1,0x13
    800004b0:	ebff2037          	lui	x0,0xebff2
    800004b4:	0028ad33          	slt	x26,x17,x2
    800004b8:	41d8d79b          	sraiw	x15,x17,0x1d
    800004bc:	2bd5d217          	auipc	x4,0x2bd5d
    800004c0:	41d18433          	sub	x8,x3,x29
    800004c4:	40d8529b          	sraiw	x5,x16,0xd
    800004c8:	277f5b17          	auipc	x22,0x277f5
    800004cc:	01b9d7bb          	srlw	x15,x19,x27
    800004d0:	01f31093          	slli	x1,x6,0x1f
    800004d4:	41946417          	auipc	x8,0x41946
    800004d8:	00d55f3b          	srlw	x30,x10,x13
    800004dc:	12227793          	andi	x15,x4,290
    800004e0:	97e15c37          	lui	x24,0x97e15
    800004e4:	0148973b          	sllw	x14,x17,x20
    800004e8:	021b5993          	srli	x19,x22,0x21
    800004ec:	087a5397          	auipc	x7,0x87a5
    800004f0:	419e0b33          	sub	x22,x28,x25
    800004f4:	544d2293          	slti	x5,x26,1348
    800004f8:	91b17437          	lui	x8,0x91b17
    800004fc:	400c5d3b          	sraw	x26,x24,x0
    80000500:	01b9599b          	srliw	x19,x18,0x1b
    80000504:	c4f6b1b7          	lui	x3,0xc4f6b
    80000508:	019254b3          	srl	x9,x4,x25
    8000050c:	1074069b          	addiw	x13,x8,263 # ffffffff91b17107 <_start+0xffffffff11b17107>
    80000510:	7af31d37          	lui	x26,0x7af31
    80000514:	41750933          	sub	x18,x10,x23
    80000518:	75e5f393          	andi	x7,x11,1886
    8000051c:	57bf6a17          	auipc	x20,0x57bf6
    80000520:	01304e33          	xor	x28,x0,x19
    80000524:	40365593          	srai	x11,x12,0x3
    80000528:	ca899fb7          	lui	x31,0xca899
    8000052c:	0028c2b3          	xor	x5,x17,x2
    80000530:	7e53bd13          	sltiu	x26,x7,2021
    80000534:	43a65437          	lui	x8,0x43a65
    80000538:	00edd4bb          	srlw	x9,x27,x14
    8000053c:	c3da7a93          	andi	x21,x20,-963
    80000540:	374d9f97          	auipc	x31,0x374d9
    80000544:	01101e33          	sll	x28,x0,x17
    80000548:	6947859b          	addiw	x11,x15,1684 # ffffffffb2c60694 <_start+0xffffffff32c60694>
    8000054c:	70ad7017          	auipc	x0,0x70ad7
    80000550:	01733b33          	sltu	x22,x6,x23
    80000554:	03dd5e13          	srli	x28,x26,0x3d
    80000558:	2854dc17          	auipc	x24,0x2854d
    8000055c:	00c9f233          	and	x4,x19,x12
    80000560:	014ed39b          	srliw	x7,x29,0x14
    80000564:	1e4ce717          	auipc	x14,0x1e4ce
    80000568:	01a660b3          	or	x1,x12,x26
    8000056c:	01c6549b          	srliw	x9,x12,0x1c
    80000570:	b0374537          	lui	x10,0xb0374
    80000574:	00065333          	srl	x6,x12,x0
    80000578:	9dca7a93          	andi	x21,x20,-1572
    8000057c:	0b41e6b7          	lui	x13,0xb41e
    80000580:	0000abb3          	slt	x23,x1,x0
    80000584:	f3904093          	xori	x1,x0,-199
    80000588:	1ff3a197          	auipc	x3,0x1ff3a
    8000058c:	00678c3b          	addw	x24,x15,x6
    80000590:	c8b7c813          	xori	x16,x15,-885
    80000594:	5a974517          	auipc	x10,0x5a974
    80000598:	01cd55b3          	srl	x11,x26,x28
    8000059c:	0007579b          	srliw	x15,x14,0x0
    800005a0:	87090f97          	auipc	x31,0x87090
    800005a4:	019db9b3          	sltu	x19,x27,x25
    800005a8:	00271c1b          	slliw	x24,x14,0x2
    800005ac:	c7d546b7          	lui	x13,0xc7d54
    800005b0:	0048c033          	xor	x0,x17,x4
    800005b4:	cbdb8f1b          	addiw	x30,x23,-835 # 720130ad <_start-0xdfecf53>
    800005b8:	7989e5b7          	lui	x11,0x7989e
    800005bc:	006e5e3b          	srlw	x28,x28,x6
    800005c0:	d67d4013          	xori	x0,x26,-665
    800005c4:	282fac37          	lui	x24,0x282fa
    800005c8:	404a0f3b          	subw	x30,x20,x4
    800005cc:	ccd78a9b          	addiw	x21,x15,-819
    800005d0:	ae354437          	lui	x8,0xae354
    800005d4:	00dc9cbb          	sllw	x25,x25,x13
    800005d8:	929f8b13          	addi	x22,x31,-1751 # 708fec9 <_start-0x78f70137>
    800005dc:	b77ba117          	auipc	x2,0xb77ba
    800005e0:	00f2fbb3          	and	x23,x5,x15
    800005e4:	d3164893          	xori	x17,x12,-719
    800005e8:	8a286597          	auipc	x11,0x8a286
    800005ec:	0006983b          	sllw	x16,x13,x0
    800005f0:	139fe993          	ori	x19,x31,313
    800005f4:	865f6097          	auipc	x1,0x865f6
    800005f8:	40f15c3b          	sraw	x24,x2,x15
    800005fc:	03321d13          	slli	x26,x4,0x33
    80000600:	1a30a817          	auipc	x16,0x1a30a
    80000604:	001c8433          	add	x8,x25,x1
    80000608:	145beb93          	ori	x23,x23,325
    8000060c:	ae393db7          	lui	x27,0xae393
    80000610:	40648ebb          	subw	x29,x9,x6
    80000614:	fc352913          	slti	x18,x10,-61
    80000618:	4e5d5297          	auipc	x5,0x4e5d5
    8000061c:	01cc8f3b          	addw	x30,x25,x28
    80000620:	9a3e0a13          	addi	x20,x28,-1629 # 721519a3 <_start-0xdeae65d>
    80000624:	b9f47637          	lui	x12,0xb9f47
    80000628:	00a4fb33          	and	x22,x9,x10
    8000062c:	0376de13          	srli	x28,x13,0x37
    80000630:	48118037          	lui	x0,0x48118
    80000634:	00579133          	sll	x2,x15,x5
    80000638:	75fcf093          	andi	x1,x25,1887
    8000063c:	60144d17          	auipc	x26,0x60144
    80000640:	40a789b3          	sub	x19,x15,x10
    80000644:	a0633893          	sltiu	x17,x6,-1530
    80000648:	3858fa37          	lui	x20,0x3858f
    8000064c:	012e3bb3          	sltu	x23,x28,x18
    80000650:	5e8d861b          	addiw	x12,x27,1512 # ffffffffae3935e8 <_start+0xffffffff2e3935e8>
    80000654:	91e6a497          	auipc	x9,0x91e6a
    80000658:	01dd87b3          	add	x15,x27,x29
    8000065c:	0144541b          	srliw	x8,x8,0x14
    80000660:	dd074317          	auipc	x6,0xdd074
    80000664:	000f123b          	sllw	x4,x30,x0
    80000668:	4182d99b          	sraiw	x19,x5,0x18
    8000066c:	129ef817          	auipc	x16,0x129ef
    80000670:	016bb733          	sltu	x14,x23,x22
    80000674:	40edde1b          	sraiw	x28,x27,0xe
    80000678:	512915b7          	lui	x11,0x51291
    8000067c:	00cb5333          	srl	x6,x22,x12
    80000680:	00189c1b          	slliw	x24,x17,0x1
    80000684:	7bf1da37          	lui	x20,0x7bf1d
    80000688:	00edf2b3          	and	x5,x27,x14
    8000068c:	f937a993          	slti	x19,x15,-109
    80000690:	336a7f17          	auipc	x30,0x336a7
    80000694:	0027e333          	or	x6,x15,x2
    80000698:	02269b13          	slli	x22,x13,0x22
    8000069c:	b65b0717          	auipc	x14,0xb65b0
    800006a0:	00a115b3          	sll	x11,x2,x10
    800006a4:	00400893          	addi	x17,x0,4
    800006a8:	cbb95db7          	lui	x27,0xcbb95
    800006ac:	416d073b          	subw	x14,x26,x22
    800006b0:	00261b9b          	slliw	x23,x12,0x2
    800006b4:	40edb597          	auipc	x11,0x40edb
    800006b8:	00a41cb3          	sll	x25,x8,x10
    800006bc:	c5480693          	addi	x13,x16,-940 # 929ef2c0 <_start+0x129ef2c0>
    800006c0:	b1e2d137          	lui	x2,0xb1e2d
    800006c4:	0071803b          	addw	x0,x3,x7
    800006c8:	01ec529b          	srliw	x5,x24,0x1e
    800006cc:	0cffd6b7          	lui	x13,0xcffd
    800006d0:	006f87bb          	addw	x15,x31,x6
    800006d4:	41a4db9b          	sraiw	x23,x9,0x1a
    800006d8:	4b83bab7          	lui	x21,0x4b83b
    800006dc:	41148f3b          	subw	x30,x9,x17
    800006e0:	c4920293          	addi	x5,x4,-951 # abd5d105 <_start+0x2bd5d105>
    800006e4:	17eadc17          	auipc	x24,0x17ead
    800006e8:	4018de33          	sra	x28,x17,x1
    800006ec:	431cdb93          	srai	x23,x25,0x31
    800006f0:	2a64a5b7          	lui	x11,0x2a64a
    800006f4:	41d28933          	sub	x18,x5,x29
    800006f8:	059e6313          	ori	x6,x28,89
    800006fc:	81fcdc97          	auipc	x25,0x81fcd
    80000700:	00f894bb          	sllw	x9,x17,x15
    80000704:	65cfbd93          	sltiu	x27,x31,1628
    80000708:	5a9b40b7          	lui	x1,0x5a9b4
    8000070c:	01f15933          	srl	x18,x2,x31
    80000710:	404ed59b          	sraiw	x11,x29,0x4
    80000714:	e9c09bb7          	lui	x23,0xe9c09
    80000718:	00fe13b3          	sll	x7,x28,x15
    8000071c:	42acd293          	srai	x5,x25,0x2a
    80000720:	1d44a8b7          	lui	x17,0x1d44a
    80000724:	013eb133          	sltu	x2,x29,x19
    80000728:	a8fef013          	andi	x0,x29,-1393
    8000072c:	b46347b7          	lui	x15,0xb4634
    80000730:	01d618b3          	sll	x17,x12,x29
    80000734:	00f61993          	slli	x19,x12,0xf
    80000738:	0ba2a537          	lui	x10,0xba2a
    8000073c:	00024d33          	xor	x26,x4,x0
    80000740:	e2faff93          	andi	x31,x21,-465
    80000744:	1fc39737          	lui	x14,0x1fc39
    80000748:	40cdd4b3          	sra	x9,x27,x12
    8000074c:	d61d0a93          	addi	x21,x26,-671 # e014439d <_start+0x6014439d>
    80000750:	27a3de97          	auipc	x29,0x27a3d
    80000754:	40c780bb          	subw	x1,x15,x12
    80000758:	02fa0f9b          	addiw	x31,x20,47 # 7bf1d02f <_start-0x40e2fd1>
    8000075c:	e8433997          	auipc	x19,0xe8433
    80000760:	40f0033b          	subw	x6,x0,x15
    80000764:	4183d49b          	sraiw	x9,x7,0x18
    80000768:	314ee6b7          	lui	x13,0x314ee
    8000076c:	40070033          	sub	x0,x14,x0
    80000770:	86fb3793          	sltiu	x15,x22,-1937
    80000774:	fdf7d897          	auipc	x17,0xfdf7d
    80000778:	002f21b3          	slt	x3,x30,x2
    8000077c:	4216df13          	srai	x30,x13,0x21
    80000780:	3101fb37          	lui	x22,0x3101f
    80000784:	00b15e3b          	srlw	x28,x2,x11
    80000788:	90e7f193          	andi	x3,x15,-1778
    8000078c:	92fc58b7          	lui	x17,0x92fc5
    80000790:	00b68033          	add	x0,x13,x11
    80000794:	cb3cba13          	sltiu	x20,x25,-845
    80000798:	51653337          	lui	x6,0x51653
    8000079c:	01f4dc33          	srl	x24,x9,x31
    800007a0:	7740059b          	addiw	x11,x0,1908
    800007a4:	73ee0097          	auipc	x1,0x73ee0
    800007a8:	00c56b33          	or	x22,x10,x12
    800007ac:	f3b6b413          	sltiu	x8,x13,-197
    800007b0:	d76c4fb7          	lui	x31,0xd76c4
    800007b4:	013f2633          	slt	x12,x30,x19
    800007b8:	86ea3713          	sltiu	x14,x20,-1938
    800007bc:	02e2da37          	lui	x20,0x2e2d
    800007c0:	01ccd6b3          	srl	x13,x25,x28
    800007c4:	8ce03213          	sltiu	x4,x0,-1842
    800007c8:	01e48917          	auipc	x18,0x1e48
    800007cc:	003d80b3          	add	x1,x27,x3
    800007d0:	ce630b1b          	addiw	x22,x6,-794 # 51652ce6 <_start-0x2e9ad31a>
    800007d4:	0d89ce17          	auipc	x28,0xd89c
    800007d8:	4179873b          	subw	x14,x19,x23
    800007dc:	c693fc13          	andi	x24,x7,-919
    800007e0:	6eee6897          	auipc	x17,0x6eee6
    800007e4:	00413633          	sltu	x12,x2,x4
    800007e8:	02cb9a13          	slli	x20,x23,0x2c
    800007ec:	df400737          	lui	x14,0xdf400
    800007f0:	0076e8b3          	or	x17,x13,x7
    800007f4:	03db9393          	slli	x7,x23,0x3d
    800007f8:	23564a97          	auipc	x21,0x23564
    800007fc:	01f4d4bb          	srlw	x9,x9,x31
    80000800:	4029d693          	srai	x13,x19,0x2
    80000804:	795a4f97          	auipc	x31,0x795a4
    80000808:	00baf0b3          	and	x1,x21,x11
    8000080c:	406b571b          	sraiw	x14,x22,0x6
    80000810:	c8ec82b7          	lui	x5,0xc8ec8
    80000814:	01a80db3          	add	x27,x16,x26
    80000818:	03a19793          	slli	x15,x3,0x3a
    8000081c:	56d6f317          	auipc	x6,0x56d6f
    80000820:	005708bb          	addw	x17,x14,x5
    80000824:	b9950f1b          	addiw	x30,x10,-1127 # ba29b99 <_start-0x745d6467>
    80000828:	490f1617          	auipc	x12,0x490f1
    8000082c:	010d55b3          	srl	x11,x26,x16
    80000830:	003d191b          	slliw	x18,x26,0x3
    80000834:	83e86fb7          	lui	x31,0x83e86
    80000838:	00aa4cb3          	xor	x25,x20,x10
    8000083c:	953ae613          	ori	x12,x21,-1709
    80000840:	dcc7f917          	auipc	x18,0xdcc7f
    80000844:	00870bb3          	add	x23,x14,x8
    80000848:	02c31d13          	slli	x26,x6,0x2c
    8000084c:	38791237          	lui	x4,0x38791
    80000850:	00031633          	sll	x12,x6,x0
    80000854:	03b71a13          	slli	x20,x14,0x3b
    80000858:	27d8abb7          	lui	x23,0x27d8a
    8000085c:	01a9173b          	sllw	x14,x18,x26
    80000860:	4132d213          	srai	x4,x5,0x13
    80000864:	74dd1337          	lui	x6,0x74dd1
    80000868:	01d289b3          	add	x19,x5,x29
    8000086c:	024fd693          	srli	x13,x31,0x24
    80000870:	3ca91c17          	auipc	x24,0x3ca91
    80000874:	00ee9f3b          	sllw	x30,x29,x14
    80000878:	40a45e9b          	sraiw	x29,x8,0xa
    8000087c:	a9e05a17          	auipc	x20,0xa9e05
    80000880:	00c23bb3          	sltu	x23,x4,x12
    80000884:	0138dc9b          	srliw	x25,x17,0x13
    80000888:	c1d37fb7          	lui	x31,0xc1d37
    8000088c:	0107863b          	addw	x12,x15,x16
    80000890:	b2076713          	ori	x14,x14,-1248
    80000894:	02848237          	lui	x4,0x2848
    80000898:	019b9b33          	sll	x22,x23,x25
    8000089c:	41acd193          	srai	x3,x25,0x1a
    800008a0:	56579537          	lui	x10,0x56579
    800008a4:	401e013b          	subw	x2,x28,x1
    800008a8:	396f8293          	addi	x5,x31,918 # ffffffffc1d37396 <_start+0xffffffff41d37396>
    800008ac:	375e0697          	auipc	x13,0x375e0
    800008b0:	015758b3          	srl	x17,x14,x21
    800008b4:	01fc549b          	srliw	x9,x24,0x1f
    800008b8:	27e6d2b7          	lui	x5,0x27e6d
    800008bc:	01f99f3b          	sllw	x30,x19,x31
    800008c0:	d56e3013          	sltiu	x0,x28,-682
    800008c4:	6a89ea97          	auipc	x21,0x6a89e
    800008c8:	00dbac33          	slt	x24,x23,x13
    800008cc:	c4b9e093          	ori	x1,x19,-949
    800008d0:	e1c5d317          	auipc	x6,0xe1c5d
    800008d4:	01c71133          	sll	x2,x14,x28
    800008d8:	4f7aab93          	slti	x23,x21,1271
    800008dc:	e93a8497          	auipc	x9,0xe93a8
    800008e0:	004a88b3          	add	x17,x21,x4
    800008e4:	7b096e93          	ori	x29,x18,1968
    800008e8:	87d65817          	auipc	x16,0x87d65
    800008ec:	00b9c3b3          	xor	x7,x19,x11
    800008f0:	c98f3513          	sltiu	x10,x30,-872
    800008f4:	23115117          	auipc	x2,0x23115
    800008f8:	010aa7b3          	slt	x15,x21,x16
    800008fc:	43d4d193          	srai	x3,x9,0x3d
    80000900:	38c45eb7          	lui	x29,0x38c45
    80000904:	01b672b3          	and	x5,x12,x27
    80000908:	9d0ba313          	slti	x6,x23,-1584
    8000090c:	65a22a37          	lui	x20,0x65a22
    80000910:	00ef00b3          	add	x1,x30,x14
    80000914:	43eddc93          	srai	x25,x27,0x3e
    80000918:	b1cec837          	lui	x16,0xb1cec
    8000091c:	01e5ddbb          	srlw	x27,x11,x30
    80000920:	fbb02b13          	slti	x22,x0,-69
    80000924:	9f7c57b7          	lui	x15,0x9f7c5
    80000928:	010073b3          	and	x7,x0,x16
    8000092c:	aee5f913          	andi	x18,x11,-1298
    80000930:	d836d537          	lui	x10,0xd836d
    80000934:	00e6ed33          	or	x26,x13,x14
    80000938:	4123d21b          	sraiw	x4,x7,0x12
    8000093c:	f6554cb7          	lui	x25,0xf6554
    80000940:	00ce5fb3          	srl	x31,x28,x12
    80000944:	c23a6693          	ori	x13,x20,-989
    80000948:	b5ca4637          	lui	x12,0xb5ca4
    8000094c:	0078beb3          	sltu	x29,x17,x7
    80000950:	01659c1b          	slliw	x24,x11,0x16
    80000954:	b7eae417          	auipc	x8,0xb7eae
    80000958:	417d0d3b          	subw	x26,x26,x23
    8000095c:	7591ef13          	ori	x30,x3,1881
    80000960:	e4586197          	auipc	x3,0xe4586
    80000964:	01844633          	xor	x12,x8,x24
    80000968:	f518b593          	sltiu	x11,x17,-175
    8000096c:	c48f6c37          	lui	x24,0xc48f6
    80000970:	4109083b          	subw	x16,x18,x16
    80000974:	f0fa8e9b          	addiw	x29,x21,-241 # ffffffffea89e7d3 <_start+0xffffffff6a89e7d3>
    80000978:	9f565897          	auipc	x17,0x9f565
    8000097c:	012523b3          	slt	x7,x10,x18
    80000980:	01e1101b          	slliw	x0,x2,0x1e
    80000984:	746ae717          	auipc	x14,0x746ae
    80000988:	0151583b          	srlw	x16,x2,x21
    8000098c:	4057d11b          	sraiw	x2,x15,0x5
    80000990:	a753d397          	auipc	x7,0xa753d
    80000994:	01c34233          	xor	x4,x6,x28
    80000998:	00e0571b          	srliw	x14,x0,0xe
    8000099c:	c3ed9037          	lui	x0,0xc3ed9
    800009a0:	005330b3          	sltu	x1,x6,x5
    800009a4:	a9c40b1b          	addiw	x22,x8,-1380 # 37eae3f0 <_start-0x48151c10>
    800009a8:	00c3f417          	auipc	x8,0xc3f
    800009ac:	01eabfb3          	sltu	x31,x21,x30
    800009b0:	01691113          	slli	x2,x18,0x16
    800009b4:	d4b294b7          	lui	x9,0xd4b29
    800009b8:	400d88bb          	subw	x17,x27,x0
    800009bc:	00571393          	slli	x7,x14,0x5
    800009c0:	b1b2f017          	auipc	x0,0xb1b2f
    800009c4:	40ced6b3          	sra	x13,x29,x12
    800009c8:	008b989b          	slliw	x17,x23,0x8
    800009cc:	34de14b7          	lui	x9,0x34de1
    800009d0:	400451b3          	sra	x3,x8,x0
    800009d4:	008b529b          	srliw	x5,x22,0x8
    800009d8:	a39a5417          	auipc	x8,0xa39a5
    800009dc:	0139e833          	or	x16,x19,x19
    800009e0:	7301aa13          	slti	x20,x3,1840
    800009e4:	e537b937          	lui	x18,0xe537b
    800009e8:	013722b3          	slt	x5,x14,x19
    800009ec:	02477213          	andi	x4,x14,36
    800009f0:	abd2e117          	auipc	x2,0xabd2e
    800009f4:	00af5ebb          	srlw	x29,x30,x10
    800009f8:	03d6d493          	srli	x9,x13,0x3d
    800009fc:	e4dd0017          	auipc	x0,0xe4dd0
    80000a00:	4130dfb3          	sra	x31,x1,x19
    80000a04:	039d1d13          	slli	x26,x26,0x39
    80000a08:	7b6c2737          	lui	x14,0x7b6c2
    80000a0c:	00487833          	and	x16,x16,x4
    80000a10:	3844c793          	xori	x15,x9,900
    80000a14:	4c309b17          	auipc	x22,0x4c309
    80000a18:	002c593b          	srlw	x18,x24,x2
    80000a1c:	bed8c493          	xori	x9,x17,-1043
    80000a20:	af84e237          	lui	x4,0xaf84e
    80000a24:	016f0633          	add	x12,x30,x22
    80000a28:	41ddd31b          	sraiw	x6,x27,0x1d
    80000a2c:	60114c17          	auipc	x24,0x60114
    80000a30:	405388bb          	subw	x17,x7,x5
    80000a34:	02be1093          	slli	x1,x28,0x2b
    80000a38:	a7f65d37          	lui	x26,0xa7f65
    80000a3c:	0189c933          	xor	x18,x19,x24
    80000a40:	cde70a1b          	addiw	x20,x14,-802 # 7b6c1cde <_start-0x493e322>
    80000a44:	6d3fcf97          	auipc	x31,0x6d3fc
    80000a48:	00709733          	sll	x14,x1,x7
    80000a4c:	028adf13          	srli	x30,x21,0x28
    80000a50:	164b2037          	lui	x0,0x164b2
    80000a54:	010402b3          	add	x5,x8,x16
    80000a58:	00649a9b          	slliw	x21,x9,0x6
    80000a5c:	92a20b97          	auipc	x23,0x92a20
    80000a60:	4105dc3b          	sraw	x24,x11,x16
    80000a64:	0172931b          	slliw	x6,x5,0x17
    80000a68:	e054bc97          	auipc	x25,0xe054b
    80000a6c:	40bb07bb          	subw	x15,x22,x11
    80000a70:	01c25113          	srli	x2,x4,0x1c
    80000a74:	4fc11db7          	lui	x27,0x4fc11
    80000a78:	418856bb          	sraw	x13,x16,x24
    80000a7c:	42ffd393          	srai	x7,x31,0x2f
    80000a80:	cff15037          	lui	x0,0xcff15
    80000a84:	010f61b3          	or	x3,x30,x16
    80000a88:	52af0a9b          	addiw	x21,x30,1322 # ffffffffb36a7bba <_start+0xffffffff336a7bba>
    80000a8c:	021ebbb7          	lui	x23,0x21eb
    80000a90:	0168d2b3          	srl	x5,x17,x22
    80000a94:	0086d513          	srli	x10,x13,0x8
    80000a98:	fc480ab7          	lui	x21,0xfc480
    80000a9c:	00f3903b          	sllw	x0,x7,x15
    80000aa0:	1fc68d9b          	addiw	x27,x13,508 # ffffffffb75e0aa8 <_start+0xffffffff375e0aa8>
    80000aa4:	0be57cb7          	lui	x25,0xbe57
    80000aa8:	01441e3b          	sllw	x28,x8,x20
    80000aac:	3c2f0913          	addi	x18,x30,962
    80000ab0:	844c1737          	lui	x14,0x844c1
    80000ab4:	40878a33          	sub	x20,x15,x8
    80000ab8:	2df64613          	xori	x12,x12,735
    80000abc:	871b9eb7          	lui	x29,0x871b9
    80000ac0:	4040d13b          	sraw	x2,x1,x4
    80000ac4:	785a7b13          	andi	x22,x20,1925
    80000ac8:	f57938b7          	lui	x17,0xf5793
    80000acc:	41a685bb          	subw	x11,x13,x26
    80000ad0:	c4670193          	addi	x3,x14,-954 # ffffffff844c0c46 <_start+0xffffffff044c0c46>
    80000ad4:	0fef3fb7          	lui	x31,0xfef3
    80000ad8:	40878c33          	sub	x24,x15,x8
    80000adc:	07448a93          	addi	x21,x9,116 # 34de1074 <_start-0x4b21ef8c>
    80000ae0:	b0095197          	auipc	x3,0xb0095
    80000ae4:	01ca7633          	and	x12,x20,x28
    80000ae8:	003d139b          	slliw	x7,x26,0x3
    80000aec:	0724f997          	auipc	x19,0x724f
    80000af0:	000ec8b3          	xor	x17,x29,x0
    80000af4:	01549f1b          	slliw	x30,x9,0x15
    80000af8:	32da65b7          	lui	x11,0x32da6
    80000afc:	01b719b3          	sll	x19,x14,x27
    80000b00:	4064511b          	sraiw	x2,x8,0x6
    80000b04:	41ab8f37          	lui	x30,0x41ab8
    80000b08:	01c8a0b3          	slt	x1,x17,x28
    80000b0c:	4066d49b          	sraiw	x9,x13,0x6
    80000b10:	75d6b337          	lui	x6,0x75d6b
    80000b14:	419b043b          	subw	x8,x22,x25
    80000b18:	00a7589b          	srliw	x17,x14,0xa
    80000b1c:	b2730d17          	auipc	x26,0xb2730
    80000b20:	00633f33          	sltu	x30,x6,x6
    80000b24:	01055e13          	srli	x28,x10,0x10
    80000b28:	003bd897          	auipc	x17,0x3bd
    80000b2c:	40ad8b33          	sub	x22,x27,x10
    80000b30:	258c6f13          	ori	x30,x24,600
    80000b34:	073ac137          	lui	x2,0x73ac
    80000b38:	00627db3          	and	x27,x4,x6
    80000b3c:	0163d49b          	srliw	x9,x7,0x16
    80000b40:	d448c197          	auipc	x3,0xd448c
    80000b44:	00feb9b3          	sltu	x19,x29,x15
    80000b48:	6d0aa113          	slti	x2,x21,1744
    80000b4c:	97d79397          	auipc	x7,0x97d79
    80000b50:	0187ebb3          	or	x23,x15,x24
    80000b54:	0010d59b          	srliw	x11,x1,0x1
    80000b58:	89e0db37          	lui	x22,0x89e0d
    80000b5c:	40ac0f33          	sub	x30,x24,x10
    80000b60:	132af913          	andi	x18,x21,306
    80000b64:	7f646db7          	lui	x27,0x7f646
    80000b68:	010bdfbb          	srlw	x31,x23,x16
    80000b6c:	9cba3413          	sltiu	x8,x20,-1589
    80000b70:	8fcef717          	auipc	x14,0x8fcef
    80000b74:	00b493b3          	sll	x7,x9,x11
    80000b78:	41c95a1b          	sraiw	x20,x18,0x1c
    80000b7c:	bfbaa7b7          	lui	x15,0xbfbaa
    80000b80:	0080c933          	xor	x18,x1,x8
    80000b84:	01885e1b          	srliw	x28,x16,0x18
    80000b88:	298613b7          	lui	x7,0x29861
    80000b8c:	005ef1b3          	and	x3,x29,x5
    80000b90:	39603813          	sltiu	x16,x0,918
    80000b94:	7e39a217          	auipc	x4,0x7e39a
    80000b98:	00e525b3          	slt	x11,x10,x14
    80000b9c:	007c9913          	slli	x18,x25,0x7
    80000ba0:	b6f00cb7          	lui	x25,0xb6f00
    80000ba4:	007263b3          	or	x7,x4,x7
    80000ba8:	409e551b          	sraiw	x10,x28,0x9
    80000bac:	803459b7          	lui	x19,0x80345
    80000bb0:	0082b033          	sltu	x0,x5,x8
    80000bb4:	00afd79b          	srliw	x15,x31,0xa
    80000bb8:	41f4bdb7          	lui	x27,0x41f4b
    80000bbc:	417a5ebb          	sraw	x29,x20,x23
    80000bc0:	1943bc13          	sltiu	x24,x7,404
    80000bc4:	ebf83bb7          	lui	x23,0xebf83
    80000bc8:	006f1fbb          	sllw	x31,x30,x6
    80000bcc:	43128693          	addi	x13,x5,1073 # 27e6d431 <_start-0x58192bcf>
    80000bd0:	c5058317          	auipc	x6,0xc5058
    80000bd4:	0038b933          	sltu	x18,x17,x3
    80000bd8:	85f13f13          	sltiu	x30,x2,-1953
    80000bdc:	7c6e6037          	lui	x0,0x7c6e6
    80000be0:	4177d6b3          	sra	x13,x15,x23
    80000be4:	4ae66793          	ori	x15,x12,1198
    80000be8:	273cbd17          	auipc	x26,0x273cb
    80000bec:	4142ddbb          	sraw	x27,x5,x20
    80000bf0:	97334c13          	xori	x24,x6,-1677
    80000bf4:	22526837          	lui	x16,0x22526
    80000bf8:	40e3d733          	sra	x14,x7,x14
    80000bfc:	008fdd9b          	srliw	x27,x31,0x8
    80000c00:	4ba40017          	auipc	x0,0x4ba40
    80000c04:	00c60bbb          	addw	x23,x12,x12
    80000c08:	01cae893          	ori	x17,x21,28
    80000c0c:	f57a40b7          	lui	x1,0xf57a4
    80000c10:	01ee9d3b          	sllw	x26,x29,x30
    80000c14:	2dc6ca93          	xori	x21,x13,732
    80000c18:	e1787517          	auipc	x10,0xe1787
    80000c1c:	009ec833          	xor	x16,x29,x9
    80000c20:	4165dc9b          	sraiw	x25,x11,0x16
    80000c24:	cd736697          	auipc	x13,0xcd736
    80000c28:	40995fb3          	sra	x31,x18,x9
    80000c2c:	00fd1e1b          	slliw	x28,x26,0xf
    80000c30:	6eca0737          	lui	x14,0x6eca0
    80000c34:	0112f8b3          	and	x17,x5,x17
    80000c38:	73aabd93          	sltiu	x27,x21,1850
    80000c3c:	dde9a417          	auipc	x8,0xdde9a
    80000c40:	012b77b3          	and	x15,x22,x18
    80000c44:	e37c8e13          	addi	x28,x25,-457 # ffffffffb6effe37 <_start+0xffffffff36effe37>
    80000c48:	23361817          	auipc	x16,0x23361
    80000c4c:	003a8333          	add	x6,x21,x3
    80000c50:	eee06d93          	ori	x27,x0,-274
    80000c54:	58e05ab7          	lui	x21,0x58e05
    80000c58:	41465bbb          	sraw	x23,x12,x20
    80000c5c:	4010541b          	sraiw	x8,x0,0x1
    80000c60:	55bfba37          	lui	x20,0x55bfb
    80000c64:	01d55f3b          	srlw	x30,x10,x29
    80000c68:	7fee4693          	xori	x13,x28,2046
    80000c6c:	b59d9e97          	auipc	x29,0xb59d9
    80000c70:	41a709b3          	sub	x19,x14,x26
    80000c74:	d8202c13          	slti	x24,x0,-638
    80000c78:	8b8aba37          	lui	x20,0x8b8ab
    80000c7c:	01e30d3b          	addw	x26,x6,x30
    80000c80:	01751313          	slli	x6,x10,0x17
    80000c84:	4d631837          	lui	x16,0x4d631
    80000c88:	00e91a33          	sll	x20,x18,x14
    80000c8c:	f41f0b9b          	addiw	x23,x30,-191 # 41ab7f41 <_start-0x3e5480bf>
    80000c90:	df4d00b7          	lui	x1,0xdf4d0
    80000c94:	41615abb          	sraw	x21,x2,x22
    80000c98:	00529b1b          	slliw	x22,x5,0x5
    80000c9c:	a9da3517          	auipc	x10,0xa9da3
    80000ca0:	014edbb3          	srl	x23,x29,x20
    80000ca4:	2da0cc93          	xori	x25,x1,730
    80000ca8:	8c7c85b7          	lui	x11,0x8c7c8
    80000cac:	00aa2833          	slt	x16,x20,x10
    80000cb0:	a7eb6f93          	ori	x31,x22,-1410
    80000cb4:	51b45d97          	auipc	x27,0x51b45
    80000cb8:	4088d1bb          	sraw	x3,x17,x8
    80000cbc:	4396db93          	srai	x23,x13,0x39
    80000cc0:	516e8b17          	auipc	x22,0x516e8
    80000cc4:	005d9733          	sll	x14,x27,x5
    80000cc8:	007e9c1b          	slliw	x24,x29,0x7
    80000ccc:	5f3ebeb7          	lui	x29,0x5f3eb
    80000cd0:	4164d833          	sra	x16,x9,x22
    80000cd4:	01bb519b          	srliw	x3,x22,0x1b
    80000cd8:	38a5a497          	auipc	x9,0x38a5a
    80000cdc:	01d9d6b3          	srl	x13,x19,x29
    80000ce0:	40115e13          	srai	x28,x2,0x1
    80000ce4:	07971ab7          	lui	x21,0x7971
    80000ce8:	003f923b          	sllw	x4,x31,x3
    80000cec:	03dd9693          	slli	x13,x27,0x3d
    80000cf0:	47e7c5b7          	lui	x11,0x47e7c
    80000cf4:	41778cb3          	sub	x25,x15,x23
    80000cf8:	98f38d1b          	addiw	x26,x7,-1649 # 2986098f <_start-0x5679f671>
    80000cfc:	0e22f737          	lui	x14,0xe22f
    80000d00:	00ce0a33          	add	x20,x28,x12
    80000d04:	182cb913          	sltiu	x18,x25,386
    80000d08:	1c0be617          	auipc	x12,0x1c0be
    80000d0c:	41f7deb3          	sra	x29,x15,x31
    80000d10:	4109d213          	srai	x4,x19,0x10
    80000d14:	56329a37          	lui	x20,0x56329
    80000d18:	0109d13b          	srlw	x2,x19,x16
    80000d1c:	ec556513          	ori	x10,x10,-315
    80000d20:	049acc17          	auipc	x24,0x49ac
    80000d24:	001f5b3b          	srlw	x22,x30,x1
    80000d28:	408ddd93          	srai	x27,x27,0x8
    80000d2c:	91be9a37          	lui	x20,0x91be9
    80000d30:	01d24d33          	xor	x26,x4,x29
    80000d34:	4072581b          	sraiw	x16,x4,0x7
    80000d38:	a58a3017          	auipc	x0,0xa58a3
    80000d3c:	0145d2bb          	srlw	x5,x11,x20
    80000d40:	4171d19b          	sraiw	x3,x3,0x17
    80000d44:	e6f1c5b7          	lui	x11,0xe6f1c
    80000d48:	01290c3b          	addw	x24,x18,x18
    80000d4c:	40a15913          	srai	x18,x2,0xa
    80000d50:	c473e797          	auipc	x15,0xc473e
    80000d54:	0109963b          	sllw	x12,x19,x16
    80000d58:	4099d713          	srai	x14,x19,0x9
    80000d5c:	cc99d237          	lui	x4,0xcc99d
    80000d60:	00b9df3b          	srlw	x30,x19,x11
    80000d64:	c9413f93          	sltiu	x31,x2,-876
    80000d68:	c4a1d0b7          	lui	x1,0xc4a1d
    80000d6c:	016259b3          	srl	x19,x4,x22
    80000d70:	1af4a893          	slti	x17,x9,431
    80000d74:	f4344c17          	auipc	x24,0xf4344
    80000d78:	40ae8a3b          	subw	x20,x29,x10
    80000d7c:	01dfdb9b          	srliw	x23,x31,0x1d
    80000d80:	133f7397          	auipc	x7,0x133f7
    80000d84:	40ce56b3          	sra	x13,x28,x12
    80000d88:	83897e13          	andi	x28,x18,-1992
    80000d8c:	27659a37          	lui	x20,0x27659
    80000d90:	00e5a1b3          	slt	x3,x11,x14
    80000d94:	40145a9b          	sraiw	x21,x8,0x1
    80000d98:	b7a700b7          	lui	x1,0xb7a70
    80000d9c:	00c386b3          	add	x13,x7,x12
    80000da0:	5698e893          	ori	x17,x17,1385
    80000da4:	78e9be37          	lui	x28,0x78e9b
    80000da8:	01985b33          	srl	x22,x16,x25
    80000dac:	00a5df9b          	srliw	x31,x11,0xa
    80000db0:	f5e19cb7          	lui	x25,0xf5e19
    80000db4:	01c2bab3          	sltu	x21,x5,x28
    80000db8:	03d49b93          	slli	x23,x9,0x3d
    80000dbc:	e891e037          	lui	x0,0xe891e
    80000dc0:	018e9a33          	sll	x20,x29,x24
    80000dc4:	2167ba93          	sltiu	x21,x15,534
    80000dc8:	49c5c717          	auipc	x14,0x49c5c
    80000dcc:	007636b3          	sltu	x13,x12,x7
    80000dd0:	fb34f613          	andi	x12,x9,-77
    80000dd4:	7bcce437          	lui	x8,0x7bcce
    80000dd8:	01ff3ab3          	sltu	x21,x30,x31
    80000ddc:	2ce3f813          	andi	x16,x7,718
    80000de0:	7cb5d5b7          	lui	x11,0x7cb5d
    80000de4:	008dcf33          	xor	x30,x27,x8
    80000de8:	40e9d293          	srai	x5,x19,0xe
    80000dec:	68dd7897          	auipc	x17,0x68dd7
    80000df0:	40cad333          	sra	x6,x21,x12
    80000df4:	ad7c849b          	addiw	x9,x25,-1321 # fffffffff5e18ad7 <_start+0xffffffff75e18ad7>
    80000df8:	6bab0f97          	auipc	x31,0x6bab0
    80000dfc:	01257733          	and	x14,x10,x18
    80000e00:	503ec613          	xori	x12,x29,1283
    80000e04:	0a9e0c97          	auipc	x25,0xa9e0
    80000e08:	01530333          	add	x6,x6,x21
    80000e0c:	6aa9bf13          	sltiu	x30,x19,1706
    80000e10:	935604b7          	lui	x9,0x93560
    80000e14:	41c7d8b3          	sra	x17,x15,x28
    80000e18:	454bfe93          	andi	x29,x23,1108
    80000e1c:	3ae5cf37          	lui	x30,0x3ae5c
    80000e20:	405550bb          	sraw	x1,x10,x5
    80000e24:	41ca549b          	sraiw	x9,x20,0x1c
    80000e28:	d4697997          	auipc	x19,0xd4697
    80000e2c:	0086d8bb          	srlw	x17,x13,x8
    80000e30:	005d111b          	slliw	x2,x26,0x5
    80000e34:	08f9a937          	lui	x18,0x8f9a
    80000e38:	013adc3b          	srlw	x24,x21,x19
    80000e3c:	b10efd13          	andi	x26,x29,-1264
    80000e40:	151ea037          	lui	x0,0x151ea
    80000e44:	019e923b          	sllw	x4,x29,x25
    80000e48:	486ee193          	ori	x3,x29,1158
    80000e4c:	654acdb7          	lui	x27,0x654ac
    80000e50:	0073f5b3          	and	x11,x7,x7
    80000e54:	c292841b          	addiw	x8,x5,-983
    80000e58:	fdf494b7          	lui	x9,0xfdf49
    80000e5c:	01a2163b          	sllw	x12,x4,x26
    80000e60:	a823051b          	addiw	x10,x6,-1406 # 45058652 <_start-0x3afa79ae>
    80000e64:	d05c8fb7          	lui	x31,0xd05c8
    80000e68:	014ec333          	xor	x6,x29,x20
    80000e6c:	75a98693          	addi	x13,x19,1882 # 54698582 <_start-0x2b967a7e>
    80000e70:	8aad1d37          	lui	x26,0x8aad1
    80000e74:	418c8fb3          	sub	x31,x25,x24
    80000e78:	0efb8e9b          	addiw	x29,x23,239 # ffffffffebf830ef <_start+0xffffffff6bf830ef>
    80000e7c:	496fa037          	lui	x0,0x496fa
    80000e80:	013c53bb          	srlw	x7,x24,x19
    80000e84:	0087909b          	slliw	x1,x15,0x8
    80000e88:	15066937          	lui	x18,0x15066
    80000e8c:	0184b633          	sltu	x12,x9,x24
    80000e90:	6295b813          	sltiu	x16,x11,1577
    80000e94:	8cf99bb7          	lui	x23,0x8cf99
    80000e98:	00335cb3          	srl	x25,x6,x3
    80000e9c:	34847793          	andi	x15,x8,840
    80000ea0:	924c5317          	auipc	x6,0x924c5
    80000ea4:	005136b3          	sltu	x13,x2,x5
    80000ea8:	00ca9193          	slli	x3,x21,0xc
    80000eac:	ebf00cb7          	lui	x25,0xebf00
    80000eb0:	01f4c7b3          	xor	x15,x9,x31
    80000eb4:	00b3d99b          	srliw	x19,x7,0xb
    80000eb8:	e1886437          	lui	x8,0xe1886
    80000ebc:	001906bb          	addw	x13,x18,x1
    80000ec0:	47bf7e93          	andi	x29,x30,1147
    80000ec4:	40719997          	auipc	x19,0x40719
    80000ec8:	012c1c3b          	sllw	x24,x24,x18
    80000ecc:	91ca821b          	addiw	x4,x21,-1764 # 797091c <_start-0x7868f6e4>
    80000ed0:	e3291a97          	auipc	x21,0xe3291
    80000ed4:	00e9bdb3          	sltu	x27,x19,x14
    80000ed8:	4863c793          	xori	x15,x7,1158
    80000edc:	cde1e1b7          	lui	x3,0xcde1e
    80000ee0:	410b8933          	sub	x18,x23,x16
    80000ee4:	00235b9b          	srliw	x23,x6,0x2
    80000ee8:	7b3e7437          	lui	x8,0x7b3e7
    80000eec:	40e68ab3          	sub	x21,x13,x14
    80000ef0:	ecdeaf93          	slti	x31,x29,-307
    80000ef4:	fbcb6337          	lui	x6,0xfbcb6
    80000ef8:	403e83b3          	sub	x7,x29,x3
    80000efc:	418ad213          	srai	x4,x21,0x18
    80000f00:	ca300b17          	auipc	x22,0xca300
    80000f04:	01855bbb          	srlw	x23,x10,x24
    80000f08:	401ad81b          	sraiw	x16,x21,0x1
    80000f0c:	696cb597          	auipc	x11,0x696cb
    80000f10:	4060db33          	sra	x22,x1,x6
    80000f14:	01b95313          	srli	x6,x18,0x1b
    80000f18:	7923c237          	lui	x4,0x7923c
    80000f1c:	015128b3          	slt	x17,x2,x21
    80000f20:	147bee93          	ori	x29,x23,327
    80000f24:	984ca597          	auipc	x11,0x984ca
    80000f28:	41515bbb          	sraw	x23,x2,x21
    80000f2c:	3db82e13          	slti	x28,x16,987
    80000f30:	45ae53b7          	lui	x7,0x45ae5
    80000f34:	41e40fbb          	subw	x31,x8,x30
    80000f38:	c9b50813          	addi	x16,x10,-869 # 29da3937 <_start-0x5625c6c9>
    80000f3c:	4a8a9c97          	auipc	x25,0x4a8a9
    80000f40:	40a508b3          	sub	x17,x10,x10
    80000f44:	01711d1b          	slliw	x26,x2,0x17
    80000f48:	97239337          	lui	x6,0x97239
    80000f4c:	01673c33          	sltu	x24,x14,x22
    80000f50:	0196dc9b          	srliw	x25,x13,0x19
    80000f54:	e1ba8237          	lui	x4,0xe1ba8
    80000f58:	416a8533          	sub	x10,x21,x22
    80000f5c:	7a83b913          	sltiu	x18,x7,1960
    80000f60:	4c15d297          	auipc	x5,0x4c15d
    80000f64:	4097dabb          	sraw	x21,x15,x9
    80000f68:	00a1d39b          	srliw	x7,x3,0xa
    80000f6c:	d8fe8837          	lui	x16,0xd8fe8
    80000f70:	401ed2bb          	sraw	x5,x29,x1
    80000f74:	aba96d93          	ori	x27,x18,-1350
    80000f78:	3271ab17          	auipc	x22,0x3271a
    80000f7c:	41140833          	sub	x16,x8,x17
    80000f80:	ac2f0013          	addi	x0,x30,-1342 # 3ae5bac2 <_start-0x451a453e>
    80000f84:	85246e97          	auipc	x29,0x85246
    80000f88:	4184da33          	sra	x20,x9,x24
    80000f8c:	4146dd93          	srai	x27,x13,0x14
    80000f90:	3e732ab7          	lui	x21,0x3e732
    80000f94:	01995eb3          	srl	x29,x18,x25
    80000f98:	41f2d81b          	sraiw	x16,x5,0x1f
    80000f9c:	73f46037          	lui	x0,0x73f46
    80000fa0:	017acc33          	xor	x24,x21,x23
    80000fa4:	4092df1b          	sraiw	x30,x5,0x9
    80000fa8:	3611f1b7          	lui	x3,0x3611f
    80000fac:	0144f233          	and	x4,x9,x20
    80000fb0:	021d5a13          	srli	x20,x26,0x21
    80000fb4:	26448097          	auipc	x1,0x26448
    80000fb8:	00284eb3          	xor	x29,x16,x2
    80000fbc:	50c4f593          	andi	x11,x9,1292
    80000fc0:	0b5a3f97          	auipc	x31,0xb5a3
    80000fc4:	0063fab3          	and	x21,x7,x6
    80000fc8:	4099d11b          	sraiw	x2,x19,0x9
    80000fcc:	6d0e2eb7          	lui	x29,0x6d0e2
    80000fd0:	000f25b3          	slt	x11,x30,x0
    80000fd4:	4087d49b          	sraiw	x9,x15,0x8
    80000fd8:	c6c74c17          	auipc	x24,0xc6c74
    80000fdc:	4035533b          	sraw	x6,x10,x3
    80000fe0:	022b5b13          	srli	x22,x22,0x22
    80000fe4:	860dbe37          	lui	x28,0x860db
    80000fe8:	40255d3b          	sraw	x26,x10,x2
    80000fec:	8d777213          	andi	x4,x14,-1833
    80000ff0:	e5048a97          	auipc	x21,0xe5048
    80000ff4:	01bd8b33          	add	x22,x27,x27
    80000ff8:	590a6893          	ori	x17,x20,1424
    80000ffc:	63a9ea17          	auipc	x20,0x63a9e
    80001000:	00804eb3          	xor	x29,x0,x8
    80001004:	03a62e13          	slti	x28,x12,58
    80001008:	f110c7b7          	lui	x15,0xf110c
    8000100c:	004678b3          	and	x17,x12,x4
    80001010:	d804081b          	addiw	x16,x8,-640 # 7b3e6d80 <_start-0x4c19280>
    80001014:	ad82c337          	lui	x6,0xad82c
    80001018:	01ecfcb3          	and	x25,x25,x30
    8000101c:	5f402b93          	slti	x23,x0,1524
    80001020:	62946597          	auipc	x11,0x62946
    80001024:	004d873b          	addw	x14,x27,x4
    80001028:	0163919b          	slliw	x3,x7,0x16
    8000102c:	58f7e897          	auipc	x17,0x58f7e
    80001030:	00f65eb3          	srl	x29,x12,x15
    80001034:	00d61713          	slli	x14,x12,0xd
    80001038:	e7d959b7          	lui	x19,0xe7d95
    8000103c:	01b041b3          	xor	x3,x0,x27
    80001040:	431cdf13          	srai	x30,x25,0x31
    80001044:	c95f7417          	auipc	x8,0xc95f7
    80001048:	00f25cb3          	srl	x25,x4,x15
    8000104c:	17be0b13          	addi	x22,x28,379 # ffffffff860db17b <_start+0xffffffff060db17b>
    80001050:	8e9f8537          	lui	x10,0x8e9f8
    80001054:	017931b3          	sltu	x3,x18,x23
    80001058:	0090161b          	slliw	x12,x0,0x9
    8000105c:	adb92137          	lui	x2,0xadb92
    80001060:	01e896bb          	sllw	x13,x17,x30
    80001064:	6c274413          	xori	x8,x14,1730
    80001068:	57a87a17          	auipc	x20,0x57a87
    8000106c:	00302733          	slt	x14,x0,x3
    80001070:	ea558193          	addi	x3,x11,-347 # e2946ec5 <_start+0x62946ec5>
    80001074:	3ae64997          	auipc	x19,0x3ae64
    80001078:	01f53db3          	sltu	x27,x10,x31
    8000107c:	13c92213          	slti	x4,x18,316
    80001080:	38f78437          	lui	x8,0x38f78
    80001084:	00685333          	srl	x6,x16,x6
    80001088:	d5e5b893          	sltiu	x17,x11,-674
    8000108c:	0df42c97          	auipc	x25,0xdf42
    80001090:	003036b3          	sltu	x13,x0,x3
    80001094:	43412493          	slti	x9,x2,1076
    80001098:	c486c437          	lui	x8,0xc486c
    8000109c:	016be8b3          	or	x17,x23,x22
    800010a0:	42feda13          	srai	x20,x29,0x2f
    800010a4:	0448d737          	lui	x14,0x448d
    800010a8:	007b16b3          	sll	x13,x22,x7
    800010ac:	20a96593          	ori	x11,x18,522
    800010b0:	ef639b97          	auipc	x23,0xef639
    800010b4:	41fcdd3b          	sraw	x26,x25,x31
    800010b8:	d3d46613          	ori	x12,x8,-707
    800010bc:	71c98fb7          	lui	x31,0x71c98
    800010c0:	415557bb          	sraw	x15,x10,x21
    800010c4:	12988593          	addi	x11,x17,297 # d8f7f155 <_start+0x58f7f155>
    800010c8:	342e4037          	lui	x0,0x342e4
    800010cc:	01d9ad33          	slt	x26,x19,x29
    800010d0:	470eb393          	sltiu	x7,x29,1136
    800010d4:	440af997          	auipc	x19,0x440af
    800010d8:	01f70833          	add	x16,x14,x31
    800010dc:	038fde13          	srli	x28,x31,0x38
    800010e0:	65114017          	auipc	x0,0x65114
    800010e4:	011193b3          	sll	x7,x3,x17
    800010e8:	4f51bb93          	sltiu	x23,x3,1269
    800010ec:	284d4417          	auipc	x8,0x284d4
    800010f0:	4119803b          	subw	x0,x19,x17
    800010f4:	00065d1b          	srliw	x26,x12,0x0
    800010f8:	971feab7          	lui	x21,0x971fe
    800010fc:	01ff5dbb          	srlw	x27,x30,x31
    80001100:	41c6de1b          	sraiw	x28,x13,0x1c
    80001104:	13e92117          	auipc	x2,0x13e92
    80001108:	41568633          	sub	x12,x13,x21
    8000110c:	01dd9713          	slli	x14,x27,0x1d
    80001110:	cd13d917          	auipc	x18,0xcd13d
    80001114:	00fbb033          	sltu	x0,x23,x15
    80001118:	01fc151b          	slliw	x10,x24,0x1f
    8000111c:	dcf27737          	lui	x14,0xdcf27
    80001120:	41fcd7bb          	sraw	x15,x25,x31
    80001124:	413ade9b          	sraiw	x29,x21,0x13
    80001128:	bd45f997          	auipc	x19,0xbd45f
    8000112c:	014e76b3          	and	x13,x28,x20
    80001130:	01629d1b          	slliw	x26,x5,0x16
    80001134:	e0d86737          	lui	x14,0xe0d86
    80001138:	017124b3          	slt	x9,x2,x23
    8000113c:	40e3c593          	xori	x11,x7,1038
    80001140:	ad7ebb37          	lui	x22,0xad7eb
    80001144:	01fec2b3          	xor	x5,x29,x31
    80001148:	00c15f93          	srli	x31,x2,0xc
    8000114c:	10605a37          	lui	x20,0x10605
    80001150:	00036b33          	or	x22,x6,x0
    80001154:	01bb981b          	slliw	x16,x23,0x1b
    80001158:	94317297          	auipc	x5,0x94317
    8000115c:	413507bb          	subw	x15,x10,x19
    80001160:	d0d90313          	addi	x6,x18,-755 # 4d13de1d <_start-0x32ec21e3>
    80001164:	3bc2dc37          	lui	x24,0x3bc2d
    80001168:	00ad2eb3          	slt	x29,x26,x10
    8000116c:	01355d9b          	srliw	x27,x10,0x13
    80001170:	88ce5097          	auipc	x1,0x88ce5
    80001174:	00378cbb          	addw	x25,x15,x3
    80001178:	166a8d13          	addi	x26,x21,358 # ffffffff971fe166 <_start+0xffffffff171fe166>
    8000117c:	9e6447b7          	lui	x15,0x9e644
    80001180:	01f63333          	sltu	x6,x12,x31
    80001184:	95d0a713          	slti	x14,x1,-1699
    80001188:	039ef637          	lui	x12,0x39ef
    8000118c:	0000f533          	and	x10,x1,x0
    80001190:	cfc08b13          	addi	x22,x1,-772 # 8ce5e6c <_start-0x7731a194>
    80001194:	299948b7          	lui	x17,0x29994
    80001198:	01a01233          	sll	x4,x0,x26
    8000119c:	40de5293          	srai	x5,x28,0xd
    800011a0:	21718cb7          	lui	x25,0x21718
    800011a4:	003b9db3          	sll	x27,x23,x3
    800011a8:	7971ce93          	xori	x29,x3,1943
    800011ac:	3af26117          	auipc	x2,0x3af26
    800011b0:	00ff2bb3          	slt	x23,x30,x15
    800011b4:	415fdc93          	srai	x25,x31,0x15
    800011b8:	beb9c2b7          	lui	x5,0xbeb9c
    800011bc:	41175f33          	sra	x30,x14,x17
    800011c0:	91fab113          	sltiu	x2,x21,-1761
    800011c4:	c19b9237          	lui	x4,0xc19b9
    800011c8:	40c956bb          	sraw	x13,x18,x12
    800011cc:	432adc93          	srai	x25,x21,0x32
    800011d0:	2edf2417          	auipc	x8,0x2edf2
    800011d4:	01e74ab3          	xor	x21,x14,x30
    800011d8:	412d561b          	sraiw	x12,x26,0x12
    800011dc:	bf4f9917          	auipc	x18,0xbf4f9
    800011e0:	00400033          	add	x0,x0,x4
    800011e4:	eb4c6d13          	ori	x26,x24,-332
    800011e8:	3b4e5337          	lui	x6,0x3b4e5
    800011ec:	011cd8bb          	srlw	x17,x25,x17
    800011f0:	0104921b          	slliw	x4,x9,0x10
    800011f4:	14e75f37          	lui	x30,0x14e75
    800011f8:	01c64bb3          	xor	x23,x12,x28
    800011fc:	0063d59b          	srliw	x11,x7,0x6
    80001200:	80ac2217          	auipc	x4,0x80ac2
    80001204:	003b03bb          	addw	x7,x22,x3
    80001208:	fc6c8c1b          	addiw	x24,x25,-58 # 21717fc6 <_start-0x5e8e803a>
    8000120c:	cc7d3e17          	auipc	x28,0xcc7d3
    80001210:	01a491bb          	sllw	x3,x9,x26
    80001214:	00461913          	slli	x18,x12,0x4
    80001218:	c9c4d417          	auipc	x8,0xc9c4d
    8000121c:	01478db3          	add	x27,x15,x20
    80001220:	d18e6d13          	ori	x26,x28,-744
    80001224:	890f3097          	auipc	x1,0x890f3
    80001228:	4155d1b3          	sra	x3,x11,x21
    8000122c:	022d9013          	slli	x0,x27,0x22
    80001230:	5bc2abb7          	lui	x23,0x5bc2a
    80001234:	012ef6b3          	and	x13,x29,x18
    80001238:	01f3121b          	slliw	x4,x6,0x1f
    8000123c:	25dcdf37          	lui	x30,0x25dcd
    80001240:	418e053b          	subw	x10,x28,x24
    80001244:	0004909b          	slliw	x1,x9,0x0
    80001248:	513f1db7          	lui	x27,0x513f1
    8000124c:	00ef833b          	addw	x6,x31,x14
    80001250:	e559ca13          	xori	x20,x19,-427
    80001254:	61029b37          	lui	x22,0x61029
    80001258:	01892fb3          	slt	x31,x18,x24
    8000125c:	02a9d913          	srli	x18,x19,0x2a
    80001260:	3beb8597          	auipc	x11,0x3beb8
    80001264:	00e01dbb          	sllw	x27,x0,x14
    80001268:	f4c87293          	andi	x5,x16,-180
    8000126c:	07925d17          	auipc	x26,0x7925
    80001270:	0143df33          	srl	x30,x7,x20
    80001274:	0197581b          	srliw	x16,x14,0x19
    80001278:	db941237          	lui	x4,0xdb941
    8000127c:	419e07bb          	subw	x15,x28,x25
    80001280:	00dd5b9b          	srliw	x23,x26,0xd
    80001284:	5109d117          	auipc	x2,0x5109d
    80001288:	40a05a3b          	sraw	x20,x0,x10
    8000128c:	0092531b          	srliw	x6,x4,0x9
    80001290:	cbbd9397          	auipc	x7,0xcbbd9
    80001294:	017ff933          	and	x18,x31,x23
    80001298:	036a1613          	slli	x12,x20,0x36
    8000129c:	3d6c4817          	auipc	x16,0x3d6c4
    800012a0:	00857b33          	and	x22,x10,x8
    800012a4:	4034ed13          	ori	x26,x9,1027
    800012a8:	67ef07b7          	lui	x15,0x67ef0
    800012ac:	415c843b          	subw	x8,x25,x21
    800012b0:	402cd71b          	sraiw	x14,x25,0x2
    800012b4:	2bd97837          	lui	x16,0x2bd97
    800012b8:	01cc94bb          	sllw	x9,x25,x28
    800012bc:	47b90013          	addi	x0,x18,1147 # 3f4fa657 <_start-0x40b059a9>
    800012c0:	f1893a17          	auipc	x20,0xf1893
    800012c4:	01a9b833          	sltu	x16,x19,x26
    800012c8:	01efdc9b          	srliw	x25,x31,0x1e
    800012cc:	0ccb7e37          	lui	x28,0xccb7
    800012d0:	009315b3          	sll	x11,x6,x9
    800012d4:	00c39113          	slli	x2,x7,0xc
    800012d8:	e8041db7          	lui	x27,0xe8041
    800012dc:	00c8d2b3          	srl	x5,x17,x12
    800012e0:	013c5f13          	srli	x30,x24,0x13
    800012e4:	81361d17          	auipc	x26,0x81361
    800012e8:	011ba5b3          	slt	x11,x23,x17
    800012ec:	0023dd9b          	srliw	x27,x7,0x2
    800012f0:	87112897          	auipc	x17,0x87112
    800012f4:	41698ebb          	subw	x29,x19,x22
    800012f8:	c264819b          	addiw	x3,x9,-986 # fffffffffdf48c26 <_start+0xffffffff7df48c26>
    800012fc:	20b0f2b7          	lui	x5,0x20b0f
    80001300:	4014563b          	sraw	x12,x8,x1
    80001304:	a7e90913          	addi	x18,x18,-1410
    80001308:	eed30237          	lui	x4,0xeed30
    8000130c:	009a92b3          	sll	x5,x21,x9
    80001310:	c2d6a593          	slti	x11,x13,-979
    80001314:	15e47717          	auipc	x14,0x15e47
    80001318:	003f81bb          	addw	x3,x31,x3
    8000131c:	1ce20c1b          	addiw	x24,x4,462 # ffffffffeed301ce <_start+0xffffffff6ed301ce>
    80001320:	bb078a17          	auipc	x20,0xbb078
    80001324:	01704db3          	xor	x27,x0,x23
    80001328:	4196579b          	sraiw	x15,x12,0x19
    8000132c:	d5e4c137          	lui	x2,0xd5e4c
    80001330:	00e8d4bb          	srlw	x9,x17,x14
    80001334:	018f991b          	slliw	x18,x31,0x18
    80001338:	694fc7b7          	lui	x15,0x694fc
    8000133c:	01bb973b          	sllw	x14,x23,x27
    80001340:	c6114413          	xori	x8,x2,-927
    80001344:	b9cb5597          	auipc	x11,0xb9cb5
    80001348:	011e7e33          	and	x28,x28,x17
    8000134c:	6c12f393          	andi	x7,x5,1729
    80001350:	ae01fc37          	lui	x24,0xae01f
    80001354:	0048143b          	sllw	x8,x16,x4
    80001358:	63ba2993          	slti	x19,x20,1595
    8000135c:	2cca6297          	auipc	x5,0x2cca6
    80001360:	00a35633          	srl	x12,x6,x10
    80001364:	bbbcfc13          	andi	x24,x25,-1093
    80001368:	a4e51737          	lui	x14,0xa4e51
    8000136c:	00a4953b          	sllw	x10,x9,x10
    80001370:	40c05f1b          	sraiw	x30,x0,0xc
    80001374:	5f83db17          	auipc	x22,0x5f83d
    80001378:	00594eb3          	xor	x29,x18,x5
    8000137c:	02115393          	srli	x7,x2,0x21
    80001380:	c1f8e0b7          	lui	x1,0xc1f8e
    80001384:	410751b3          	sra	x3,x14,x16
    80001388:	01235c13          	srli	x24,x6,0x12
    8000138c:	4d6942b7          	lui	x5,0x4d694
    80001390:	00eed233          	srl	x4,x29,x14
    80001394:	10018f9b          	addiw	x31,x3,256 # 3611f100 <_start-0x49ee0f00>
    80001398:	3307fa37          	lui	x20,0x3307f
    8000139c:	01eceeb3          	or	x29,x25,x30
    800013a0:	4e5dee13          	ori	x28,x27,1253
    800013a4:	e7bc3837          	lui	x16,0xe7bc3
    800013a8:	40acd433          	sra	x8,x25,x10
    800013ac:	019b129b          	slliw	x5,x22,0x19
    800013b0:	5aba4f97          	auipc	x31,0x5aba4
    800013b4:	419e533b          	sraw	x6,x28,x25
    800013b8:	371b2413          	slti	x8,x22,881
    800013bc:	2e7cbe97          	auipc	x29,0x2e7cb
    800013c0:	01b7893b          	addw	x18,x15,x27
    800013c4:	4037d51b          	sraiw	x10,x15,0x3
    800013c8:	59c85637          	lui	x12,0x59c85
    800013cc:	0023a3b3          	slt	x7,x7,x2
    800013d0:	5e58bd93          	sltiu	x27,x17,1509
    800013d4:	730aa6b7          	lui	x13,0x730aa
    800013d8:	406205b3          	sub	x11,x4,x6
    800013dc:	2109ca93          	xori	x21,x19,528
    800013e0:	afdb7f17          	auipc	x30,0xafdb7
    800013e4:	010e9b33          	sll	x22,x29,x16
    800013e8:	422fdb93          	srai	x23,x31,0x22
    800013ec:	5c42a017          	auipc	x0,0x5c42a
    800013f0:	0128f3b3          	and	x7,x17,x18
    800013f4:	01325e9b          	srliw	x29,x4,0x13
    800013f8:	38283317          	auipc	x6,0x38283
    800013fc:	01290833          	add	x16,x18,x18
    80001400:	430a5a93          	srai	x21,x20,0x30
    80001404:	acfff597          	auipc	x11,0xacfff
    80001408:	0048e533          	or	x10,x17,x4
    8000140c:	403d5d13          	srai	x26,x26,0x3
    80001410:	47948e17          	auipc	x28,0x47948
    80001414:	01e90133          	add	x2,x18,x30
    80001418:	b8028f13          	addi	x30,x5,-1152 # 4d693b80 <_start-0x3296c480>
    8000141c:	9fa865b7          	lui	x11,0x9fa86
    80001420:	003d53b3          	srl	x7,x26,x3
    80001424:	00ed109b          	slliw	x1,x26,0xe
    80001428:	b83dafb7          	lui	x31,0xb83da
    8000142c:	41590b3b          	subw	x22,x18,x21
    80001430:	01af161b          	slliw	x12,x30,0x1a
    80001434:	144b06b7          	lui	x13,0x144b0
    80001438:	01439d33          	sll	x26,x7,x20
    8000143c:	85880f93          	addi	x31,x16,-1960 # ffffffffe7bc2858 <_start+0xffffffff67bc2858>
    80001440:	66ff5217          	auipc	x4,0x66ff5
    80001444:	405a89b3          	sub	x19,x21,x5
    80001448:	411d559b          	sraiw	x11,x26,0x11
    8000144c:	e7a19d97          	auipc	x27,0xe7a19
    80001450:	010708bb          	addw	x17,x14,x16
    80001454:	1bd47e13          	andi	x28,x8,445
    80001458:	aa06ad17          	auipc	x26,0xaa06a
    8000145c:	40c50b3b          	subw	x22,x10,x12
    80001460:	400bd41b          	sraiw	x8,x23,0x0
    80001464:	ef10eeb7          	lui	x29,0xef10e
    80001468:	00e6953b          	sllw	x10,x13,x14
    8000146c:	008e5c9b          	srliw	x25,x28,0x8
    80001470:	61770837          	lui	x16,0x61770
    80001474:	00234ab3          	xor	x21,x6,x2
    80001478:	d3dee893          	ori	x17,x29,-707
    8000147c:	f84c3c37          	lui	x24,0xf84c3
    80001480:	40d387b3          	sub	x15,x7,x13
    80001484:	9bdeb193          	sltiu	x3,x29,-1603
    80001488:	2e039cb7          	lui	x25,0x2e039
    8000148c:	004d1d3b          	sllw	x26,x26,x4
    80001490:	eb72829b          	addiw	x5,x5,-329
    80001494:	33224617          	auipc	x12,0x33224
    80001498:	40488733          	sub	x14,x17,x4
    8000149c:	e80ffa93          	andi	x21,x31,-384
    800014a0:	e352adb7          	lui	x27,0xe352a
    800014a4:	004194b3          	sll	x9,x3,x4
    800014a8:	01819e93          	slli	x29,x3,0x18
    800014ac:	880b22b7          	lui	x5,0x880b2
    800014b0:	00cbfdb3          	and	x27,x23,x12
    800014b4:	2c0bb793          	sltiu	x15,x23,704
    800014b8:	2e417d37          	lui	x26,0x2e417
    800014bc:	4060803b          	subw	x0,x1,x6
    800014c0:	ff1ff713          	andi	x14,x31,-15
    800014c4:	3f70c797          	auipc	x15,0x3f70c
    800014c8:	016901bb          	addw	x3,x18,x22
    800014cc:	03145513          	srli	x10,x8,0x31
    800014d0:	a9c366b7          	lui	x13,0xa9c36
    800014d4:	009a4133          	xor	x2,x20,x9
    800014d8:	014e5013          	srli	x0,x28,0x14
    800014dc:	aced0d37          	lui	x26,0xaced0
    800014e0:	01e85cb3          	srl	x25,x16,x30
    800014e4:	018e519b          	srliw	x3,x28,0x18
    800014e8:	9103e797          	auipc	x15,0x9103e
    800014ec:	000f06b3          	add	x13,x30,x0
    800014f0:	4078df9b          	sraiw	x31,x17,0x7
    800014f4:	99e5adb7          	lui	x27,0x99e5a
    800014f8:	004a04bb          	addw	x9,x20,x4
    800014fc:	0007dd13          	srli	x26,x15,0x0
    80001500:	d4057217          	auipc	x4,0xd4057
    80001504:	01e5903b          	sllw	x0,x11,x30
    80001508:	d03e3a13          	sltiu	x20,x28,-765
    8000150c:	e7d837b7          	lui	x15,0xe7d83
    80001510:	0179debb          	srlw	x29,x19,x23
    80001514:	4156d21b          	sraiw	x4,x13,0x15
    80001518:	b81a9c37          	lui	x24,0xb81a9
    8000151c:	002e1333          	sll	x6,x28,x2
    80001520:	e781a493          	slti	x9,x3,-392
    80001524:	6209ef97          	auipc	x31,0x6209e
    80001528:	00ee8db3          	add	x27,x29,x14
    8000152c:	01567413          	andi	x8,x12,21
    80001530:	13a62897          	auipc	x17,0x13a62
    80001534:	00e7ff33          	and	x30,x15,x14
    80001538:	729d4f93          	xori	x31,x26,1833
    8000153c:	ca80e837          	lui	x16,0xca80e
    80001540:	41ae5d33          	sra	x26,x28,x26
    80001544:	32a9f313          	andi	x6,x19,810
    80001548:	53528e17          	auipc	x28,0x53528
    8000154c:	009bcc33          	xor	x24,x23,x9
    80001550:	3471cd93          	xori	x27,x3,839
    80001554:	9a858217          	auipc	x4,0x9a858
    80001558:	014b94bb          	sllw	x9,x23,x20
    8000155c:	8e273f13          	sltiu	x30,x14,-1822
    80001560:	5f229e37          	lui	x28,0x5f229
    80001564:	402756bb          	sraw	x13,x14,x2
    80001568:	fff9ab13          	slti	x22,x19,-1
    8000156c:	a5e53337          	lui	x6,0xa5e53
    80001570:	4199d833          	sra	x16,x19,x25
    80001574:	d6c18e1b          	addiw	x28,x3,-660
    80001578:	18c15d37          	lui	x26,0x18c15
    8000157c:	008cd73b          	srlw	x14,x25,x8
    80001580:	7cb0c913          	xori	x18,x1,1995
    80001584:	18f92037          	lui	x0,0x18f92
    80001588:	011313b3          	sll	x7,x6,x17
    8000158c:	41245c1b          	sraiw	x24,x8,0x12
    80001590:	bed2b2b7          	lui	x5,0xbed2b
    80001594:	01ce59bb          	srlw	x19,x28,x28
    80001598:	2b3a8f93          	addi	x31,x21,691
    8000159c:	73ce5f17          	auipc	x30,0x73ce5
    800015a0:	012014b3          	sll	x9,x0,x18
    800015a4:	02a11613          	slli	x12,x2,0x2a
    800015a8:	b1234e17          	auipc	x28,0xb1234
    800015ac:	014551bb          	srlw	x3,x10,x20
    800015b0:	8760b693          	sltiu	x13,x1,-1930
    800015b4:	dd2b4017          	auipc	x0,0xdd2b4
    800015b8:	01586eb3          	or	x29,x16,x21
    800015bc:	000e5513          	srli	x10,x28,0x0
    800015c0:	e89aec37          	lui	x24,0xe89ae
    800015c4:	01aab133          	sltu	x2,x21,x26
    800015c8:	ae808b93          	addi	x23,x1,-1304 # ffffffffc1f8dae8 <_start+0xffffffff41f8dae8>
    800015cc:	c46fc6b7          	lui	x13,0xc46fc
    800015d0:	008d1333          	sll	x6,x26,x8
    800015d4:	0011999b          	slliw	x19,x3,0x1
    800015d8:	cf8dc737          	lui	x14,0xcf8dc
    800015dc:	01d2d53b          	srlw	x10,x5,x29
    800015e0:	028c1013          	slli	x0,x24,0x28
    800015e4:	66e84997          	auipc	x19,0x66e84
    800015e8:	40de593b          	sraw	x18,x28,x13
    800015ec:	908c041b          	addiw	x8,x24,-1784 # ffffffffe89ad908 <_start+0xffffffff689ad908>
    800015f0:	186b4817          	auipc	x16,0x186b4
    800015f4:	00b35ebb          	srlw	x29,x6,x11
    800015f8:	0192dc93          	srli	x25,x5,0x19
    800015fc:	666a40b7          	lui	x1,0x666a4
    80001600:	40bd0533          	sub	x10,x26,x11
    80001604:	c9a5fd13          	andi	x26,x11,-870
    80001608:	d4861a37          	lui	x20,0xd4861
    8000160c:	01c6f0b3          	and	x1,x13,x28
    80001610:	41fdd21b          	sraiw	x4,x27,0x1f
    80001614:	c28e7e37          	lui	x28,0xc28e7
    80001618:	01a794bb          	sllw	x9,x15,x26
    8000161c:	03899293          	slli	x5,x19,0x38
    80001620:	74979097          	auipc	x1,0x74979
    80001624:	0127e9b3          	or	x19,x15,x18
    80001628:	a80d4a93          	xori	x21,x26,-1408
    8000162c:	5497c2b7          	lui	x5,0x5497c
    80001630:	0035f033          	and	x0,x11,x3
    80001634:	dc0bbb13          	sltiu	x22,x23,-576
    80001638:	06c23517          	auipc	x10,0x6c23
    8000163c:	00569e3b          	sllw	x28,x13,x5
    80001640:	63b30893          	addi	x17,x6,1595 # ffffffffa5e5363b <_start+0xffffffff25e5363b>
    80001644:	d5613d17          	auipc	x26,0xd5613
    80001648:	0190dcbb          	srlw	x25,x1,x25
    8000164c:	e2e44993          	xori	x19,x8,-466
    80001650:	35c64b17          	auipc	x22,0x35c64
    80001654:	40f45eb3          	sra	x29,x8,x15
    80001658:	9dc4fe13          	andi	x28,x9,-1572
    8000165c:	372b9b97          	auipc	x23,0x372b9
    80001660:	00a304bb          	addw	x9,x6,x10
    80001664:	e60ec393          	xori	x7,x29,-416
    80001668:	c1c49c37          	lui	x24,0xc1c49
    8000166c:	417509b3          	sub	x19,x10,x23
    80001670:	480fb613          	sltiu	x12,x31,1152
    80001674:	16640fb7          	lui	x31,0x16640
    80001678:	003bb733          	sltu	x14,x23,x3
    8000167c:	e6ec6d93          	ori	x27,x24,-402
    80001680:	2bf05c17          	auipc	x24,0x2bf05
    80001684:	40d8d1bb          	sraw	x3,x17,x13
    80001688:	00b6191b          	slliw	x18,x12,0xb
    8000168c:	3e6aee37          	lui	x28,0x3e6ae
    80001690:	01bf7cb3          	and	x25,x30,x27
    80001694:	00b4dd1b          	srliw	x26,x9,0xb
    80001698:	96c4af97          	auipc	x31,0x96c4a
    8000169c:	0128eeb3          	or	x29,x17,x18
    800016a0:	01e1539b          	srliw	x7,x2,0x1e
    800016a4:	da5b6637          	lui	x12,0xda5b6
    800016a8:	003ff5b3          	and	x11,x31,x3
    800016ac:	4168d21b          	sraiw	x4,x17,0x16
    800016b0:	ebfc0137          	lui	x2,0xebfc0
    800016b4:	40d90dbb          	subw	x27,x18,x13
    800016b8:	c828859b          	addiw	x11,x17,-894 # ffffffff93a631b2 <_start+0xffffffff13a631b2>
    800016bc:	d2438097          	auipc	x1,0xd2438
    800016c0:	4101de33          	sra	x28,x3,x16
    800016c4:	b9c1831b          	addiw	x6,x3,-1124
    800016c8:	9570f497          	auipc	x9,0x9570f
    800016cc:	0167d1b3          	srl	x3,x15,x22
    800016d0:	8ffa061b          	addiw	x12,x20,-1793 # ffffffffd48608ff <_start+0xffffffff548608ff>
    800016d4:	d32607b7          	lui	x15,0xd3260
    800016d8:	01f436b3          	sltu	x13,x8,x31
    800016dc:	4062d39b          	sraiw	x7,x5,0x6
    800016e0:	4a73da37          	lui	x20,0x4a73d
    800016e4:	0128f633          	and	x12,x17,x18
    800016e8:	cc5dc793          	xori	x15,x27,-827
    800016ec:	5cde2537          	lui	x10,0x5cde2
    800016f0:	000f1c3b          	sllw	x24,x30,x0
    800016f4:	2101f213          	andi	x4,x3,528
    800016f8:	3535e1b7          	lui	x3,0x3535e
    800016fc:	4128dbb3          	sra	x23,x17,x18
    80001700:	12a88c9b          	addiw	x25,x17,298
    80001704:	2e646f97          	auipc	x31,0x2e646
    80001708:	00ca60b3          	or	x1,x20,x12
    8000170c:	2e1be893          	ori	x17,x23,737
    80001710:	ae39ea37          	lui	x20,0xae39e
    80001714:	01ae7d33          	and	x26,x28,x26
    80001718:	01c15f9b          	srliw	x31,x2,0x1c
    8000171c:	319690b7          	lui	x1,0x31969
    80001720:	0194abb3          	slt	x23,x9,x25
    80001724:	8927f493          	andi	x9,x15,-1902
    80001728:	a4807d17          	auipc	x26,0xa4807
    8000172c:	00ced3b3          	srl	x7,x29,x12
    80001730:	0186d69b          	srliw	x13,x13,0x18
    80001734:	c9a0d037          	lui	x0,0xc9a0d
    80001738:	00ba5ab3          	srl	x21,x20,x11
    8000173c:	002b1e13          	slli	x28,x22,0x2
    80001740:	0c63b5b7          	lui	x11,0xc63b
    80001744:	41d1023b          	subw	x4,x2,x29
    80001748:	156bb093          	sltiu	x1,x23,342
    8000174c:	b9118db7          	lui	x27,0xb9118
    80001750:	01a1ea33          	or	x20,x3,x26
    80001754:	22874b93          	xori	x23,x14,552
    80001758:	2142a017          	auipc	x0,0x2142a
    8000175c:	00db24b3          	slt	x9,x22,x13
    80001760:	67ed4313          	xori	x6,x26,1662
    80001764:	015863b7          	lui	x7,0x1586
    80001768:	001c4ab3          	xor	x21,x24,x1
    8000176c:	9bcda693          	slti	x13,x27,-1604
    80001770:	73ccbf37          	lui	x30,0x73ccb
    80001774:	0134a433          	slt	x8,x9,x19
    80001778:	414cd61b          	sraiw	x12,x25,0x14
    8000177c:	19936a97          	auipc	x21,0x19936
    80001780:	006d6233          	or	x4,x26,x6
    80001784:	b602c193          	xori	x3,x5,-1184
    80001788:	2ede3b37          	lui	x22,0x2ede3
    8000178c:	01cd1eb3          	sll	x29,x26,x28
    80001790:	6657871b          	addiw	x14,x15,1637 # ffffffffd3260665 <_start+0xffffffff53260665>
    80001794:	a336e017          	auipc	x0,0xa336e
    80001798:	4053d933          	sra	x18,x7,x5
    8000179c:	167a051b          	addiw	x10,x20,359 # ffffffffae39e167 <_start+0xffffffff2e39e167>
    800017a0:	19bfeb17          	auipc	x22,0x19bfe
    800017a4:	007a2a33          	slt	x20,x20,x7
    800017a8:	02791413          	slli	x8,x18,0x27
    800017ac:	a0c4beb7          	lui	x29,0xa0c4b
    800017b0:	01849c33          	sll	x24,x9,x24
    800017b4:	4397d493          	srai	x9,x15,0x39
    800017b8:	9f4139b7          	lui	x19,0x9f413
    800017bc:	01910cbb          	addw	x25,x2,x25
    800017c0:	00059f13          	slli	x30,x11,0x0
    800017c4:	a87d1e37          	lui	x28,0xa87d1
    800017c8:	0111d93b          	srlw	x18,x3,x17
    800017cc:	829b4993          	xori	x19,x22,-2007
    800017d0:	9ec8d037          	lui	x0,0x9ec8d
    800017d4:	411257b3          	sra	x15,x4,x17
    800017d8:	00f8909b          	slliw	x1,x17,0xf
    800017dc:	9a4ecf17          	auipc	x30,0x9a4ec
    800017e0:	019394bb          	sllw	x9,x7,x25
    800017e4:	03d81a93          	slli	x21,x16,0x3d
    800017e8:	07a06597          	auipc	x11,0x7a06
    800017ec:	01ba1f3b          	sllw	x30,x20,x27
    800017f0:	16bd0a1b          	addiw	x20,x26,363 # 24808893 <_start-0x5b7f776d>
    800017f4:	2eadc537          	lui	x10,0x2eadc
    800017f8:	0087c6b3          	xor	x13,x15,x8
    800017fc:	f16b7413          	andi	x8,x22,-234
    80001800:	e89f2a37          	lui	x20,0xe89f2
    80001804:	0038a4b3          	slt	x9,x17,x3
    80001808:	9ab2ac13          	slti	x24,x5,-1621
    8000180c:	aa353617          	auipc	x12,0xaa353
    80001810:	017700bb          	addw	x1,x14,x23
    80001814:	73c57313          	andi	x6,x10,1852
    80001818:	9b0dda37          	lui	x20,0x9b0dd
    8000181c:	016d853b          	addw	x10,x27,x22
    80001820:	0161161b          	slliw	x12,x2,0x16
    80001824:	e5ce9e37          	lui	x28,0xe5ce9
    80001828:	00d2dabb          	srlw	x21,x5,x13
    8000182c:	076c049b          	addiw	x9,x24,118 # ffffffffabf066f6 <_start+0xffffffff2bf066f6>
    80001830:	e4181017          	auipc	x0,0xe4181
    80001834:	0086c433          	xor	x8,x13,x8
    80001838:	986baf13          	slti	x30,x23,-1658
    8000183c:	c1f9e817          	auipc	x16,0xc1f9e
    80001840:	01cadeb3          	srl	x29,x21,x28
    80001844:	86700513          	addi	x10,x0,-1945
    80001848:	6ca5c417          	auipc	x8,0x6ca5c
    8000184c:	403852b3          	sra	x5,x16,x3
    80001850:	019d5d9b          	srliw	x27,x26,0x19
    80001854:	359a7537          	lui	x10,0x359a7
    80001858:	009040b3          	xor	x1,x0,x9
    8000185c:	024b9913          	slli	x18,x23,0x24
    80001860:	f696a637          	lui	x12,0xf696a
    80001864:	00b495b3          	sll	x11,x9,x11
    80001868:	f9ed4093          	xori	x1,x26,-98
    8000186c:	0922c997          	auipc	x19,0x922c
    80001870:	00c75eb3          	srl	x29,x14,x12
    80001874:	e7ef8893          	addi	x17,x31,-386 # ae647582 <_start+0x2e647582>
    80001878:	7cdb1937          	lui	x18,0x7cdb1
    8000187c:	013c8e33          	add	x28,x25,x19
    80001880:	fb6df213          	andi	x4,x27,-74
    80001884:	fcdf0997          	auipc	x19,0xfcdf0
    80001888:	4097833b          	subw	x6,x15,x9
    8000188c:	1746b093          	sltiu	x1,x13,372
    80001890:	8c5d0b97          	auipc	x23,0x8c5d0
    80001894:	00206733          	or	x14,x0,x2
    80001898:	40825c1b          	sraiw	x24,x4,0x8
    8000189c:	547dcf97          	auipc	x31,0x547dc
    800018a0:	012d80b3          	add	x1,x27,x18
    800018a4:	a832b993          	sltiu	x19,x5,-1405
    800018a8:	5f94f2b7          	lui	x5,0x5f94f
    800018ac:	40d0073b          	subw	x14,x0,x13
    800018b0:	882de613          	ori	x12,x27,-1918
    800018b4:	051e2ab7          	lui	x21,0x51e2
    800018b8:	00bd8dbb          	addw	x27,x27,x11
    800018bc:	3de9f113          	andi	x2,x19,990
    800018c0:	d1a16197          	auipc	x3,0xd1a16
    800018c4:	00aa66b3          	or	x13,x20,x10
    800018c8:	40b4531b          	sraiw	x6,x8,0xb
    800018cc:	391d1eb7          	lui	x29,0x391d1
    800018d0:	013a0a3b          	addw	x20,x20,x19
    800018d4:	00a19a9b          	slliw	x21,x3,0xa
    800018d8:	ef98f417          	auipc	x8,0xef98f
    800018dc:	00d2f7b3          	and	x15,x5,x13
    800018e0:	02819613          	slli	x12,x3,0x28
    800018e4:	5bd0a4b7          	lui	x9,0x5bd0a
    800018e8:	002d88bb          	addw	x17,x27,x2
    800018ec:	0946fe13          	andi	x28,x13,148
    800018f0:	4c013e97          	auipc	x29,0x4c013
    800018f4:	4053033b          	subw	x6,x6,x5
    800018f8:	5a9a079b          	addiw	x15,x20,1449 # ffffffff9b0dd5a9 <_start+0xffffffff1b0dd5a9>
    800018fc:	00ce4d37          	lui	x26,0xce4
    80001900:	0100023b          	addw	x4,x0,x16
    80001904:	00ce1a13          	slli	x20,x28,0xc
    80001908:	942bb6b7          	lui	x13,0x942bb
    8000190c:	00f39cb3          	sll	x25,x7,x15
    80001910:	f56c0f13          	addi	x30,x24,-170
    80001914:	f852aa17          	auipc	x20,0xf852a
    80001918:	00d9d7bb          	srlw	x15,x19,x13
    8000191c:	02709613          	slli	x12,x1,0x27
    80001920:	a40d12b7          	lui	x5,0xa40d1
    80001924:	411b09b3          	sub	x19,x22,x17
    80001928:	47af3a93          	sltiu	x21,x30,1146
    8000192c:	40613cb7          	lui	x25,0x40613
    80001930:	00eff033          	and	x0,x31,x14
    80001934:	41e5dd9b          	sraiw	x27,x11,0x1e
    80001938:	7026f897          	auipc	x17,0x7026f
    8000193c:	001efa33          	and	x20,x29,x1
    80001940:	02225c13          	srli	x24,x4,0x22
    80001944:	07f385b7          	lui	x11,0x7f38
    80001948:	00ead4bb          	srlw	x9,x21,x14
    8000194c:	00e0539b          	srliw	x7,x0,0xe
    80001950:	81ca9217          	auipc	x4,0x81ca9
    80001954:	41cadbb3          	sra	x23,x21,x28
    80001958:	410dd413          	srai	x8,x27,0x10
    8000195c:	f5f76a17          	auipc	x20,0xf5f76
    80001960:	01df0fbb          	addw	x31,x30,x29
    80001964:	008a981b          	slliw	x16,x21,0x8
    80001968:	cade0cb7          	lui	x25,0xcade0
    8000196c:	00b6de33          	srl	x28,x13,x11
    80001970:	14826d93          	ori	x27,x4,328
    80001974:	cb5b3417          	auipc	x8,0xcb5b3
    80001978:	41a3da33          	sra	x20,x7,x26
    8000197c:	01735e13          	srli	x28,x6,0x17
    80001980:	e9780d17          	auipc	x26,0xe9780
    80001984:	018e8c33          	add	x24,x29,x24
    80001988:	02581313          	slli	x6,x16,0x25
    8000198c:	9e433197          	auipc	x3,0x9e433
    80001990:	01b2f3b3          	and	x7,x5,x27
    80001994:	d3e2c613          	xori	x12,x5,-706
    80001998:	51809417          	auipc	x8,0x51809
    8000199c:	00a201b3          	add	x3,x4,x10
    800019a0:	df15859b          	addiw	x11,x11,-527 # 7f37df1 <_start-0x780c820f>
    800019a4:	be001537          	lui	x10,0xbe001
    800019a8:	40d48833          	sub	x16,x9,x13
    800019ac:	010a5b1b          	srliw	x22,x20,0x10
    800019b0:	1cf7b9b7          	lui	x19,0x1cf7b
    800019b4:	00dd0533          	add	x10,x26,x13
    800019b8:	229e081b          	addiw	x16,x28,553 # ffffffffe5ce9229 <_start+0xffffffff65ce9229>
    800019bc:	d9ba91b7          	lui	x3,0xd9ba9
    800019c0:	41510c3b          	subw	x24,x2,x21
    800019c4:	300def13          	ori	x30,x27,768
    800019c8:	04bd00b7          	lui	x1,0x4bd0
    800019cc:	00ce46b3          	xor	x13,x28,x12
    800019d0:	4156501b          	sraiw	x0,x12,0x15
    800019d4:	38e47a17          	auipc	x20,0x38e47
    800019d8:	40798b33          	sub	x22,x19,x7
    800019dc:	4e0bc593          	xori	x11,x23,1248
    800019e0:	2a80c0b7          	lui	x1,0x2a80c
    800019e4:	40dbd13b          	sraw	x2,x23,x13
    800019e8:	bb584f93          	xori	x31,x16,-1099
    800019ec:	ad41b417          	auipc	x8,0xad41b
    800019f0:	41ac8233          	sub	x4,x25,x26
    800019f4:	40f5529b          	sraiw	x5,x10,0xf
    800019f8:	c4f5c4b7          	lui	x9,0xc4f5c
    800019fc:	408f043b          	subw	x8,x30,x8
    80001a00:	56558993          	addi	x19,x11,1381
    80001a04:	34179937          	lui	x18,0x34179
    80001a08:	00cb1dbb          	sllw	x27,x22,x12
    80001a0c:	01051f1b          	slliw	x30,x10,0x10
    80001a10:	6c90f7b7          	lui	x15,0x6c90f
    80001a14:	01f990b3          	sll	x1,x19,x31
    80001a18:	01b4921b          	slliw	x4,x9,0x1b
    80001a1c:	132bde37          	lui	x28,0x132bd
    80001a20:	40560633          	sub	x12,x12,x5
    80001a24:	fb21851b          	addiw	x10,x3,-78 # ffffffffd9ba8fb2 <_start+0xffffffff59ba8fb2>
    80001a28:	213abd97          	auipc	x27,0x213ab
    80001a2c:	40488733          	sub	x14,x17,x4
    80001a30:	f9d27393          	andi	x7,x4,-99
    80001a34:	1bbe70b7          	lui	x1,0x1bbe7
    80001a38:	014a2933          	slt	x18,x20,x20
    80001a3c:	febf4793          	xori	x15,x30,-21
    80001a40:	31d1bb37          	lui	x22,0x31d1b
    80001a44:	009c82bb          	addw	x5,x25,x9
    80001a48:	e7582813          	slti	x16,x16,-395
    80001a4c:	f53e7497          	auipc	x9,0xf53e7
    80001a50:	0188ee33          	or	x28,x17,x24
    80001a54:	4ed33a93          	sltiu	x21,x6,1261
    80001a58:	86386717          	auipc	x14,0x86386
    80001a5c:	419202bb          	subw	x5,x4,x25
    80001a60:	b848899b          	addiw	x19,x17,-1148 # fffffffff02704bc <_start+0xffffffff702704bc>
    80001a64:	b0c7eb37          	lui	x22,0xb0c7e
    80001a68:	009a5f33          	srl	x30,x20,x9
    80001a6c:	ec670493          	addi	x9,x14,-314 # 638791e <_start-0x79c786e2>
    80001a70:	9425a397          	auipc	x7,0x9425a
    80001a74:	00d01633          	sll	x12,x0,x13
    80001a78:	8cfd0813          	addi	x16,x26,-1841 # 6978124f <_start-0x1687edb1>
    80001a7c:	18b40d37          	lui	x26,0x18b40
    80001a80:	009a8733          	add	x14,x21,x9
    80001a84:	003b5513          	srli	x10,x22,0x3
    80001a88:	d76c7197          	auipc	x3,0xd76c7
    80001a8c:	001d7e33          	and	x28,x26,x1
    80001a90:	4030d61b          	sraiw	x12,x1,0x3
    80001a94:	3cabeb17          	auipc	x22,0x3cabe
    80001a98:	01ec9c33          	sll	x24,x25,x30
    80001a9c:	b24a8f93          	addi	x31,x21,-1244 # 51e1b24 <_start-0x7ae1e4dc>
    80001aa0:	d2e0e337          	lui	x6,0xd2e0e
    80001aa4:	0031d4bb          	srlw	x9,x3,x3
    80001aa8:	cf9eb193          	sltiu	x3,x29,-775
    80001aac:	f7554537          	lui	x10,0xf7554
    80001ab0:	40f5db3b          	sraw	x22,x11,x15
    80001ab4:	79d94093          	xori	x1,x18,1949
    80001ab8:	74ff7f37          	lui	x30,0x74ff7
    80001abc:	017c46b3          	xor	x13,x24,x23
    80001ac0:	01d45193          	srli	x3,x8,0x1d
    80001ac4:	de35a2b7          	lui	x5,0xde35a
    80001ac8:	01095c3b          	srlw	x24,x18,x16
    80001acc:	e24e6a93          	ori	x21,x28,-476
    80001ad0:	c7ee5937          	lui	x18,0xc7ee5
    80001ad4:	01a7ccb3          	xor	x25,x15,x26
    80001ad8:	98b20e1b          	addiw	x28,x4,-1653 # 1caa2db <_start-0x7e355d25>
    80001adc:	f5a9e617          	auipc	x12,0xf5a9e
    80001ae0:	018a57b3          	srl	x15,x20,x24
    80001ae4:	40e5571b          	sraiw	x14,x10,0xe
    80001ae8:	798624b7          	lui	x9,0x79862
    80001aec:	00ad0ebb          	addw	x29,x26,x10
    80001af0:	5e694f13          	xori	x30,x18,1510
    80001af4:	c2dd9517          	auipc	x10,0xc2dd9
    80001af8:	01b58c3b          	addw	x24,x11,x27
    80001afc:	1b41ce13          	xori	x28,x3,436
    80001b00:	34019317          	auipc	x6,0x34019
    80001b04:	00596733          	or	x14,x18,x5
    80001b08:	6df7f393          	andi	x7,x15,1759
    80001b0c:	baa63537          	lui	x10,0xbaa63
    80001b10:	41510f3b          	subw	x30,x2,x21
    80001b14:	00cbd813          	srli	x16,x23,0xc
    80001b18:	3db21b37          	lui	x22,0x3db21
    80001b1c:	008d98bb          	sllw	x17,x27,x8
    80001b20:	49366013          	ori	x0,x12,1171
    80001b24:	535f30b7          	lui	x1,0x535f3
    80001b28:	00f791bb          	sllw	x3,x15,x15
    80001b2c:	42787f93          	andi	x31,x16,1063
    80001b30:	f268f537          	lui	x10,0xf268f
    80001b34:	000a5a33          	srl	x20,x20,x0
    80001b38:	f9222093          	slti	x1,x4,-110
    80001b3c:	aa151fb7          	lui	x31,0xaa151
    80001b40:	40a882bb          	subw	x5,x17,x10
    80001b44:	4044d89b          	sraiw	x17,x9,0x4
    80001b48:	631ef217          	auipc	x4,0x631ef
    80001b4c:	01f06333          	or	x6,x0,x31
    80001b50:	0118501b          	srliw	x0,x16,0x11
    80001b54:	0a68ed17          	auipc	x26,0xa68e
    80001b58:	415e083b          	subw	x16,x28,x21
    80001b5c:	40235b1b          	sraiw	x22,x6,0x2
    80001b60:	04b92ab7          	lui	x21,0x4b92
    80001b64:	0025b633          	sltu	x12,x11,x2
    80001b68:	6cac7013          	andi	x0,x24,1738
    80001b6c:	c10994b7          	lui	x9,0xc1099
    80001b70:	011f0833          	add	x16,x30,x17
    80001b74:	01bed313          	srli	x6,x29,0x1b
    80001b78:	307e9f37          	lui	x30,0x307e9
    80001b7c:	01ab33b3          	sltu	x7,x22,x26
    80001b80:	019cde9b          	srliw	x29,x25,0x19
    80001b84:	763d5497          	auipc	x9,0x763d5
    80001b88:	40c0dab3          	sra	x21,x1,x12
    80001b8c:	005f941b          	slliw	x8,x31,0x5
    80001b90:	eb05c1b7          	lui	x3,0xeb05c
    80001b94:	00d8903b          	sllw	x0,x17,x13
    80001b98:	d8bfe813          	ori	x16,x31,-629
    80001b9c:	5a4fbcb7          	lui	x25,0x5a4fb
    80001ba0:	01a7533b          	srlw	x6,x14,x26
    80001ba4:	00cddc1b          	srliw	x24,x27,0xc
    80001ba8:	1a370a17          	auipc	x20,0x1a370
    80001bac:	01300433          	add	x8,x0,x19
    80001bb0:	417bdf1b          	sraiw	x30,x23,0x17
    80001bb4:	90773797          	auipc	x15,0x90773
    80001bb8:	00c5f933          	and	x18,x11,x12
    80001bbc:	61cb3113          	sltiu	x2,x22,1564
    80001bc0:	31dbeeb7          	lui	x29,0x31dbe
    80001bc4:	00e5c333          	xor	x6,x11,x14
    80001bc8:	34354993          	xori	x19,x10,835
    80001bcc:	05913497          	auipc	x9,0x5913
    80001bd0:	002fbe33          	sltu	x28,x31,x2
    80001bd4:	007b971b          	slliw	x14,x23,0x7
    80001bd8:	25ef5817          	auipc	x16,0x25ef5
    80001bdc:	40fcd1b3          	sra	x3,x25,x15
    80001be0:	00b6929b          	slliw	x5,x13,0xb
    80001be4:	11655f17          	auipc	x30,0x11655
    80001be8:	00b507bb          	addw	x15,x10,x11
    80001bec:	631b3113          	sltiu	x2,x22,1585
    80001bf0:	60845d97          	auipc	x27,0x60845
    80001bf4:	017e3bb3          	sltu	x23,x28,x23
    80001bf8:	00ee909b          	slliw	x1,x29,0xe
    80001bfc:	d1143c97          	auipc	x25,0xd1143
    80001c00:	00294933          	xor	x18,x18,x2
    80001c04:	00d5539b          	srliw	x7,x10,0xd
    80001c08:	bb9f9097          	auipc	x1,0xbb9f9
    80001c0c:	40e5dd33          	sra	x26,x11,x14
    80001c10:	19d43113          	sltiu	x2,x8,413
    80001c14:	96b86837          	lui	x16,0x96b86
    80001c18:	00e700b3          	add	x1,x14,x14
    80001c1c:	41505c93          	srai	x25,x0,0x15
    80001c20:	d68c4637          	lui	x12,0xd68c4
    80001c24:	009def33          	or	x30,x27,x9
    80001c28:	4168d69b          	sraiw	x13,x17,0x16
    80001c2c:	2eb9ecb7          	lui	x25,0x2eb9e
    80001c30:	001b033b          	addw	x6,x22,x1
    80001c34:	030d9f13          	slli	x30,x27,0x30
    80001c38:	63fb9597          	auipc	x11,0x63fb9
    80001c3c:	008d3c33          	sltu	x24,x26,x8
    80001c40:	92a9899b          	addiw	x19,x19,-1750 # 1cf7a92a <_start-0x630856d6>
    80001c44:	7e6efe17          	auipc	x28,0x7e6ef
    80001c48:	01e2e433          	or	x8,x5,x30
    80001c4c:	9653b793          	sltiu	x15,x7,-1691
    80001c50:	cab3e3b7          	lui	x7,0xcab3e
    80001c54:	41bb883b          	subw	x16,x23,x27
    80001c58:	138b0213          	addi	x4,x22,312 # 3db21138 <_start-0x424deec8>
    80001c5c:	16ca5b97          	auipc	x23,0x16ca5
    80001c60:	011513b3          	sll	x7,x10,x17
    80001c64:	02ca9193          	slli	x3,x21,0x2c
    80001c68:	ea656c37          	lui	x24,0xea656
    80001c6c:	014a84bb          	addw	x9,x21,x20
    80001c70:	37620e13          	addi	x28,x4,886 # e31f0ebe <_start+0x631f0ebe>
    80001c74:	61b84f17          	auipc	x30,0x61b84
    80001c78:	003c7533          	and	x10,x24,x3
    80001c7c:	41b1501b          	sraiw	x0,x2,0x1b
    80001c80:	68a6d8b7          	lui	x17,0x68a6d
    80001c84:	018a2eb3          	slt	x29,x20,x24
    80001c88:	01e9569b          	srliw	x13,x18,0x1e
    80001c8c:	023c6237          	lui	x4,0x23c6
    80001c90:	01e13833          	sltu	x16,x2,x30
    80001c94:	028f9b93          	slli	x23,x31,0x28
    80001c98:	ae32a137          	lui	x2,0xae32a
    80001c9c:	0193aab3          	slt	x21,x7,x25
    80001ca0:	035e5c13          	srli	x24,x28,0x35
    80001ca4:	8033b337          	lui	x6,0x8033b
    80001ca8:	01e57933          	and	x18,x10,x30
    80001cac:	000d971b          	slliw	x14,x27,0x0
    80001cb0:	f18ca117          	auipc	x2,0xf18ca
    80001cb4:	01887d33          	and	x26,x16,x24
    80001cb8:	4088d613          	srai	x12,x17,0x8
    80001cbc:	d6446397          	auipc	x7,0xd6446
    80001cc0:	016826b3          	slt	x13,x16,x22
    80001cc4:	76acbd93          	sltiu	x27,x25,1898
    80001cc8:	83a39117          	auipc	x2,0x83a39
    80001ccc:	0143da33          	srl	x20,x7,x20
    80001cd0:	1278bb93          	sltiu	x23,x17,295
    80001cd4:	022c6337          	lui	x6,0x22c6
    80001cd8:	01a9d93b          	srlw	x18,x19,x26
    80001cdc:	41dcdc1b          	sraiw	x24,x25,0x1d
    80001ce0:	5cd30497          	auipc	x9,0x5cd30
    80001ce4:	01fb0eb3          	add	x29,x22,x31
    80001ce8:	03751613          	slli	x12,x10,0x37
    80001cec:	10c66c37          	lui	x24,0x10c66
    80001cf0:	01a703b3          	add	x7,x14,x26
    80001cf4:	0180911b          	slliw	x2,x1,0x18
    80001cf8:	6b753a97          	auipc	x21,0x6b753
    80001cfc:	40600533          	sub	x10,x0,x6
    80001d00:	0080db13          	srli	x22,x1,0x8
    80001d04:	4a86e437          	lui	x8,0x4a86e
    80001d08:	01f2adb3          	slt	x27,x5,x31
    80001d0c:	f01ac393          	xori	x7,x21,-255
    80001d10:	e5ebd0b7          	lui	x1,0xe5ebd
    80001d14:	0162a633          	slt	x12,x5,x22
    80001d18:	988f2113          	slti	x2,x30,-1656
    80001d1c:	74ec6bb7          	lui	x23,0x74ec6
    80001d20:	01bdd73b          	srlw	x14,x27,x27
    80001d24:	7d106e13          	ori	x28,x0,2001
    80001d28:	336a0d97          	auipc	x27,0x336a0
    80001d2c:	00b13233          	sltu	x4,x2,x11
    80001d30:	00cad59b          	srliw	x11,x21,0xc
    80001d34:	990bd9b7          	lui	x19,0x990bd
    80001d38:	00633433          	sltu	x8,x6,x6
    80001d3c:	1201f113          	andi	x2,x3,288
    80001d40:	d8c61f97          	auipc	x31,0xd8c61
    80001d44:	00593533          	sltu	x10,x18,x5
    80001d48:	bdb72693          	slti	x13,x14,-1061
    80001d4c:	19355e37          	lui	x28,0x19355
    80001d50:	414009bb          	subw	x19,x0,x20
    80001d54:	217ceb93          	ori	x23,x25,535
    80001d58:	08aa3d37          	lui	x26,0x8aa3
    80001d5c:	007000b3          	add	x1,x0,x7
    80001d60:	4075de9b          	sraiw	x29,x11,0x7
    80001d64:	83001537          	lui	x10,0x83001
    80001d68:	004d2133          	slt	x2,x26,x4
    80001d6c:	02249413          	slli	x8,x9,0x22
    80001d70:	451e7fb7          	lui	x31,0x451e7
    80001d74:	00d6b233          	sltu	x4,x13,x13
    80001d78:	4036d51b          	sraiw	x10,x13,0x3
    80001d7c:	9528d7b7          	lui	x15,0x9528d
    80001d80:	01e496bb          	sllw	x13,x9,x30
    80001d84:	2bc90213          	addi	x4,x18,700 # ffffffffc7ee52bc <_start+0xffffffff47ee52bc>
    80001d88:	26c4c3b7          	lui	x7,0x26c4c
    80001d8c:	418a073b          	subw	x14,x20,x24
    80001d90:	f7732313          	slti	x6,x6,-137
    80001d94:	c202a5b7          	lui	x11,0xc202a
    80001d98:	00768bb3          	add	x23,x13,x7
    80001d9c:	019a5a13          	srli	x20,x20,0x19
    80001da0:	34248897          	auipc	x17,0x34248
    80001da4:	406fd73b          	sraw	x14,x31,x6
    80001da8:	205b7f13          	andi	x30,x22,517
    80001dac:	0c99dc17          	auipc	x24,0xc99d
    80001db0:	01a6dfbb          	srlw	x31,x13,x26
    80001db4:	01419b9b          	slliw	x23,x3,0x14
    80001db8:	bf76c697          	auipc	x13,0xbf76c
    80001dbc:	01eee233          	or	x4,x29,x30
    80001dc0:	10777713          	andi	x14,x14,263
    80001dc4:	6a47ce37          	lui	x28,0x6a47c
    80001dc8:	41d68db3          	sub	x27,x13,x29
    80001dcc:	98e34293          	xori	x5,x6,-1650
    80001dd0:	c1638d17          	auipc	x26,0xc1638
    80001dd4:	01efd133          	srl	x2,x31,x30
    80001dd8:	97caae13          	slti	x28,x21,-1668
    80001ddc:	540a0297          	auipc	x5,0x540a0
    80001de0:	00c7883b          	addw	x16,x15,x12
    80001de4:	24f56d13          	ori	x26,x10,591
    80001de8:	57848c97          	auipc	x25,0x57848
    80001dec:	01622b33          	slt	x22,x4,x22
    80001df0:	02d6d213          	srli	x4,x13,0x2d
    80001df4:	0f5fc197          	auipc	x3,0xf5fc
    80001df8:	406cdfbb          	sraw	x31,x25,x6
    80001dfc:	00d6569b          	srliw	x13,x12,0xd
    80001e00:	943c3c37          	lui	x24,0x943c3
    80001e04:	00308a3b          	addw	x20,x1,x3
    80001e08:	00ef579b          	srliw	x15,x30,0xe
    80001e0c:	f3b4e737          	lui	x14,0xf3b4e
    80001e10:	406103b3          	sub	x7,x2,x6
    80001e14:	e55e4b93          	xori	x23,x28,-427
    80001e18:	03be7617          	auipc	x12,0x3be7
    80001e1c:	01e4fcb3          	and	x25,x9,x30
    80001e20:	0035101b          	slliw	x0,x10,0x3
    80001e24:	d24b3317          	auipc	x6,0xd24b3
    80001e28:	40fb8d33          	sub	x26,x23,x15
    80001e2c:	412c5f93          	srai	x31,x24,0x12
    80001e30:	a0d9d817          	auipc	x16,0xa0d9d
    80001e34:	002005b3          	add	x11,x0,x2
    80001e38:	000c5893          	srli	x17,x24,0x0
    80001e3c:	1dd789b7          	lui	x19,0x1dd78
    80001e40:	0036d1b3          	srl	x3,x13,x3
    80001e44:	03df1293          	slli	x5,x30,0x3d
    80001e48:	c5c65a97          	auipc	x21,0xc5c65
    80001e4c:	013f0f33          	add	x30,x30,x19
    80001e50:	d5038993          	addi	x19,x7,-688 # 26c4bd50 <_start-0x593b42b0>
    80001e54:	5b419737          	lui	x14,0x5b419
    80001e58:	01102333          	slt	x6,x0,x17
    80001e5c:	41e9509b          	sraiw	x1,x18,0x1e
    80001e60:	8938d797          	auipc	x15,0x8938d
    80001e64:	01dddbbb          	srlw	x23,x27,x29
    80001e68:	00cad593          	srli	x11,x21,0xc
    80001e6c:	14c91a37          	lui	x20,0x14c91
    80001e70:	010fa833          	slt	x16,x31,x16
    80001e74:	97e3e713          	ori	x14,x7,-1666
    80001e78:	a79d5d37          	lui	x26,0xa79d5
    80001e7c:	415388bb          	subw	x17,x7,x21
    80001e80:	e639801b          	addiw	x0,x19,-413 # 1dd77e63 <_start-0x6228819d>
    80001e84:	637a2f97          	auipc	x31,0x637a2
    80001e88:	40add2b3          	sra	x5,x27,x10
    80001e8c:	417c5993          	srai	x19,x24,0x17
    80001e90:	36357e97          	auipc	x29,0x36357
    80001e94:	4076d4b3          	sra	x9,x13,x7
    80001e98:	4b162a93          	slti	x21,x12,1201
    80001e9c:	d284bd37          	lui	x26,0xd284b
    80001ea0:	01f8193b          	sllw	x18,x16,x31
    80001ea4:	36f6a413          	slti	x8,x13,879
    80001ea8:	cc59af97          	auipc	x31,0xcc59a
    80001eac:	00ed0e3b          	addw	x28,x26,x14
    80001eb0:	00d0149b          	slliw	x9,x0,0xd
    80001eb4:	6dfdd617          	auipc	x12,0x6dfdd
    80001eb8:	40e005b3          	sub	x11,x0,x14
    80001ebc:	036a9313          	slli	x6,x21,0x36
    80001ec0:	d6b0cbb7          	lui	x23,0xd6b0c
    80001ec4:	007001bb          	addw	x3,x0,x7
    80001ec8:	00d1159b          	slliw	x11,x2,0xd
    80001ecc:	68f98117          	auipc	x2,0x68f98
    80001ed0:	019ac4b3          	xor	x9,x21,x25
    80001ed4:	414bd81b          	sraiw	x16,x23,0x14
    80001ed8:	500b3f97          	auipc	x31,0x500b3
    80001edc:	01196b33          	or	x22,x18,x17
    80001ee0:	78c20d13          	addi	x26,x4,1932 # 23c678c <_start-0x7dc39874>
    80001ee4:	9d834037          	lui	x0,0x9d834
    80001ee8:	009cd7bb          	srlw	x15,x25,x9
    80001eec:	c7d9c913          	xori	x18,x19,-899
    80001ef0:	4590f517          	auipc	x10,0x4590f
    80001ef4:	00d5cdb3          	xor	x27,x11,x13
    80001ef8:	01c6549b          	srliw	x9,x12,0x1c
    80001efc:	d44adf17          	auipc	x30,0xd44ad
    80001f00:	0067ca33          	xor	x20,x15,x6
    80001f04:	5fe76d13          	ori	x26,x14,1534
    80001f08:	af7be097          	auipc	x1,0xaf7be
    80001f0c:	410f5e3b          	sraw	x28,x30,x16
    80001f10:	25817a93          	andi	x21,x2,600
    80001f14:	e0a84617          	auipc	x12,0xe0a84
    80001f18:	41d1513b          	sraw	x2,x2,x29
    80001f1c:	0129df1b          	srliw	x30,x19,0x12
    80001f20:	df6c0a97          	auipc	x21,0xdf6c0
    80001f24:	016fd5bb          	srlw	x11,x31,x22
    80001f28:	0161979b          	slliw	x15,x3,0x16
    80001f2c:	d3268b97          	auipc	x23,0xd3268
    80001f30:	0136b0b3          	sltu	x1,x13,x19
    80001f34:	35607b13          	andi	x22,x0,854
    80001f38:	f0d0e9b7          	lui	x19,0xf0d0e
    80001f3c:	00873ab3          	sltu	x21,x14,x8
    80001f40:	01309c9b          	slliw	x25,x1,0x13
    80001f44:	6f564a37          	lui	x20,0x6f564
    80001f48:	00c851b3          	srl	x3,x16,x12
    80001f4c:	0650a913          	slti	x18,x1,101
    80001f50:	1a21e597          	auipc	x11,0x1a21e
    80001f54:	01bd2c33          	slt	x24,x26,x27
    80001f58:	894a3893          	sltiu	x17,x20,-1900
    80001f5c:	f6df7417          	auipc	x8,0xf6df7
    80001f60:	013d7ab3          	and	x21,x26,x19
    80001f64:	00a5139b          	slliw	x7,x10,0xa
    80001f68:	fb3c7337          	lui	x6,0xfb3c7
    80001f6c:	41b4d4b3          	sra	x9,x9,x27
    80001f70:	e0776e93          	ori	x29,x14,-505
    80001f74:	202c0217          	auipc	x4,0x202c0
    80001f78:	01a3973b          	sllw	x14,x7,x26
    80001f7c:	eacace13          	xori	x28,x21,-340
    80001f80:	53937f17          	auipc	x30,0x53937
    80001f84:	0144abb3          	slt	x23,x9,x20
    80001f88:	1d81ac13          	slti	x24,x3,472
    80001f8c:	1bebb037          	lui	x0,0x1bebb
    80001f90:	00a781bb          	addw	x3,x15,x10
    80001f94:	0d076893          	ori	x17,x14,208
    80001f98:	be461c37          	lui	x24,0xbe461
    80001f9c:	01f23ab3          	sltu	x21,x4,x31
    80001fa0:	0176151b          	slliw	x10,x12,0x17
    80001fa4:	4a8d3937          	lui	x18,0x4a8d3
    80001fa8:	01eb1833          	sll	x16,x22,x30
    80001fac:	33668f9b          	addiw	x31,x13,822 # 3f76e0ee <_start-0x40891f12>
    80001fb0:	4c7a0997          	auipc	x19,0x4c7a0
    80001fb4:	002dd233          	srl	x4,x27,x2
    80001fb8:	96e4b113          	sltiu	x2,x9,-1682
    80001fbc:	b63c8bb7          	lui	x23,0xb63c8
    80001fc0:	40d9d733          	sra	x14,x19,x13
    80001fc4:	01ecd21b          	srliw	x4,x25,0x1e
    80001fc8:	67b93db7          	lui	x27,0x67b93
    80001fcc:	0007be33          	sltu	x28,x15,x0
    80001fd0:	01f71b13          	slli	x22,x14,0x1f
    80001fd4:	ac8a3137          	lui	x2,0xac8a3
    80001fd8:	4155093b          	subw	x18,x10,x21
    80001fdc:	d857c813          	xori	x16,x15,-635
    80001fe0:	f019e997          	auipc	x19,0xf019e
    80001fe4:	01d195bb          	sllw	x11,x3,x29
    80001fe8:	0165501b          	srliw	x0,x10,0x16
    80001fec:	8c355297          	auipc	x5,0x8c355
    80001ff0:	007881b3          	add	x3,x17,x7
    80001ff4:	41395e9b          	sraiw	x29,x18,0x13
    80001ff8:	240a73b7          	lui	x7,0x240a7
    80001ffc:	017954b3          	srl	x9,x18,x23
    80002000:	0028529b          	srliw	x5,x16,0x2
    80002004:	b466ee37          	lui	x28,0xb466e
    80002008:	00d7963b          	sllw	x12,x15,x13
    8000200c:	526ec193          	xori	x3,x29,1318
    80002010:	2d9fcc97          	auipc	x25,0x2d9fc
    80002014:	014c1ab3          	sll	x21,x24,x20
    80002018:	02b05513          	srli	x10,x0,0x2b
    8000201c:	99151197          	auipc	x3,0x99151
    80002020:	01625fbb          	srlw	x31,x4,x22
    80002024:	40b0d69b          	sraiw	x13,x1,0xb
    80002028:	5d453b97          	auipc	x23,0x5d453
    8000202c:	00780e3b          	addw	x28,x16,x7
    80002030:	00151e93          	slli	x29,x10,0x1
    80002034:	e4872517          	auipc	x10,0xe4872
    80002038:	013767b3          	or	x15,x14,x19
    8000203c:	014a5d9b          	srliw	x27,x20,0x14
    80002040:	f4bb2717          	auipc	x14,0xf4bb2
    80002044:	0018e2b3          	or	x5,x17,x1
    80002048:	41f0d39b          	sraiw	x7,x1,0x1f
    8000204c:	35761337          	lui	x6,0x35761
    80002050:	0184c9b3          	xor	x19,x9,x24
    80002054:	007c519b          	srliw	x3,x24,0x7
    80002058:	0affe417          	auipc	x8,0xaffe
    8000205c:	00434733          	xor	x14,x6,x4
    80002060:	01c61f13          	slli	x30,x12,0x1c
    80002064:	38f27097          	auipc	x1,0x38f27
    80002068:	404903b3          	sub	x7,x18,x4
    8000206c:	abbc2993          	slti	x19,x24,-1349
    80002070:	5c216037          	lui	x0,0x5c216
    80002074:	012af833          	and	x16,x21,x18
    80002078:	165c3513          	sltiu	x10,x24,357
    8000207c:	8e62c637          	lui	x12,0x8e62c
    80002080:	017d123b          	sllw	x4,x26,x23
    80002084:	0196d313          	srli	x6,x13,0x19
    80002088:	c99652b7          	lui	x5,0xc9965
    8000208c:	0150a7b3          	slt	x15,x1,x21
    80002090:	89de3b13          	sltiu	x22,x28,-1891
    80002094:	185da197          	auipc	x3,0x185da
    80002098:	407280bb          	subw	x1,x5,x7
    8000209c:	e2fc6213          	ori	x4,x24,-465
    800020a0:	e65beab7          	lui	x21,0xe65be
    800020a4:	411c07bb          	subw	x15,x24,x17
    800020a8:	a64cc493          	xori	x9,x25,-1436
    800020ac:	dac54897          	auipc	x17,0xdac54
    800020b0:	000f0b3b          	addw	x22,x30,x0
    800020b4:	007f109b          	slliw	x1,x30,0x7
    800020b8:	64176797          	auipc	x15,0x64176
    800020bc:	41285f33          	sra	x30,x16,x18
    800020c0:	95340493          	addi	x9,x8,-1709 # 8afff9ab <_start+0xafff9ab>
    800020c4:	a1edbe37          	lui	x28,0xa1edb
    800020c8:	00889c3b          	sllw	x24,x17,x8
    800020cc:	4176d09b          	sraiw	x1,x13,0x17
    800020d0:	60aaa437          	lui	x8,0x60aaa
    800020d4:	019a803b          	addw	x0,x21,x25
    800020d8:	f0222193          	slti	x3,x4,-254
    800020dc:	365fbb17          	auipc	x22,0x365fb
    800020e0:	01753733          	sltu	x14,x10,x23
    800020e4:	60734e13          	xori	x28,x6,1543
    800020e8:	70153797          	auipc	x15,0x70153
    800020ec:	41a15a3b          	sraw	x20,x2,x26
    800020f0:	40f2d913          	srai	x18,x5,0xf
    800020f4:	5e4f5e97          	auipc	x29,0x5e4f5
    800020f8:	41840c33          	sub	x24,x8,x24
    800020fc:	413fd69b          	sraiw	x13,x31,0x13
    80002100:	3794d237          	lui	x4,0x3794d
    80002104:	007b5433          	srl	x8,x22,x7
    80002108:	98be6513          	ori	x10,x28,-1653
    8000210c:	4be7eeb7          	lui	x29,0x4be7e
    80002110:	01cfb8b3          	sltu	x17,x31,x28
    80002114:	aad26c13          	ori	x24,x4,-1363
    80002118:	66dabd37          	lui	x26,0x66dab
    8000211c:	00785a3b          	srlw	x20,x16,x7
    80002120:	e5174213          	xori	x4,x14,-431
    80002124:	fdc3ef17          	auipc	x30,0xfdc3e
    80002128:	40e60eb3          	sub	x29,x12,x14
    8000212c:	43405313          	srai	x6,x0,0x34
    80002130:	433959b7          	lui	x19,0x43395
    80002134:	419656b3          	sra	x13,x12,x25
    80002138:	41a3da13          	srai	x20,x7,0x1a
    8000213c:	ffd62397          	auipc	x7,0xffd62
    80002140:	01b0dbbb          	srlw	x23,x1,x27
    80002144:	03bc1a93          	slli	x21,x24,0x3b
    80002148:	a4758937          	lui	x18,0xa4758
    8000214c:	005ee533          	or	x10,x29,x5
    80002150:	7b3e8593          	addi	x11,x29,1971 # 4be7e7b3 <_start-0x3418184d>
    80002154:	ce0caa37          	lui	x20,0xce0ca
    80002158:	013ad4bb          	srlw	x9,x21,x19
    8000215c:	889c3393          	sltiu	x7,x24,-1911
    80002160:	69774197          	auipc	x3,0x69774
    80002164:	00caa633          	slt	x12,x21,x12
    80002168:	33bce013          	ori	x0,x25,827
    8000216c:	2ebc0c17          	auipc	x24,0x2ebc0
    80002170:	01f08ab3          	add	x21,x1,x31
    80002174:	01315f93          	srli	x31,x2,0x13
    80002178:	8378e0b7          	lui	x1,0x8378e
    8000217c:	0031fcb3          	and	x25,x3,x3
    80002180:	91ada413          	slti	x8,x27,-1766
    80002184:	ed4e7617          	auipc	x12,0xed4e7
    80002188:	017e89b3          	add	x19,x29,x23
    8000218c:	4ee88d1b          	addiw	x26,x17,1262 # 5ac5659a <_start-0x253a9a66>
    80002190:	0d474f17          	auipc	x30,0xd474
    80002194:	01c5e5b3          	or	x11,x11,x28
    80002198:	e1677293          	andi	x5,x14,-490
    8000219c:	0ef38097          	auipc	x1,0xef38
    800021a0:	016dffb3          	and	x31,x27,x22
    800021a4:	426ed413          	srai	x8,x29,0x26
    800021a8:	06230ab7          	lui	x21,0x6230
    800021ac:	409e56b3          	sra	x13,x28,x9
    800021b0:	db00c013          	xori	x0,x1,-592
    800021b4:	4c4feb17          	auipc	x22,0x4c4fe
    800021b8:	015ed43b          	srlw	x8,x29,x21
    800021bc:	01365e9b          	srliw	x29,x12,0x13
    800021c0:	27eee897          	auipc	x17,0x27eee
    800021c4:	0093b833          	sltu	x16,x7,x9
    800021c8:	3b4f6093          	ori	x1,x30,948
    800021cc:	82ab2f97          	auipc	x31,0x82ab2
    800021d0:	00b56c33          	or	x24,x10,x11
    800021d4:	42355e13          	srai	x28,x10,0x23
    800021d8:	395b2797          	auipc	x15,0x395b2
    800021dc:	4066d133          	sra	x2,x13,x6
    800021e0:	00db931b          	slliw	x6,x23,0xd
    800021e4:	be365f17          	auipc	x30,0xbe365
    800021e8:	01685933          	srl	x18,x16,x22
    800021ec:	034adc13          	srli	x24,x21,0x34
    800021f0:	e39f8d37          	lui	x26,0xe39f8
    800021f4:	0191d53b          	srlw	x10,x3,x25
    800021f8:	1ea84a13          	xori	x20,x16,490
    800021fc:	0b5a6eb7          	lui	x29,0xb5a6
    80002200:	018b8133          	add	x2,x23,x24
    80002204:	01b45d9b          	srliw	x27,x8,0x1b
    80002208:	30a1c897          	auipc	x17,0x30a1c
    8000220c:	41950833          	sub	x16,x10,x25
    80002210:	007fd713          	srli	x14,x31,0x7
    80002214:	f23a8a17          	auipc	x20,0xf23a8
    80002218:	00488b3b          	addw	x22,x17,x4
    8000221c:	0033991b          	slliw	x18,x7,0x3
    80002220:	7b176997          	auipc	x19,0x7b176
    80002224:	0183ea33          	or	x20,x7,x24
    80002228:	45a18493          	addi	x9,x3,1114 # e97765ba <_start+0x697765ba>
    8000222c:	b0ebb717          	auipc	x14,0xb0ebb
    80002230:	0106cab3          	xor	x21,x13,x16
    80002234:	f642b793          	sltiu	x15,x5,-156
    80002238:	ec2ae5b7          	lui	x11,0xec2ae
    8000223c:	00385c3b          	srlw	x24,x16,x3
    80002240:	0084151b          	slliw	x10,x8,0x8
    80002244:	640c2097          	auipc	x1,0x640c2
    80002248:	0084b5b3          	sltu	x11,x9,x8
    8000224c:	79522893          	slti	x17,x4,1941
    80002250:	5c43df17          	auipc	x30,0x5c43d
    80002254:	0001f933          	and	x18,x3,x0
    80002258:	dbb5c393          	xori	x7,x11,-581
    8000225c:	aa578d97          	auipc	x27,0xaa578
    80002260:	01e36533          	or	x10,x6,x30
    80002264:	003d191b          	slliw	x18,x26,0x3
    80002268:	94297417          	auipc	x8,0x94297
    8000226c:	417104bb          	subw	x9,x2,x23
    80002270:	c3da8013          	addi	x0,x21,-963 # 622fc3d <_start-0x79dd03c3>
    80002274:	00682fb7          	lui	x31,0x682
    80002278:	0142bcb3          	sltu	x25,x5,x20
    8000227c:	d84b051b          	addiw	x10,x22,-636 # ffffffffcc4fff38 <_start+0xffffffff4c4fff38>
    80002280:	f906e9b7          	lui	x19,0xf906e
    80002284:	01580b33          	add	x22,x16,x21
    80002288:	fa296f13          	ori	x30,x18,-94
    8000228c:	6b95b197          	auipc	x3,0x6b95b
    80002290:	0052d43b          	srlw	x8,x5,x5
    80002294:	1cb8e913          	ori	x18,x17,459
    80002298:	62a38597          	auipc	x11,0x62a38
    8000229c:	0102033b          	addw	x6,x4,x16
    800022a0:	014fde13          	srli	x28,x31,0x14
    800022a4:	dc647d37          	lui	x26,0xdc647
    800022a8:	40c384bb          	subw	x9,x7,x12
    800022ac:	0087951b          	slliw	x10,x15,0x8
    800022b0:	e5d9b717          	auipc	x14,0xe5d9b
    800022b4:	41f30d3b          	subw	x26,x6,x31
    800022b8:	99b4009b          	addiw	x1,x8,-1637 # 14298c03 <_start-0x6bd673fd>
    800022bc:	18150a17          	auipc	x20,0x18150
    800022c0:	406a8abb          	subw	x21,x21,x6
    800022c4:	010b0013          	addi	x0,x22,16
    800022c8:	104d01b7          	lui	x3,0x104d0
    800022cc:	0190f633          	and	x12,x1,x25
    800022d0:	b487ef13          	ori	x30,x15,-1208
    800022d4:	a953b797          	auipc	x15,0xa953b
    800022d8:	01cc133b          	sllw	x6,x24,x28
    800022dc:	41c2d41b          	sraiw	x8,x5,0x1c
    800022e0:	e75fc617          	auipc	x12,0xe75fc
    800022e4:	01d23d33          	sltu	x26,x4,x29
    800022e8:	109c819b          	addiw	x3,x25,265 # ffffffffad9fe119 <_start+0xffffffff2d9fe119>
    800022ec:	3b5f8a97          	auipc	x21,0x3b5f8
    800022f0:	01254e33          	xor	x28,x10,x18
    800022f4:	2e98cb13          	xori	x22,x17,745
    800022f8:	abb6f917          	auipc	x18,0xabb6f
    800022fc:	00bf913b          	sllw	x2,x31,x11
    80002300:	01225013          	srli	x0,x4,0x12
    80002304:	830f7c37          	lui	x24,0x830f7
    80002308:	01c37fb3          	and	x31,x6,x28
    8000230c:	2ea64313          	xori	x6,x12,746
    80002310:	783e6eb7          	lui	x29,0x783e6
    80002314:	011e10b3          	sll	x1,x28,x17
    80002318:	01f9941b          	slliw	x8,x19,0x1f
    8000231c:	ca123317          	auipc	x6,0xca123
    80002320:	01d4a933          	slt	x18,x9,x29
    80002324:	02675a13          	srli	x20,x14,0x26
    80002328:	ece7f1b7          	lui	x3,0xece7f
    8000232c:	01eb173b          	sllw	x14,x22,x30
    80002330:	0055d49b          	srliw	x9,x11,0x5
    80002334:	4d158db7          	lui	x27,0x4d158
    80002338:	0113deb3          	srl	x29,x7,x17
    8000233c:	43a0d293          	srai	x5,x1,0x3a
    80002340:	f62008b7          	lui	x17,0xf6200
    80002344:	00644033          	xor	x0,x8,x6
    80002348:	2e514b13          	xori	x22,x2,741
    8000234c:	f6508d97          	auipc	x27,0xf6508
    80002350:	0135fe33          	and	x28,x11,x19
    80002354:	1ae17513          	andi	x10,x2,430
    80002358:	25d20f97          	auipc	x31,0x25d20
    8000235c:	41485cb3          	sra	x25,x16,x20
    80002360:	0169959b          	slliw	x11,x19,0x16
    80002364:	3d9d9197          	auipc	x3,0x3d9d9
    80002368:	0132d033          	srl	x0,x5,x19
    8000236c:	fbee071b          	addiw	x14,x28,-66 # ffffffffa1edafbe <_start+0xffffffff21edafbe>
    80002370:	34d28237          	lui	x4,0x34d28
    80002374:	00f855b3          	srl	x11,x16,x15
    80002378:	74566e93          	ori	x29,x12,1861
    8000237c:	78b4ed37          	lui	x26,0x78b4e
    80002380:	00e57bb3          	and	x23,x10,x14
    80002384:	40355f1b          	sraiw	x30,x10,0x3
    80002388:	14027137          	lui	x2,0x14027
    8000238c:	01c98ebb          	addw	x29,x19,x28
    80002390:	1ab0bc13          	sltiu	x24,x1,427
    80002394:	722baf97          	auipc	x31,0x722ba
    80002398:	00ad5833          	srl	x16,x26,x10
    8000239c:	41ae5313          	srai	x6,x28,0x1a
    800023a0:	e5337ab7          	lui	x21,0xe5337
    800023a4:	41ded6bb          	sraw	x13,x29,x29
    800023a8:	0101521b          	srliw	x4,x2,0x10
    800023ac:	a7e7ef17          	auipc	x30,0xa7e7e
    800023b0:	016555b3          	srl	x11,x10,x22
    800023b4:	018f9613          	slli	x12,x31,0x18
    800023b8:	d8e86db7          	lui	x27,0xd8e86
    800023bc:	00414533          	xor	x10,x2,x4
    800023c0:	77824913          	xori	x18,x4,1912
    800023c4:	17b13a17          	auipc	x20,0x17b13
    800023c8:	0137acb3          	slt	x25,x15,x19
    800023cc:	46983b13          	sltiu	x22,x16,1129
    800023d0:	79bd09b7          	lui	x19,0x79bd0
    800023d4:	01575fbb          	srlw	x31,x14,x21
    800023d8:	01c51893          	slli	x17,x10,0x1c
    800023dc:	0ab8ce37          	lui	x28,0xab8c
    800023e0:	01767a33          	and	x20,x12,x23
    800023e4:	5473b393          	sltiu	x7,x7,1351
    800023e8:	19c33237          	lui	x4,0x19c33
    800023ec:	4151d4b3          	sra	x9,x3,x21
    800023f0:	bafa8513          	addi	x10,x21,-1105 # ffffffffe5336baf <_start+0xffffffff65336baf>
    800023f4:	152c9bb7          	lui	x23,0x152c9
    800023f8:	006263b3          	or	x7,x4,x6
    800023fc:	51197793          	andi	x15,x18,1297
    80002400:	2d1b1637          	lui	x12,0x2d1b1
    80002404:	00ee0bbb          	addw	x23,x28,x14
    80002408:	9aa52913          	slti	x18,x10,-1622
    8000240c:	968960b7          	lui	x1,0x96896
    80002410:	01c17cb3          	and	x25,x2,x28
    80002414:	34963213          	sltiu	x4,x12,841
    80002418:	e8701397          	auipc	x7,0xe8701
    8000241c:	008dd7b3          	srl	x15,x27,x8
    80002420:	00549d1b          	slliw	x26,x9,0x5
    80002424:	516cc737          	lui	x14,0x516cc
    80002428:	01092a33          	slt	x20,x18,x16
    8000242c:	4168dc13          	srai	x24,x17,0x16
    80002430:	30076cb7          	lui	x25,0x30076
    80002434:	006207b3          	add	x15,x4,x6
    80002438:	abd0f993          	andi	x19,x1,-1347
    8000243c:	41c03e17          	auipc	x28,0x41c03
    80002440:	0036f533          	and	x10,x13,x3
    80002444:	0006df1b          	srliw	x30,x13,0x0
    80002448:	9961f917          	auipc	x18,0x9961f
    8000244c:	41058abb          	subw	x21,x11,x16
    80002450:	0010d49b          	srliw	x9,x1,0x1
    80002454:	41652d17          	auipc	x26,0x41652
    80002458:	40608bb3          	sub	x23,x1,x6
    8000245c:	f241e393          	ori	x7,x3,-220
    80002460:	973148b7          	lui	x17,0x97314
    80002464:	41de053b          	subw	x10,x28,x29
    80002468:	03dd5f93          	srli	x31,x26,0x3d
    8000246c:	685a2317          	auipc	x6,0x685a2
    80002470:	01805e33          	srl	x28,x0,x24
    80002474:	d50c4613          	xori	x12,x24,-688
    80002478:	6f497d97          	auipc	x27,0x6f497
    8000247c:	01f70933          	add	x18,x14,x31
    80002480:	01b51993          	slli	x19,x10,0x1b
    80002484:	2cc594b7          	lui	x9,0x2cc59
    80002488:	0015c0b3          	xor	x1,x11,x1
    8000248c:	b841bb93          	sltiu	x23,x3,-1148
    80002490:	1802dd37          	lui	x26,0x1802d
    80002494:	41e682b3          	sub	x5,x13,x30
    80002498:	61d0051b          	addiw	x10,x0,1565
    8000249c:	064ef3b7          	lui	x7,0x64ef
    800024a0:	000314bb          	sllw	x9,x6,x0
    800024a4:	14d5889b          	addiw	x17,x11,333 # ffffffffe2a3a3e5 <_start+0xffffffff62a3a3e5>
    800024a8:	c9643f37          	lui	x30,0xc9643
    800024ac:	4051d5bb          	sraw	x11,x3,x5
    800024b0:	72922993          	slti	x19,x4,1833
    800024b4:	11530037          	lui	x0,0x11530
    800024b8:	009273b3          	and	x7,x4,x9
    800024bc:	f1e8e813          	ori	x16,x17,-226
    800024c0:	df8f5f97          	auipc	x31,0xdf8f5
    800024c4:	40f557bb          	sraw	x15,x10,x15
    800024c8:	56c9ca93          	xori	x21,x19,1388
    800024cc:	c8bd06b7          	lui	x13,0xc8bd0
    800024d0:	00bd61b3          	or	x3,x26,x11
    800024d4:	00fb9b9b          	slliw	x23,x23,0xf
    800024d8:	23031937          	lui	x18,0x23031
    800024dc:	00c70cb3          	add	x25,x14,x12
    800024e0:	28a34c13          	xori	x24,x6,650
    800024e4:	176f1197          	auipc	x3,0x176f1
    800024e8:	010fdd3b          	srlw	x26,x31,x16
    800024ec:	02251f13          	slli	x30,x10,0x22
    800024f0:	8e885a17          	auipc	x20,0x8e885
    800024f4:	4152093b          	subw	x18,x4,x21
    800024f8:	d8813013          	sltiu	x0,x2,-632
    800024fc:	ba6e95b7          	lui	x11,0xba6e9
    80002500:	00feb833          	sltu	x16,x29,x15
    80002504:	4037539b          	sraiw	x7,x14,0x3
    80002508:	c4795d97          	auipc	x27,0xc4795
    8000250c:	0147dbb3          	srl	x23,x15,x20
    80002510:	01b9869b          	addiw	x13,x19,27 # 79bd001b <_start-0x642ffe5>
    80002514:	58ff3ab7          	lui	x21,0x58ff3
    80002518:	018b72b3          	and	x5,x22,x24
    8000251c:	433a5d93          	srai	x27,x20,0x33
    80002520:	29560217          	auipc	x4,0x29560
    80002524:	40b7d5bb          	sraw	x11,x15,x11
    80002528:	400ad79b          	sraiw	x15,x21,0x0
    8000252c:	917d3397          	auipc	x7,0x917d3
    80002530:	01b0133b          	sllw	x6,x0,x27
    80002534:	1d798c1b          	addiw	x24,x19,471
    80002538:	b976a7b7          	lui	x15,0xb976a
    8000253c:	41a656b3          	sra	x13,x12,x26
    80002540:	43ee8d1b          	addiw	x26,x29,1086 # 783e643e <_start-0x7c19bc2>
    80002544:	041b1537          	lui	x10,0x41b1
    80002548:	012a81b3          	add	x3,x21,x18
    8000254c:	01ab5b1b          	srliw	x22,x22,0x1a
    80002550:	ac1747b7          	lui	x15,0xac174
    80002554:	00b5d433          	srl	x8,x11,x11
    80002558:	0096561b          	srliw	x12,x12,0x9
    8000255c:	2b0c6597          	auipc	x11,0x2b0c6
    80002560:	01fe76b3          	and	x13,x28,x31
    80002564:	01245b9b          	srliw	x23,x8,0x12
    80002568:	cad267b7          	lui	x15,0xcad26
    8000256c:	0071eab3          	or	x21,x3,x7
    80002570:	c23b6713          	ori	x14,x22,-989
    80002574:	8d572217          	auipc	x4,0x8d572
    80002578:	00c40033          	add	x0,x8,x12
    8000257c:	bbbbfc13          	andi	x24,x23,-1093
    80002580:	1e7a2b17          	auipc	x22,0x1e7a2
    80002584:	007872b3          	and	x5,x16,x7
    80002588:	b6714593          	xori	x11,x2,-1177
    8000258c:	efb9e897          	auipc	x17,0xefb9e
    80002590:	01ae77b3          	and	x15,x28,x26
    80002594:	defa7a93          	andi	x21,x20,-529
    80002598:	3c1c5db7          	lui	x27,0x3c1c5
    8000259c:	00244633          	xor	x12,x8,x2
    800025a0:	425c5993          	srai	x19,x24,0x25
    800025a4:	f22b9c37          	lui	x24,0xf22b9
    800025a8:	40b38fbb          	subw	x31,x7,x11
    800025ac:	289f6413          	ori	x8,x30,649
    800025b0:	6f3804b7          	lui	x9,0x6f380
    800025b4:	40ed05b3          	sub	x11,x26,x14
    800025b8:	00c89693          	slli	x13,x17,0xc
    800025bc:	7ca0feb7          	lui	x29,0x7ca0f
    800025c0:	01434833          	xor	x16,x6,x20
    800025c4:	92647d13          	andi	x26,x8,-1754
    800025c8:	03e40db7          	lui	x27,0x3e40
    800025cc:	409755b3          	sra	x11,x14,x9
    800025d0:	01399c9b          	slliw	x25,x19,0x13
    800025d4:	079ac297          	auipc	x5,0x79ac
    800025d8:	00031533          	sll	x10,x6,x0
    800025dc:	00ffd813          	srli	x16,x31,0xf
    800025e0:	f2163c17          	auipc	x24,0xf2163
    800025e4:	00f0913b          	sllw	x2,x1,x15
    800025e8:	00e71c9b          	slliw	x25,x14,0xe
    800025ec:	f4cf4297          	auipc	x5,0xf4cf4
    800025f0:	01eb21b3          	slt	x3,x22,x30
    800025f4:	1e87fc13          	andi	x24,x15,488
    800025f8:	e6f56897          	auipc	x17,0xe6f56
    800025fc:	00250a3b          	addw	x20,x10,x2
    80002600:	fe112193          	slti	x3,x2,-31
    80002604:	22fa1797          	auipc	x15,0x22fa1
    80002608:	41d85abb          	sraw	x21,x16,x29
    8000260c:	00b9901b          	slliw	x0,x19,0xb
    80002610:	d2879db7          	lui	x27,0xd2879
    80002614:	00bbd93b          	srlw	x18,x23,x11
    80002618:	d095bc13          	sltiu	x24,x11,-759
    8000261c:	c8ba67b7          	lui	x15,0xc8ba6
    80002620:	0055c1b3          	xor	x3,x11,x5
    80002624:	013cd213          	srli	x4,x25,0x13
    80002628:	1321ed97          	auipc	x27,0x1321e
    8000262c:	00b2dc3b          	srlw	x24,x5,x11
    80002630:	d914ee13          	ori	x28,x9,-623
    80002634:	f1c38637          	lui	x12,0xf1c38
    80002638:	40805933          	sra	x18,x0,x8
    8000263c:	00769d1b          	slliw	x26,x13,0x7
    80002640:	c38cd597          	auipc	x11,0xc38cd
    80002644:	00f174b3          	and	x9,x2,x15
    80002648:	01e5539b          	srliw	x7,x10,0x1e
    8000264c:	093c7437          	lui	x8,0x93c7
    80002650:	41068033          	sub	x0,x13,x16
    80002654:	b4b13613          	sltiu	x12,x2,-1205
    80002658:	9dcbbf37          	lui	x30,0x9dcbb
    8000265c:	01952e33          	slt	x28,x10,x25
    80002660:	39243713          	sltiu	x14,x8,914
    80002664:	d7fdc697          	auipc	x13,0xd7fdc
    80002668:	00991db3          	sll	x27,x18,x9
    8000266c:	5fb88e1b          	addiw	x28,x17,1531 # 66f58bf3 <_start-0x190a740d>
    80002670:	5bc90bb7          	lui	x23,0x5bc90
    80002674:	0044d733          	srl	x14,x9,x4
    80002678:	c222a993          	slti	x19,x5,-990
    8000267c:	9018ed97          	auipc	x27,0x9018e
    80002680:	003571b3          	and	x3,x10,x3
    80002684:	22c10393          	addi	x7,x2,556 # 1402722c <_start-0x6bfd8dd4>
    80002688:	f8ee3537          	lui	x10,0xf8ee3
    8000268c:	40620fbb          	subw	x31,x4,x6
    80002690:	e3dc6b93          	ori	x23,x24,-451
    80002694:	a0ae9a37          	lui	x20,0xa0ae9
    80002698:	0010ce33          	xor	x28,x1,x1
    8000269c:	b08f8313          	addi	x6,x31,-1272 # 5f8f6fc8 <_start-0x20709038>
    800026a0:	fd853fb7          	lui	x31,0xfd853
    800026a4:	41138533          	sub	x10,x7,x17
    800026a8:	5a6f7c13          	andi	x24,x30,1446
    800026ac:	7b290eb7          	lui	x29,0x7b290
    800026b0:	4178dbbb          	sraw	x23,x17,x23
    800026b4:	43a2d913          	srai	x18,x5,0x3a
    800026b8:	1b795317          	auipc	x6,0x1b795
    800026bc:	015abdb3          	sltu	x27,x21,x21
    800026c0:	03fc1a13          	slli	x20,x24,0x3f
    800026c4:	275c8737          	lui	x14,0x275c8
    800026c8:	01dec9b3          	xor	x19,x29,x29
    800026cc:	d20b3513          	sltiu	x10,x22,-736
    800026d0:	b8a62f97          	auipc	x31,0xb8a62
    800026d4:	01775ab3          	srl	x21,x14,x23
    800026d8:	03331493          	slli	x9,x6,0x33
    800026dc:	d576d997          	auipc	x19,0xd576d
    800026e0:	01a3bcb3          	sltu	x25,x7,x26
    800026e4:	03c05113          	srli	x2,x0,0x3c
    800026e8:	ac6f55b7          	lui	x11,0xac6f5
    800026ec:	01161dbb          	sllw	x27,x12,x17
    800026f0:	012a1c1b          	slliw	x24,x20,0x12
    800026f4:	227910b7          	lui	x1,0x22791
    800026f8:	406ed533          	sra	x10,x29,x6
    800026fc:	acd46d13          	ori	x26,x8,-1331
    80002700:	61480a37          	lui	x20,0x61480
    80002704:	008704b3          	add	x9,x14,x8
    80002708:	90baa893          	slti	x17,x21,-1781
    8000270c:	42696d37          	lui	x26,0x42696
    80002710:	00e153b3          	srl	x7,x2,x14
    80002714:	33ddbc13          	sltiu	x24,x27,829
    80002718:	753ee337          	lui	x6,0x753ee
    8000271c:	002a2db3          	slt	x27,x20,x2
    80002720:	41d4589b          	sraiw	x17,x8,0x1d
    80002724:	bfca27b7          	lui	x15,0xbfca2
    80002728:	0091e233          	or	x4,x3,x9
    8000272c:	0079df93          	srli	x31,x19,0x7
    80002730:	dd148397          	auipc	x7,0xdd148
    80002734:	005a583b          	srlw	x16,x20,x5
    80002738:	418e5d1b          	sraiw	x26,x28,0x18
    8000273c:	01a5f9b7          	lui	x19,0x1a5f
    80002740:	014933b3          	sltu	x7,x18,x20
    80002744:	c35df013          	andi	x0,x27,-971
    80002748:	36372937          	lui	x18,0x36372
    8000274c:	01fcecb3          	or	x25,x25,x31
    80002750:	e9c63693          	sltiu	x13,x12,-356
    80002754:	65eb9737          	lui	x14,0x65eb9
    80002758:	41825db3          	sra	x27,x4,x24
    8000275c:	523ac893          	xori	x17,x21,1315
    80002760:	50a99597          	auipc	x11,0x50a99
    80002764:	408cdeb3          	sra	x29,x25,x8
    80002768:	4b4fec13          	ori	x24,x31,1204
    8000276c:	7ca49397          	auipc	x7,0x7ca49
    80002770:	41675333          	sra	x6,x14,x22
    80002774:	0127121b          	slliw	x4,x14,0x12
    80002778:	15567437          	lui	x8,0x15567
    8000277c:	01f68c3b          	addw	x24,x13,x31
    80002780:	002f1a9b          	slliw	x21,x30,0x2
    80002784:	f9771317          	auipc	x6,0xf9771
    80002788:	0190cb33          	xor	x22,x1,x25
    8000278c:	eb0eb913          	sltiu	x18,x29,-336
    80002790:	d8f1e797          	auipc	x15,0xd8f1e
    80002794:	01b268b3          	or	x17,x4,x27
    80002798:	76fc3e93          	sltiu	x29,x24,1903
    8000279c:	0a9efc37          	lui	x24,0xa9ef
    800027a0:	004610b3          	sll	x1,x12,x4
    800027a4:	e7ae0e13          	addi	x28,x28,-390 # c1c052b6 <_start+0x41c052b6>
    800027a8:	f47c2397          	auipc	x7,0xf47c2
    800027ac:	01270d33          	add	x26,x14,x18
    800027b0:	43b4d193          	srai	x3,x9,0x3b
    800027b4:	a12c5eb7          	lui	x29,0xa12c5
    800027b8:	0100af33          	slt	x30,x1,x16
    800027bc:	c58bbe13          	sltiu	x28,x23,-936
    800027c0:	a7834717          	auipc	x14,0xa7834
    800027c4:	006150b3          	srl	x1,x2,x6
    800027c8:	807c8b9b          	addiw	x23,x25,-2041 # 30075807 <_start-0x4ff8a7f9>
    800027cc:	8b0ac7b7          	lui	x15,0x8b0ac
    800027d0:	0085e233          	or	x4,x11,x8
    800027d4:	48c8fe13          	andi	x28,x17,1164
    800027d8:	c86ff437          	lui	x8,0xc86ff
    800027dc:	0118d13b          	srlw	x2,x17,x17
    800027e0:	80e38813          	addi	x16,x7,-2034 # 747c3fb6 <_start-0xb83c04a>
    800027e4:	9e2314b7          	lui	x9,0x9e231
    800027e8:	003319b3          	sll	x19,x6,x3
    800027ec:	032b5d93          	srli	x27,x22,0x32
    800027f0:	0e9f7297          	auipc	x5,0xe9f7
    800027f4:	41c150bb          	sraw	x1,x2,x28
    800027f8:	b0baa893          	slti	x17,x21,-1269
    800027fc:	c8ec2437          	lui	x8,0xc8ec2
    80002800:	01b1053b          	addw	x10,x2,x27
    80002804:	73f98b9b          	addiw	x23,x19,1855 # 1a5f73f <_start-0x7e5a08c1>
    80002808:	32022b17          	auipc	x22,0x32022
    8000280c:	01b5dfb3          	srl	x31,x11,x27
    80002810:	9eb46013          	ori	x0,x8,-1557
    80002814:	b28096b7          	lui	x13,0xb2809
    80002818:	00ca08b3          	add	x17,x20,x12
    8000281c:	defdb413          	sltiu	x8,x27,-529
    80002820:	8ce6ceb7          	lui	x29,0x8ce6c
    80002824:	00fe57b3          	srl	x15,x28,x15
    80002828:	dfa4b313          	sltiu	x6,x9,-518
    8000282c:	71af0bb7          	lui	x23,0x71af0
    80002830:	0104c133          	xor	x2,x9,x16
    80002834:	001b5693          	srli	x13,x22,0x1
    80002838:	b38423b7          	lui	x7,0xb3842
    8000283c:	4000d4b3          	sra	x9,x1,x0
    80002840:	92e2ef13          	ori	x30,x5,-1746
    80002844:	b7818517          	auipc	x10,0xb7818
    80002848:	4161da3b          	sraw	x20,x3,x22
    8000284c:	0144169b          	slliw	x13,x8,0x14
    80002850:	c09c4597          	auipc	x11,0xc09c4
    80002854:	00650ebb          	addw	x29,x10,x6
    80002858:	43ebd493          	srai	x9,x23,0x3e
    8000285c:	168e30b7          	lui	x1,0x168e3
    80002860:	00dfff33          	and	x30,x31,x13
    80002864:	72bcba93          	sltiu	x21,x25,1835
    80002868:	7dea7697          	auipc	x13,0x7dea7
    8000286c:	004dd03b          	srlw	x0,x27,x4
    80002870:	40b4d99b          	sraiw	x19,x9,0xb
    80002874:	9bbf0f97          	auipc	x31,0x9bbf0
    80002878:	00149bb3          	sll	x23,x9,x1
    8000287c:	0171d59b          	srliw	x11,x3,0x17
    80002880:	a7709e17          	auipc	x28,0xa7709
    80002884:	4193da33          	sra	x20,x7,x25
    80002888:	00f8df1b          	srliw	x30,x17,0xf
    8000288c:	55153017          	auipc	x0,0x55153
    80002890:	01988c3b          	addw	x24,x17,x25
    80002894:	3014ca13          	xori	x20,x9,769
    80002898:	c8772f37          	lui	x30,0xc8772
    8000289c:	00c88ebb          	addw	x29,x17,x12
    800028a0:	5f1b7513          	andi	x10,x22,1521
    800028a4:	77866497          	auipc	x9,0x77866
    800028a8:	003c59b3          	srl	x19,x24,x3
    800028ac:	2ee16f13          	ori	x30,x2,750
    800028b0:	4b9e0e97          	auipc	x29,0x4b9e0
    800028b4:	4117d8bb          	sraw	x17,x15,x17
    800028b8:	d3932413          	slti	x8,x6,-711
    800028bc:	a68eb4b7          	lui	x9,0xa68eb
    800028c0:	01363033          	sltu	x0,x12,x19
    800028c4:	76470293          	addi	x5,x14,1892 # 27836f24 <_start-0x587c90dc>
    800028c8:	7c804b37          	lui	x22,0x7c804
    800028cc:	40a48c3b          	subw	x24,x9,x10
    800028d0:	30da0013          	addi	x0,x20,781 # 6148030d <_start-0x1eb7fcf3>
    800028d4:	a3bd8f17          	auipc	x30,0xa3bd8
    800028d8:	41a8d0bb          	sraw	x1,x17,x26
    800028dc:	469a011b          	addiw	x2,x20,1129
    800028e0:	f7fda837          	lui	x16,0xf7fda
    800028e4:	00e37fb3          	and	x31,x6,x14
    800028e8:	58640393          	addi	x7,x8,1414 # ffffffffc8ec2586 <_start+0xffffffff48ec2586>
    800028ec:	2f837db7          	lui	x27,0x2f837
    800028f0:	00b15533          	srl	x10,x2,x11
    800028f4:	41b25c1b          	sraiw	x24,x4,0x1b
    800028f8:	6cb8d1b7          	lui	x3,0x6cb8d
    800028fc:	407e0333          	sub	x6,x28,x7
    80002900:	a816c993          	xori	x19,x13,-1407
    80002904:	8c700c37          	lui	x24,0x8c700
    80002908:	01139cbb          	sllw	x25,x7,x17
    8000290c:	a86e4413          	xori	x8,x28,-1402
    80002910:	f5886fb7          	lui	x31,0xf5886
    80002914:	00c9e133          	or	x2,x19,x12
    80002918:	413a501b          	sraiw	x0,x20,0x13
    8000291c:	6bdbcf37          	lui	x30,0x6bdbc
    80002920:	018b09b3          	add	x19,x22,x24
    80002924:	416d579b          	sraiw	x15,x26,0x16
    80002928:	47585637          	lui	x12,0x47585
    8000292c:	01cd95b3          	sll	x11,x27,x28
    80002930:	43f2d993          	srai	x19,x5,0x3f
    80002934:	ff6b4337          	lui	x6,0xff6b4
    80002938:	016d08bb          	addw	x17,x26,x22
    8000293c:	00029493          	slli	x9,x5,0x0
    80002940:	14bdc517          	auipc	x10,0x14bdc
    80002944:	41ab8b33          	sub	x22,x23,x26
    80002948:	77468e13          	addi	x28,x13,1908 # fdea9fdc <_start+0x7dea9fdc>
    8000294c:	f9213e97          	auipc	x29,0xf9213
    80002950:	01e311bb          	sllw	x3,x6,x30
    80002954:	0186109b          	slliw	x1,x12,0x18
    80002958:	adb06697          	auipc	x13,0xadb06
    8000295c:	0066533b          	srlw	x6,x12,x6
    80002960:	aec72d13          	slti	x26,x14,-1300
    80002964:	cc762617          	auipc	x12,0xcc762
    80002968:	41458f33          	sub	x30,x11,x20
    8000296c:	10d6be13          	sltiu	x28,x13,269
    80002970:	53177597          	auipc	x11,0x53177
    80002974:	006190b3          	sll	x1,x3,x6
    80002978:	01c65193          	srli	x3,x12,0x1c
    8000297c:	e2cd4e17          	auipc	x28,0xe2cd4
    80002980:	008b47b3          	xor	x15,x22,x8
    80002984:	43a9d913          	srai	x18,x19,0x3a
    80002988:	42ea8837          	lui	x16,0x42ea8
    8000298c:	01aa28b3          	slt	x17,x20,x26
    80002990:	90fb7c13          	andi	x24,x22,-1777
    80002994:	218472b7          	lui	x5,0x21847
    80002998:	40d5deb3          	sra	x29,x11,x13
    8000299c:	033a5693          	srli	x13,x20,0x33
    800029a0:	a2b9aa37          	lui	x20,0xa2b9a
    800029a4:	016442b3          	xor	x5,x8,x22
    800029a8:	00aad31b          	srliw	x6,x21,0xa
    800029ac:	33235d97          	auipc	x27,0x33235
    800029b0:	01d69cb3          	sll	x25,x13,x29
    800029b4:	f2bf8e9b          	addiw	x29,x31,-213 # fffffffff5885f2b <_start+0xffffffff75885f2b>
    800029b8:	46096517          	auipc	x10,0x46096
    800029bc:	014d98b3          	sll	x17,x27,x20
    800029c0:	0321d913          	srli	x18,x3,0x32
    800029c4:	aa07f497          	auipc	x9,0xaa07f
    800029c8:	01ec2ab3          	slt	x21,x24,x30
    800029cc:	4185db9b          	sraiw	x23,x11,0x18
    800029d0:	40717197          	auipc	x3,0x40717
    800029d4:	0067a833          	slt	x16,x15,x6
    800029d8:	40bd539b          	sraiw	x7,x26,0xb
    800029dc:	b244ebb7          	lui	x23,0xb244e
    800029e0:	014ece33          	xor	x28,x29,x20
    800029e4:	4389d293          	srai	x5,x19,0x38
    800029e8:	d0f90437          	lui	x8,0xd0f90
    800029ec:	006fab33          	slt	x22,x31,x6
    800029f0:	08890a93          	addi	x21,x18,136 # 36372088 <_start-0x49c8df78>
    800029f4:	3058a897          	auipc	x17,0x3058a
    800029f8:	0087903b          	sllw	x0,x15,x8
    800029fc:	020f9113          	slli	x2,x31,0x20
    80002a00:	f2020197          	auipc	x3,0xf2020
    80002a04:	013a993b          	sllw	x18,x21,x19
    80002a08:	73ac7b93          	andi	x23,x24,1850
    80002a0c:	8d17b997          	auipc	x19,0x8d17b
    80002a10:	002f90b3          	sll	x1,x31,x2
    80002a14:	ee83a413          	slti	x8,x7,-280
    80002a18:	a1e17b97          	auipc	x23,0xa1e17
    80002a1c:	006f59b3          	srl	x19,x30,x6
    80002a20:	41f3d693          	srai	x13,x7,0x1f
    80002a24:	bb779037          	lui	x0,0xbb779
    80002a28:	00e50333          	add	x6,x10,x14
    80002a2c:	02e2d113          	srli	x2,x5,0x2e
    80002a30:	4a8a7637          	lui	x12,0x4a8a7
    80002a34:	410c8c3b          	subw	x24,x25,x16
    80002a38:	01e89f1b          	slliw	x30,x17,0x1e
    80002a3c:	56deec97          	auipc	x25,0x56dee
    80002a40:	01f5efb3          	or	x31,x11,x31
    80002a44:	5012f993          	andi	x19,x5,1281
    80002a48:	a743e517          	auipc	x10,0xa743e
    80002a4c:	01c95cbb          	srlw	x25,x18,x28
    80002a50:	00a79213          	slli	x4,x15,0xa
    80002a54:	64123717          	auipc	x14,0x64123
    80002a58:	01b90c33          	add	x24,x18,x27
    80002a5c:	00155413          	srli	x8,x10,0x1
    80002a60:	95b3de37          	lui	x28,0x95b3d
    80002a64:	01e01eb3          	sll	x29,x0,x30
    80002a68:	29b38a13          	addi	x20,x7,667 # ffffffffb384229b <_start+0xffffffff3384229b>
    80002a6c:	b38dbf17          	auipc	x30,0xb38db
    80002a70:	0198113b          	sllw	x2,x16,x25
    80002a74:	8b148e1b          	addiw	x28,x9,-1871 # 2a081275 <_start-0x55f7ed8b>
    80002a78:	235050b7          	lui	x1,0x23505
    80002a7c:	40c9df3b          	sraw	x30,x19,x12
    80002a80:	0989ad13          	slti	x26,x19,152
    80002a84:	7df15637          	lui	x12,0x7df15
    80002a88:	01271033          	sll	x0,x14,x18
    80002a8c:	4b8cf793          	andi	x15,x25,1208
    80002a90:	3bc8a897          	auipc	x17,0x3bc8a
    80002a94:	009830b3          	sltu	x1,x16,x9
    80002a98:	0046121b          	slliw	x4,x12,0x4
    80002a9c:	ca2fe617          	auipc	x12,0xca2fe
    80002aa0:	4142d7bb          	sraw	x15,x5,x20
    80002aa4:	5263001b          	addiw	x0,x6,1318 # ffffffffff6b4526 <_start+0xffffffff7f6b4526>
    80002aa8:	1115f697          	auipc	x13,0x1115f
    80002aac:	006b0d33          	add	x26,x22,x6
    80002ab0:	6a1e7313          	andi	x6,x28,1697
    80002ab4:	f74d2a97          	auipc	x21,0xf74d2
    80002ab8:	01b5dc33          	srl	x24,x11,x27
    80002abc:	3a01eb13          	ori	x22,x3,928
    80002ac0:	12c027b7          	lui	x15,0x12c02
    80002ac4:	40de5733          	sra	x14,x28,x13
    80002ac8:	83936593          	ori	x11,x6,-1991
    80002acc:	3b22a397          	auipc	x7,0x3b22a
    80002ad0:	01e7ee33          	or	x28,x15,x30
    80002ad4:	56a06293          	ori	x5,x0,1386
    80002ad8:	ea956a97          	auipc	x21,0xea956
    80002adc:	00efc9b3          	xor	x19,x31,x14
    80002ae0:	090ee393          	ori	x7,x29,144
    80002ae4:	a001eb97          	auipc	x23,0xa001e
    80002ae8:	419a8abb          	subw	x21,x21,x25
    80002aec:	41acdf1b          	sraiw	x30,x25,0x1a
    80002af0:	690c6637          	lui	x12,0x690c6
    80002af4:	006d8c33          	add	x24,x27,x6
    80002af8:	02bfdb13          	srli	x22,x31,0x2b
    80002afc:	7fdcc937          	lui	x18,0x7fdcc
    80002b00:	01ecadb3          	slt	x27,x25,x30
    80002b04:	0073d79b          	srliw	x15,x7,0x7
    80002b08:	8aef9237          	lui	x4,0x8aef9
    80002b0c:	00559e3b          	sllw	x28,x11,x5
    80002b10:	4180de9b          	sraiw	x29,x1,0x18
    80002b14:	eddce6b7          	lui	x13,0xeddce
    80002b18:	0080df3b          	srlw	x30,x1,x8
    80002b1c:	027ad593          	srli	x11,x21,0x27
    80002b20:	dd400a97          	auipc	x21,0xdd400
    80002b24:	01073133          	sltu	x2,x14,x16
    80002b28:	0014551b          	srliw	x10,x8,0x1
    80002b2c:	e52c5597          	auipc	x11,0xe52c5
    80002b30:	412adabb          	sraw	x21,x21,x18
    80002b34:	02c61c13          	slli	x24,x12,0x2c
    80002b38:	9da19637          	lui	x12,0x9da19
    80002b3c:	011217b3          	sll	x15,x4,x17
    80002b40:	6a314493          	xori	x9,x2,1699
    80002b44:	3bb38437          	lui	x8,0x3bb38
    80002b48:	0199c6b3          	xor	x13,x19,x25
    80002b4c:	0170da93          	srli	x21,x1,0x17
    80002b50:	66eaab97          	auipc	x23,0x66eaa
    80002b54:	016ff033          	and	x0,x31,x22
    80002b58:	2330861b          	addiw	x12,x1,563 # 23505233 <_start-0x5cafadcd>
    80002b5c:	62581217          	auipc	x4,0x62581
    80002b60:	40278a33          	sub	x20,x15,x2
    80002b64:	024a9c93          	slli	x25,x21,0x24
    80002b68:	32c1b2b7          	lui	x5,0x32c1b
    80002b6c:	00790e3b          	addw	x28,x18,x7
    80002b70:	01a3de9b          	srliw	x29,x7,0x1a
    80002b74:	09f12737          	lui	x14,0x9f12
    80002b78:	002f7433          	and	x8,x30,x2
    80002b7c:	0d750813          	addi	x16,x10,215 # 27440b1f <_start-0x58bbf4e1>
    80002b80:	d677d097          	auipc	x1,0xd677d
    80002b84:	01611fbb          	sllw	x31,x2,x22
    80002b88:	80ea8393          	addi	x7,x21,-2034 # 5d40232e <_start-0x22bfdcd2>
    80002b8c:	671311b7          	lui	x3,0x67131
    80002b90:	00eb593b          	srlw	x18,x22,x14
    80002b94:	00d61c93          	slli	x25,x12,0xd
    80002b98:	7bdecb37          	lui	x22,0x7bdec
    80002b9c:	005a813b          	addw	x2,x21,x5
    80002ba0:	f88e3913          	sltiu	x18,x28,-120
    80002ba4:	2ff5f897          	auipc	x17,0x2ff5f
    80002ba8:	40898abb          	subw	x21,x19,x8
    80002bac:	42255c93          	srai	x25,x10,0x22
    80002bb0:	37ffe717          	auipc	x14,0x37ffe
    80002bb4:	01bb1033          	sll	x0,x22,x27
    80002bb8:	02c19f13          	slli	x30,x3,0x2c
    80002bbc:	1d82f997          	auipc	x19,0x1d82f
    80002bc0:	40c15ebb          	sraw	x29,x2,x12
    80002bc4:	37b3b193          	sltiu	x3,x7,891
    80002bc8:	a9d2cd37          	lui	x26,0xa9d2c
    80002bcc:	0089b433          	sltu	x8,x19,x8
    80002bd0:	a95f7113          	andi	x2,x30,-1387
    80002bd4:	a4793237          	lui	x4,0xa4793
    80002bd8:	019ba7b3          	slt	x15,x23,x25
    80002bdc:	02d61913          	slli	x18,x12,0x2d
    80002be0:	438fbdb7          	lui	x27,0x438fb
    80002be4:	00a9a133          	slt	x2,x19,x10
    80002be8:	9005b713          	sltiu	x14,x11,-1792
    80002bec:	d079cf97          	auipc	x31,0xd079c
    80002bf0:	01061333          	sll	x6,x12,x16
    80002bf4:	4164581b          	sraiw	x16,x8,0x16
    80002bf8:	70983bb7          	lui	x23,0x70983
    80002bfc:	00299ebb          	sllw	x29,x19,x2
    80002c00:	adff4f93          	xori	x31,x30,-1313
    80002c04:	e1d0d6b7          	lui	x13,0xe1d0d
    80002c08:	016cef33          	or	x30,x25,x22
    80002c0c:	b72b6a13          	ori	x20,x22,-1166
    80002c10:	1dfdd837          	lui	x16,0x1dfdd
    80002c14:	01820fb3          	add	x31,x4,x24
    80002c18:	01e09c9b          	slliw	x25,x1,0x1e
    80002c1c:	de30f337          	lui	x6,0xde30f
    80002c20:	015f4db3          	xor	x27,x30,x21
    80002c24:	8b528393          	addi	x7,x5,-1867 # 32c1a8b5 <_start-0x4d3e574b>
    80002c28:	4eea9137          	lui	x2,0x4eea9
    80002c2c:	00803d33          	sltu	x26,x0,x8
    80002c30:	03db1d93          	slli	x27,x22,0x3d
    80002c34:	ec7efbb7          	lui	x23,0xec7ef
    80002c38:	01c43633          	sltu	x12,x8,x28
    80002c3c:	60ff0d13          	addi	x26,x30,1551 # 338de07b <_start-0x4c721f85>
    80002c40:	6569a837          	lui	x16,0x6569a
    80002c44:	40078333          	sub	x6,x15,x0
    80002c48:	45defe13          	andi	x28,x29,1117
    80002c4c:	cbd15eb7          	lui	x29,0xcbd15
    80002c50:	018a46b3          	xor	x13,x20,x24
    80002c54:	42775c13          	srai	x24,x14,0x27
    80002c58:	88c55737          	lui	x14,0x88c55
    80002c5c:	41d95b3b          	sraw	x22,x18,x29
    80002c60:	acf6ae13          	slti	x28,x13,-1329
    80002c64:	04b6aa97          	auipc	x21,0x4b6a
    80002c68:	009798bb          	sllw	x17,x15,x9
    80002c6c:	01c9d61b          	srliw	x12,x19,0x1c
    80002c70:	f40d2597          	auipc	x11,0xf40d2
    80002c74:	0003b9b3          	sltu	x19,x7,x0
    80002c78:	fedef393          	andi	x7,x29,-19
    80002c7c:	81d4df97          	auipc	x31,0x81d4d
    80002c80:	40a4873b          	subw	x14,x9,x10
    80002c84:	c5443013          	sltiu	x0,x8,-940
    80002c88:	fd70e397          	auipc	x7,0xfd70e
    80002c8c:	4161593b          	sraw	x18,x2,x22
    80002c90:	00289a1b          	slliw	x20,x17,0x2
    80002c94:	33846cb7          	lui	x25,0x33846
    80002c98:	0133df33          	srl	x30,x7,x19
    80002c9c:	cd83a893          	slti	x17,x7,-808
    80002ca0:	9bc5f997          	auipc	x19,0x9bc5f
    80002ca4:	01621e3b          	sllw	x28,x4,x22
    80002ca8:	01d4131b          	slliw	x6,x8,0x1d
    80002cac:	4b6da497          	auipc	x9,0x4b6da
    80002cb0:	01345533          	srl	x10,x8,x19
    80002cb4:	00f3d81b          	srliw	x16,x7,0xf
    80002cb8:	4596b9b7          	lui	x19,0x4596b
    80002cbc:	00cad43b          	srlw	x8,x21,x12
    80002cc0:	f01e4493          	xori	x9,x28,-255
    80002cc4:	267be937          	lui	x18,0x267be
    80002cc8:	006a2533          	slt	x10,x20,x6
    80002ccc:	56e70693          	addi	x13,x14,1390 # ffffffff88c5556e <_start+0xffffffff08c5556e>
    80002cd0:	bfd5ea17          	auipc	x20,0xbfd5e
    80002cd4:	41bf8cbb          	subw	x25,x31,x27
    80002cd8:	410ddd1b          	sraiw	x26,x27,0x10
    80002cdc:	94d0b897          	auipc	x17,0x94d0b
    80002ce0:	01355b3b          	srlw	x22,x10,x19
    80002ce4:	81bce013          	ori	x0,x25,-2021
    80002ce8:	3fb7bc97          	auipc	x25,0x3fb7b
    80002cec:	40ce8ebb          	subw	x29,x29,x12
    80002cf0:	75ad881b          	addiw	x16,x27,1882 # 438fb75a <_start-0x3c7048a6>
    80002cf4:	4fe41917          	auipc	x18,0x4fe41
    80002cf8:	01464033          	xor	x0,x12,x20
    80002cfc:	c7b24e93          	xori	x29,x4,-901
    80002d00:	8ce81537          	lui	x10,0x8ce81
    80002d04:	009caab3          	slt	x21,x25,x9
    80002d08:	c9f0c493          	xori	x9,x1,-865
    80002d0c:	b46d0b37          	lui	x22,0xb46d0
    80002d10:	41ced5bb          	sraw	x11,x29,x28
    80002d14:	01e31a1b          	slliw	x20,x6,0x1e
    80002d18:	fee75bb7          	lui	x23,0xfee75
    80002d1c:	00e6f333          	and	x6,x13,x14
    80002d20:	42a08713          	addi	x14,x1,1066 # 5677ffaa <_start-0x29880056>
    80002d24:	6a14c837          	lui	x16,0x6a14c
    80002d28:	0005dc33          	srl	x24,x11,x0
    80002d2c:	6b293793          	sltiu	x15,x18,1714
    80002d30:	12544917          	auipc	x18,0x12544
    80002d34:	007e4233          	xor	x4,x28,x7
    80002d38:	00515d93          	srli	x27,x2,0x5
    80002d3c:	0e9be9b7          	lui	x19,0xe9be
    80002d40:	412fd03b          	sraw	x0,x31,x18
    80002d44:	3941fb93          	andi	x23,x3,916
    80002d48:	f0bec3b7          	lui	x7,0xf0bec
    80002d4c:	008a31b3          	sltu	x3,x20,x8
    80002d50:	413ddd1b          	sraiw	x26,x27,0x13
    80002d54:	71bce017          	auipc	x0,0x71bce
    80002d58:	407b58bb          	sraw	x17,x22,x7
    80002d5c:	416fd41b          	sraiw	x8,x31,0x16
    80002d60:	e77b0137          	lui	x2,0xe77b0
    80002d64:	00170a3b          	addw	x20,x14,x1
    80002d68:	deb00913          	addi	x18,x0,-533
    80002d6c:	f9f8c437          	lui	x8,0xf9f8c
    80002d70:	0139de33          	srl	x28,x19,x19
    80002d74:	41c0d393          	srai	x7,x1,0x1c
    80002d78:	4034a017          	auipc	x0,0x4034a
    80002d7c:	41f15d3b          	sraw	x26,x2,x31
    80002d80:	f91fb813          	sltiu	x16,x31,-111
    80002d84:	a3a9d217          	auipc	x4,0xa3a9d
    80002d88:	016759b3          	srl	x19,x14,x22
    80002d8c:	faed879b          	addiw	x15,x27,-82
    80002d90:	88f4c137          	lui	x2,0x88f4c
    80002d94:	40d8d6b3          	sra	x13,x17,x13
    80002d98:	0125131b          	slliw	x6,x10,0x12
    80002d9c:	6ca3b017          	auipc	x0,0x6ca3b
    80002da0:	0094df3b          	srlw	x30,x9,x9
    80002da4:	0321d093          	srli	x1,x3,0x32
    80002da8:	22dabf97          	auipc	x31,0x22dab
    80002dac:	00cba033          	slt	x0,x23,x12
    80002db0:	0068db93          	srli	x23,x17,0x6
    80002db4:	8b0e2997          	auipc	x19,0x8b0e2
    80002db8:	015fe333          	or	x6,x31,x21
    80002dbc:	40b4d493          	srai	x9,x9,0xb
    80002dc0:	c11507b7          	lui	x15,0xc1150
    80002dc4:	01b13fb3          	sltu	x31,x2,x27
    80002dc8:	07cafb13          	andi	x22,x21,124
    80002dcc:	e44b6697          	auipc	x13,0xe44b6
    80002dd0:	01872733          	slt	x14,x14,x24
    80002dd4:	00df9413          	slli	x8,x31,0xd
    80002dd8:	d6852db7          	lui	x27,0xd6852
    80002ddc:	000e9c3b          	sllw	x24,x29,x0
    80002de0:	19b6f293          	andi	x5,x13,411
    80002de4:	a5a81bb7          	lui	x23,0xa5a81
    80002de8:	00005d33          	srl	x26,x0,x0
    80002dec:	e7660413          	addi	x8,x12,-394 # ffffffff9da18e76 <_start+0xffffffff1da18e76>
    80002df0:	15934337          	lui	x6,0x15934
    80002df4:	014aeb33          	or	x22,x21,x20
    80002df8:	0ee9b693          	sltiu	x13,x19,238
    80002dfc:	34f1be17          	auipc	x28,0x34f1b
    80002e00:	418fd833          	sra	x16,x31,x24
    80002e04:	83b73f93          	sltiu	x31,x14,-1989
    80002e08:	f4f27297          	auipc	x5,0xf4f27
    80002e0c:	0090003b          	addw	x0,x0,x9
    80002e10:	da6a4913          	xori	x18,x20,-602
    80002e14:	f2ed4b17          	auipc	x22,0xf2ed4
    80002e18:	00781f33          	sll	x30,x16,x7
    80002e1c:	3997c593          	xori	x11,x15,921
    80002e20:	9719e897          	auipc	x17,0x9719e
    80002e24:	4094573b          	sraw	x14,x8,x9
    80002e28:	0061db13          	srli	x22,x3,0x6
    80002e2c:	891cddb7          	lui	x27,0x891cd
    80002e30:	415a88bb          	subw	x17,x21,x21
    80002e34:	007a9313          	slli	x6,x21,0x7
    80002e38:	0b155a17          	auipc	x20,0xb155
    80002e3c:	0105dc33          	srl	x24,x11,x16
    80002e40:	29594613          	xori	x12,x18,661
    80002e44:	11747cb7          	lui	x25,0x11747
    80002e48:	010767b3          	or	x15,x14,x16
    80002e4c:	0054d41b          	srliw	x8,x9,0x5
    80002e50:	82a87f37          	lui	x30,0x82a87
    80002e54:	403e0eb3          	sub	x29,x28,x3
    80002e58:	25ce4913          	xori	x18,x28,604
    80002e5c:	fb4832b7          	lui	x5,0xfb483
    80002e60:	003d173b          	sllw	x14,x26,x3
    80002e64:	981e7e93          	andi	x29,x28,-1663
    80002e68:	3fb64237          	lui	x4,0x3fb64
    80002e6c:	01e1ddbb          	srlw	x27,x3,x30
    80002e70:	41f6df1b          	sraiw	x30,x13,0x1f
    80002e74:	a3dd8317          	auipc	x6,0xa3dd8
    80002e78:	01992033          	slt	x0,x18,x25
    80002e7c:	0155d41b          	srliw	x8,x11,0x15
    80002e80:	c51b03b7          	lui	x7,0xc51b0
    80002e84:	00b63ab3          	sltu	x21,x12,x11
    80002e88:	30a72f13          	slti	x30,x14,778
    80002e8c:	8747bcb7          	lui	x25,0x8747b
    80002e90:	0169033b          	addw	x6,x18,x22
    80002e94:	02cd1b13          	slli	x22,x26,0x2c
    80002e98:	f4f3f037          	lui	x0,0xf4f3f
    80002e9c:	401edd33          	sra	x26,x29,x1
    80002ea0:	15fec193          	xori	x3,x29,351
    80002ea4:	8115da37          	lui	x20,0x8115d
    80002ea8:	41d480bb          	subw	x1,x9,x29
    80002eac:	418cd29b          	sraiw	x5,x25,0x18
    80002eb0:	bf6f09b7          	lui	x19,0xbf6f0
    80002eb4:	41e3543b          	sraw	x8,x6,x30
    80002eb8:	030a5113          	srli	x2,x20,0x30
    80002ebc:	5ce10937          	lui	x18,0x5ce10
    80002ec0:	01023f33          	sltu	x30,x4,x16
    80002ec4:	202cc313          	xori	x6,x25,514
    80002ec8:	02235ab7          	lui	x21,0x2235
    80002ecc:	40e55c33          	sra	x24,x10,x14
    80002ed0:	005f1e93          	slli	x29,x30,0x5
    80002ed4:	25bb38b7          	lui	x17,0x25bb3
    80002ed8:	01e7ddbb          	srlw	x27,x15,x30
    80002edc:	f5bc3e13          	sltiu	x28,x24,-165
    80002ee0:	ec765d17          	auipc	x26,0xec765
    80002ee4:	01e18633          	add	x12,x3,x30
    80002ee8:	45ffe313          	ori	x6,x31,1119
    80002eec:	339e8137          	lui	x2,0x339e8
    80002ef0:	41af87b3          	sub	x15,x31,x26
    80002ef4:	01345d1b          	srliw	x26,x8,0x13
    80002ef8:	b9b55237          	lui	x4,0xb9b55
    80002efc:	0144193b          	sllw	x18,x8,x20
    80002f00:	936f0693          	addi	x13,x30,-1738 # ffffffff82a86936 <_start+0xffffffff02a86936>
    80002f04:	466f91b7          	lui	x3,0x466f9
    80002f08:	41f85133          	sra	x2,x16,x31
    80002f0c:	d46b7413          	andi	x8,x22,-698
    80002f10:	29a1ee97          	auipc	x29,0x29a1e
    80002f14:	00fbdb3b          	srlw	x22,x23,x15
    80002f18:	20c57c13          	andi	x24,x10,524
    80002f1c:	7ac0efb7          	lui	x31,0x7ac0e
    80002f20:	0046e633          	or	x12,x13,x4
    80002f24:	faa10e9b          	addiw	x29,x2,-86 # 339e7faa <_start-0x4c618056>
    80002f28:	def3d4b7          	lui	x9,0xdef3d
    80002f2c:	01b0f7b3          	and	x15,x1,x27
    80002f30:	0196909b          	slliw	x1,x13,0x19
    80002f34:	0d547e17          	auipc	x28,0xd547
    80002f38:	000216bb          	sllw	x13,x4,x0
    80002f3c:	12002a13          	slti	x20,x0,288
    80002f40:	c4459037          	lui	x0,0xc4459
    80002f44:	01b9bb33          	sltu	x22,x19,x27
    80002f48:	ae823813          	sltiu	x16,x4,-1304
    80002f4c:	6904c737          	lui	x14,0x6904c
    80002f50:	01cee3b3          	or	x7,x29,x28
    80002f54:	ef818113          	addi	x2,x3,-264 # 466f8ef8 <_start-0x39907108>
    80002f58:	e1270fb7          	lui	x31,0xe1270
    80002f5c:	00c9d6bb          	srlw	x13,x19,x12
    80002f60:	000cd61b          	srliw	x12,x25,0x0
    80002f64:	c2139717          	auipc	x14,0xc2139
    80002f68:	00a81933          	sll	x18,x16,x10
    80002f6c:	eb233013          	sltiu	x0,x6,-334
    80002f70:	42b8e697          	auipc	x13,0x42b8e
    80002f74:	411ddf33          	sra	x30,x27,x17
    80002f78:	402bd49b          	sraiw	x9,x23,0x2
    80002f7c:	a6281d97          	auipc	x27,0xa6281
    80002f80:	00e06fb3          	or	x31,x0,x14
    80002f84:	fb81f293          	andi	x5,x3,-72
    80002f88:	a301a697          	auipc	x13,0xa301a
    80002f8c:	01a3833b          	addw	x6,x7,x26
    80002f90:	402e849b          	addiw	x9,x29,1026 # ffffffffa9a21312 <_start+0xffffffff29a21312>
    80002f94:	7ed3f7b7          	lui	x15,0x7ed3f
    80002f98:	4005ddb3          	sra	x27,x11,x0
    80002f9c:	413a529b          	sraiw	x5,x20,0x13
    80002fa0:	ac41e597          	auipc	x11,0xac41e
    80002fa4:	010c97b3          	sll	x15,x25,x16
    80002fa8:	fe913693          	sltiu	x13,x2,-23
    80002fac:	b94b6c17          	auipc	x24,0xb94b6
    80002fb0:	001fee33          	or	x28,x31,x1
    80002fb4:	b03ef893          	andi	x17,x29,-1277
    80002fb8:	80b38f17          	auipc	x30,0x80b38
    80002fbc:	00201ab3          	sll	x21,x0,x2
    80002fc0:	0d476213          	ori	x4,x14,212
    80002fc4:	25822e17          	auipc	x28,0x25822
    80002fc8:	005a3133          	sltu	x2,x20,x5
    80002fcc:	fd31829b          	addiw	x5,x3,-45
    80002fd0:	ac3ef337          	lui	x6,0xac3ef
    80002fd4:	40325f33          	sra	x30,x4,x3
    80002fd8:	40bd521b          	sraiw	x4,x26,0xb
    80002fdc:	85650297          	auipc	x5,0x85650
    80002fe0:	018b38b3          	sltu	x17,x22,x24
    80002fe4:	81bce493          	ori	x9,x25,-2021
    80002fe8:	b2c60397          	auipc	x7,0xb2c60
    80002fec:	00c96733          	or	x14,x18,x12
    80002ff0:	ca4b6013          	ori	x0,x22,-860
    80002ff4:	9bb3b497          	auipc	x9,0x9bb3b
    80002ff8:	4082d5bb          	sraw	x11,x5,x8
    80002ffc:	ac4a7293          	andi	x5,x20,-1340
    80003000:	acc5b937          	lui	x18,0xacc5b
    80003004:	01c15b3b          	srlw	x22,x2,x28
    80003008:	169c4c13          	xori	x24,x24,361
    8000300c:	8d2db0b7          	lui	x1,0x8d2db
    80003010:	003e8033          	add	x0,x29,x3
    80003014:	22cbe513          	ori	x10,x23,556
    80003018:	d690cf97          	auipc	x31,0xd690c
    8000301c:	015bcb33          	xor	x22,x23,x21
    80003020:	007ad89b          	srliw	x17,x21,0x7
    80003024:	b7333717          	auipc	x14,0xb7333
    80003028:	00387a33          	and	x20,x16,x3
    8000302c:	036f5c93          	srli	x25,x30,0x36
    80003030:	35be36b7          	lui	x13,0x35be3
    80003034:	005477b3          	and	x15,x8,x5
    80003038:	03421a93          	slli	x21,x4,0x34
    8000303c:	52ac4237          	lui	x4,0x52ac4
    80003040:	01f43133          	sltu	x2,x8,x31
    80003044:	17d5c693          	xori	x13,x11,381
    80003048:	15332917          	auipc	x18,0x15332
    8000304c:	00f504bb          	addw	x9,x10,x15
    80003050:	0018da1b          	srliw	x20,x17,0x1
    80003054:	09a6b717          	auipc	x14,0x9a6b
    80003058:	002ced33          	or	x26,x25,x2
    8000305c:	f31b4493          	xori	x9,x22,-207
    80003060:	2b0957b7          	lui	x15,0x2b095
    80003064:	00239933          	sll	x18,x7,x2
    80003068:	4351ec13          	ori	x24,x3,1077
    8000306c:	3eb0ff97          	auipc	x31,0x3eb0f
    80003070:	00802133          	slt	x2,x0,x8
    80003074:	41635d9b          	sraiw	x27,x6,0x16
    80003078:	6c958417          	auipc	x8,0x6c958
    8000307c:	01a3f6b3          	and	x13,x7,x26
    80003080:	7e9b3213          	sltiu	x4,x22,2025
    80003084:	5e691937          	lui	x18,0x5e691
    80003088:	0184c5b3          	xor	x11,x9,x24
    8000308c:	a7048293          	addi	x5,x9,-1424 # 1bb3da64 <_start-0x644c259c>
    80003090:	7be83997          	auipc	x19,0x7be83
    80003094:	41040d3b          	subw	x26,x8,x16
    80003098:	0170991b          	slliw	x18,x1,0x17
    8000309c:	8e0146b7          	lui	x13,0x8e014
    800030a0:	01611a33          	sll	x20,x2,x22
    800030a4:	00b35593          	srli	x11,x6,0xb
    800030a8:	0ffcf137          	lui	x2,0xffcf
    800030ac:	4156023b          	subw	x4,x12,x21
    800030b0:	d0dc7293          	andi	x5,x24,-755
    800030b4:	39bb5617          	auipc	x12,0x39bb5
    800030b8:	00d35a3b          	srlw	x20,x6,x13
    800030bc:	01231b93          	slli	x23,x6,0x12
    800030c0:	9c6c0537          	lui	x10,0x9c6c0
    800030c4:	01f3933b          	sllw	x6,x7,x31
    800030c8:	01306813          	ori	x16,x0,19
    800030cc:	06badb37          	lui	x22,0x6bad
    800030d0:	014ce2b3          	or	x5,x25,x20
    800030d4:	03921013          	slli	x0,x4,0x39
    800030d8:	ebb47817          	auipc	x16,0xebb47
    800030dc:	01bd163b          	sllw	x12,x26,x27
    800030e0:	438d5c13          	srai	x24,x26,0x38
    800030e4:	8ac5b117          	auipc	x2,0x8ac5b
    800030e8:	407b07b3          	sub	x15,x22,x7
    800030ec:	405b5d1b          	sraiw	x26,x22,0x5
    800030f0:	2b39d637          	lui	x12,0x2b39d
    800030f4:	41e68c3b          	subw	x24,x13,x30
    800030f8:	0153571b          	srliw	x14,x6,0x15
    800030fc:	a1781097          	auipc	x1,0xa1781
    80003100:	00a532b3          	sltu	x5,x10,x10
    80003104:	84dc8d1b          	addiw	x26,x25,-1971 # ffffffff8747a84d <_start+0xffffffff0747a84d>
    80003108:	55d9b137          	lui	x2,0x55d9b
    8000310c:	00e63533          	sltu	x10,x12,x14
    80003110:	f517049b          	addiw	x9,x14,-175 # ffffffff89a6dfa5 <_start+0xffffffff09a6dfa5>
    80003114:	f6ede6b7          	lui	x13,0xf6ede
    80003118:	00cf1bbb          	sllw	x23,x30,x12
    8000311c:	0a8f3013          	sltiu	x0,x30,168
    80003120:	8bed7db7          	lui	x27,0x8bed7
    80003124:	019e6fb3          	or	x31,x28,x25
    80003128:	419cd89b          	sraiw	x17,x25,0x19
    8000312c:	eb44a6b7          	lui	x13,0xeb44a
    80003130:	00eba733          	slt	x14,x23,x14
    80003134:	ec102e93          	slti	x29,x0,-319
    80003138:	75c0b017          	auipc	x0,0x75c0b
    8000313c:	016b9e33          	sll	x28,x23,x22
    80003140:	008c9d9b          	slliw	x27,x25,0x8
    80003144:	c1465fb7          	lui	x31,0xc1465
    80003148:	01e6c333          	xor	x6,x13,x30
    8000314c:	002eda1b          	srliw	x20,x29,0x2
    80003150:	109db037          	lui	x0,0x109db
    80003154:	00a29cb3          	sll	x25,x5,x10
    80003158:	510de493          	ori	x9,x27,1296
    8000315c:	2aba91b7          	lui	x3,0x2aba9
    80003160:	013385b3          	add	x11,x7,x19
    80003164:	42905c13          	srai	x24,x0,0x29
    80003168:	a55b19b7          	lui	x19,0xa55b1
    8000316c:	00296ab3          	or	x21,x18,x2
    80003170:	0387d793          	srli	x15,x15,0x38
    80003174:	37327397          	auipc	x7,0x37327
    80003178:	0160b9b3          	sltu	x19,x1,x22
    8000317c:	00309e9b          	slliw	x29,x1,0x3
    80003180:	d18a2a97          	auipc	x21,0xd18a2
    80003184:	4067dfbb          	sraw	x31,x15,x6
    80003188:	5fc00513          	addi	x10,x0,1532
    8000318c:	fd24bdb7          	lui	x27,0xfd24b
    80003190:	01311e33          	sll	x28,x2,x19
    80003194:	50af2413          	slti	x8,x30,1290
    80003198:	91a8cbb7          	lui	x23,0x91a8c
    8000319c:	01906c33          	or	x24,x0,x25
    800031a0:	00e7529b          	srliw	x5,x14,0xe
    800031a4:	1ce45b17          	auipc	x22,0x1ce45
    800031a8:	00f6d233          	srl	x4,x13,x15
    800031ac:	02671193          	slli	x3,x14,0x26
    800031b0:	75663537          	lui	x10,0x75663
    800031b4:	018ac7b3          	xor	x15,x21,x24
    800031b8:	f06db613          	sltiu	x12,x27,-250
    800031bc:	cd6336b7          	lui	x13,0xcd633
    800031c0:	4023803b          	subw	x0,x7,x2
    800031c4:	7a737c13          	andi	x24,x6,1959
    800031c8:	324b6cb7          	lui	x25,0x324b6
    800031cc:	40c8d83b          	sraw	x16,x17,x12
    800031d0:	01405a93          	srli	x21,x0,0x14
    800031d4:	69eea737          	lui	x14,0x69eea
    800031d8:	40d258b3          	sra	x17,x4,x13
    800031dc:	9f896f93          	ori	x31,x18,-1544
    800031e0:	60a22297          	auipc	x5,0x60a22
    800031e4:	0041583b          	srlw	x16,x2,x4
    800031e8:	00df1a13          	slli	x20,x30,0xd
    800031ec:	d1314f37          	lui	x30,0xd1314
    800031f0:	016497bb          	sllw	x15,x9,x22
    800031f4:	a441e893          	ori	x17,x3,-1468
    800031f8:	c2719697          	auipc	x13,0xc2719
    800031fc:	0025e233          	or	x4,x11,x2
    80003200:	f44c8493          	addi	x9,x25,-188 # 324b5f44 <_start-0x4db4a0bc>
    80003204:	4a638117          	auipc	x2,0x4a638
    80003208:	41355c3b          	sraw	x24,x10,x19
    8000320c:	00059093          	slli	x1,x11,0x0
    80003210:	d9f13db7          	lui	x27,0xd9f13
    80003214:	00d1da3b          	srlw	x20,x3,x13
    80003218:	40595913          	srai	x18,x18,0x5
    8000321c:	3accbe37          	lui	x28,0x3accb
    80003220:	00dc6133          	or	x2,x24,x13
    80003224:	002a5a9b          	srliw	x21,x20,0x2
    80003228:	c7cab597          	auipc	x11,0xc7cab
    8000322c:	0138d033          	srl	x0,x17,x19
    80003230:	9c68e693          	ori	x13,x17,-1594
    80003234:	01d85f17          	auipc	x30,0x1d85
    80003238:	00647533          	and	x10,x8,x6
    8000323c:	0063949b          	slliw	x9,x7,0x6
    80003240:	77dedb37          	lui	x22,0x77ded
    80003244:	01d7af33          	slt	x30,x15,x29
    80003248:	c2c02f93          	slti	x31,x0,-980
    8000324c:	5e52b1b7          	lui	x3,0x5e52b
    80003250:	412d893b          	subw	x18,x27,x18
    80003254:	01e7939b          	slliw	x7,x15,0x1e
    80003258:	21c5c4b7          	lui	x9,0x21c5c
    8000325c:	01bdf233          	and	x4,x27,x27
    80003260:	59608d9b          	addiw	x27,x1,1430 # 21784692 <_start-0x5e87b96e>
    80003264:	95547f17          	auipc	x30,0x95547
    80003268:	009e3933          	sltu	x18,x28,x9
    8000326c:	43cfda13          	srai	x20,x31,0x3c
    80003270:	8236ec17          	auipc	x24,0x8236e
    80003274:	01763533          	sltu	x10,x12,x23
    80003278:	00615c9b          	srliw	x25,x2,0x6
    8000327c:	41cf6117          	auipc	x2,0x41cf6
    80003280:	00f186bb          	addw	x13,x3,x15
    80003284:	019d549b          	srliw	x9,x26,0x19
    80003288:	9bcf55b7          	lui	x11,0x9bcf5
    8000328c:	01309eb3          	sll	x29,x1,x19
    80003290:	73d26913          	ori	x18,x4,1853
    80003294:	de68ae37          	lui	x28,0xde68a
    80003298:	0170db33          	srl	x22,x1,x23
    8000329c:	0114d31b          	srliw	x6,x9,0x11
    800032a0:	e7f6fcb7          	lui	x25,0xe7f6f
    800032a4:	414c52b3          	sra	x5,x24,x20
    800032a8:	9d866113          	ori	x2,x12,-1576
    800032ac:	dafd13b7          	lui	x7,0xdafd1
    800032b0:	003006bb          	addw	x13,x0,x3
    800032b4:	3bec3b93          	sltiu	x23,x24,958
    800032b8:	dac6af97          	auipc	x31,0xdac6a
    800032bc:	002c05b3          	add	x11,x24,x2
    800032c0:	2f26099b          	addiw	x19,x12,754 # 2b39d2f2 <_start-0x54c62d0e>
    800032c4:	372187b7          	lui	x15,0x37218
    800032c8:	019e1d3b          	sllw	x26,x28,x25
    800032cc:	01cadb9b          	srliw	x23,x21,0x1c
    800032d0:	e4842f37          	lui	x30,0xe4842
    800032d4:	409887bb          	subw	x15,x17,x9
    800032d8:	01fb5c9b          	srliw	x25,x22,0x1f
    800032dc:	a1b406b7          	lui	x13,0xa1b40
    800032e0:	00ee88b3          	add	x17,x29,x14
    800032e4:	20d4ba93          	sltiu	x21,x9,525
    800032e8:	649c01b7          	lui	x3,0x649c0
    800032ec:	00ea4d33          	xor	x26,x20,x14
    800032f0:	7bdd8b13          	addi	x22,x27,1981 # ffffffffd9f137bd <_start+0xffffffff59f137bd>
    800032f4:	89d05c97          	auipc	x25,0x89d05
    800032f8:	00fa0ebb          	addw	x29,x20,x15
    800032fc:	8f6d2013          	slti	x0,x26,-1802
    80003300:	8e67da97          	auipc	x21,0x8e67d
    80003304:	40898bbb          	subw	x23,x19,x8
    80003308:	00899413          	slli	x8,x19,0x8
    8000330c:	8b269b37          	lui	x22,0x8b269
    80003310:	41d059bb          	sraw	x19,x0,x29
    80003314:	02f51e93          	slli	x29,x10,0x2f
    80003318:	b8dee297          	auipc	x5,0xb8dee
    8000331c:	418a0abb          	subw	x21,x20,x24
    80003320:	59cdad93          	slti	x27,x27,1436
    80003324:	ab41f497          	auipc	x9,0xab41f
    80003328:	40f28a33          	sub	x20,x5,x15
    8000332c:	6551c313          	xori	x6,x3,1621
    80003330:	5ef59037          	lui	x0,0x5ef59
    80003334:	002d0e3b          	addw	x28,x26,x2
    80003338:	00a4d59b          	srliw	x11,x9,0xa
    8000333c:	a74699b7          	lui	x19,0xa7469
    80003340:	01412ab3          	slt	x21,x2,x20
    80003344:	9400051b          	addiw	x10,x0,-1728
    80003348:	3408f197          	auipc	x3,0x3408f
    8000334c:	41ee88bb          	subw	x17,x29,x30
    80003350:	02369a93          	slli	x21,x13,0x23
    80003354:	8ac38437          	lui	x8,0x8ac38
    80003358:	01ac6c33          	or	x24,x24,x26
    8000335c:	43fd5013          	srai	x0,x26,0x3f
    80003360:	0e23edb7          	lui	x27,0xe23e
    80003364:	4061d0bb          	sraw	x1,x3,x6
    80003368:	01f8169b          	slliw	x13,x16,0x1f
    8000336c:	cece4d37          	lui	x26,0xcece4
    80003370:	01fe49b3          	xor	x19,x28,x31
    80003374:	01dedc9b          	srliw	x25,x29,0x1d
    80003378:	bcf0bf37          	lui	x30,0xbcf0b
    8000337c:	01f122b3          	slt	x5,x2,x31
    80003380:	003ede13          	srli	x28,x29,0x3
    80003384:	280d7697          	auipc	x13,0x280d7
    80003388:	01e80d33          	add	x26,x16,x30
    8000338c:	b9b10e9b          	addiw	x29,x2,-1125 # ffffffffc1cf8e17 <_start+0xffffffff41cf8e17>
    80003390:	e1035f37          	lui	x30,0xe1035
    80003394:	00194bb3          	xor	x23,x18,x1
    80003398:	3f26a093          	slti	x1,x13,1010
    8000339c:	be39e217          	auipc	x4,0xbe39e
    800033a0:	405a88bb          	subw	x17,x21,x5
    800033a4:	dab28413          	addi	x8,x5,-597 # 38df10c3 <_start-0x4720ef3d>
    800033a8:	fcecf017          	auipc	x0,0xfcecf
    800033ac:	41628a3b          	subw	x20,x5,x22
    800033b0:	008d109b          	slliw	x1,x26,0x8
    800033b4:	3fa16297          	auipc	x5,0x3fa16
    800033b8:	0194b9b3          	sltu	x19,x9,x25
    800033bc:	bad04b13          	xori	x22,x0,-1107
    800033c0:	a77560b7          	lui	x1,0xa7756
    800033c4:	00b26633          	or	x12,x4,x11
    800033c8:	99743593          	sltiu	x11,x8,-1641
    800033cc:	43025217          	auipc	x4,0x43025
    800033d0:	415c5c3b          	sraw	x24,x24,x21
    800033d4:	ce68fe93          	andi	x29,x17,-794
    800033d8:	b1e6b837          	lui	x16,0xb1e6b
    800033dc:	0170cfb3          	xor	x31,x1,x23
    800033e0:	31d43b93          	sltiu	x23,x8,797
    800033e4:	8896a397          	auipc	x7,0x8896a
    800033e8:	01551733          	sll	x14,x10,x21
    800033ec:	73f07a93          	andi	x21,x0,1855
    800033f0:	4d88ee17          	auipc	x28,0x4d88e
    800033f4:	01e35433          	srl	x8,x6,x30
    800033f8:	1da80f13          	addi	x30,x16,474 # ffffffffb1e6b1da <_start+0xffffffff31e6b1da>
    800033fc:	33619017          	auipc	x0,0x33619
    80003400:	009d8cbb          	addw	x25,x27,x9
    80003404:	fad90a9b          	addiw	x21,x18,-83 # 5e690fad <_start-0x2196f053>
    80003408:	c5556397          	auipc	x7,0xc5556
    8000340c:	41e2d1bb          	sraw	x3,x5,x30
    80003410:	10d26f13          	ori	x30,x4,269
    80003414:	44df99b7          	lui	x19,0x44df9
    80003418:	00fe9cb3          	sll	x25,x29,x15
    8000341c:	01d69613          	slli	x12,x13,0x1d
    80003420:	2fb69d37          	lui	x26,0x2fb69
    80003424:	4095573b          	sraw	x14,x10,x9
    80003428:	034dd793          	srli	x15,x27,0x34
    8000342c:	f13b7617          	auipc	x12,0xf13b7
    80003430:	403083bb          	subw	x7,x1,x3
    80003434:	9b79e593          	ori	x11,x19,-1609
    80003438:	a76ad517          	auipc	x10,0xa76ad
    8000343c:	015b2133          	slt	x2,x22,x21
    80003440:	b580be93          	sltiu	x29,x1,-1192
    80003444:	01326417          	auipc	x8,0x1326
    80003448:	0045f4b3          	and	x9,x11,x4
    8000344c:	0117d71b          	srliw	x14,x15,0x11
    80003450:	07b84db7          	lui	x27,0x7b84
    80003454:	0009e533          	or	x10,x19,x0
    80003458:	083c2e93          	slti	x29,x24,131
    8000345c:	684103b7          	lui	x7,0x68410
    80003460:	002d65b3          	or	x11,x26,x2
    80003464:	f1afaf13          	slti	x30,x31,-230
    80003468:	0bd5c117          	auipc	x2,0xbd5c
    8000346c:	01a2ad33          	slt	x26,x5,x26
    80003470:	59befe93          	andi	x29,x29,1435
    80003474:	aa829a97          	auipc	x21,0xaa829
    80003478:	40475cbb          	sraw	x25,x14,x4
    8000347c:	83d98a1b          	addiw	x20,x19,-1987 # 44df883d <_start-0x3b2077c3>
    80003480:	ded80eb7          	lui	x29,0xded80
    80003484:	002aed33          	or	x26,x21,x2
    80003488:	bb7de813          	ori	x16,x27,-1097
    8000348c:	ef540f97          	auipc	x31,0xef540
    80003490:	006bd633          	srl	x12,x23,x6
    80003494:	03419393          	slli	x7,x3,0x34
    80003498:	a3819137          	lui	x2,0xa3819
    8000349c:	006c05bb          	addw	x11,x24,x6
    800034a0:	fbc03b13          	sltiu	x22,x0,-68
    800034a4:	12483537          	lui	x10,0x12483
    800034a8:	01e7e2b3          	or	x5,x15,x30
    800034ac:	01579a1b          	slliw	x20,x15,0x15
    800034b0:	26d178b7          	lui	x17,0x26d17
    800034b4:	010bd6b3          	srl	x13,x23,x16
    800034b8:	0060db1b          	srliw	x22,x1,0x6
    800034bc:	d2011837          	lui	x16,0xd2011
    800034c0:	00641dbb          	sllw	x27,x8,x6
    800034c4:	00a4d69b          	srliw	x13,x9,0xa
    800034c8:	e91ae1b7          	lui	x3,0xe91ae
    800034cc:	00a01b3b          	sllw	x22,x0,x10
    800034d0:	008ed31b          	srliw	x6,x29,0x8
    800034d4:	77e92297          	auipc	x5,0x77e92
    800034d8:	404751b3          	sra	x3,x14,x4
    800034dc:	3f494413          	xori	x8,x18,1012
    800034e0:	c572b037          	lui	x0,0xc572b
    800034e4:	01e80f33          	add	x30,x16,x30
    800034e8:	ad766513          	ori	x10,x12,-1321
    800034ec:	223d36b7          	lui	x13,0x223d3
    800034f0:	007d80bb          	addw	x1,x27,x7
    800034f4:	433c5b93          	srai	x23,x24,0x33
    800034f8:	21cd1ab7          	lui	x21,0x21cd1
    800034fc:	00aa31b3          	sltu	x3,x20,x10
    80003500:	4a000693          	addi	x13,x0,1184
    80003504:	3211de97          	auipc	x29,0x3211d
    80003508:	007d8e3b          	addw	x28,x27,x7
    8000350c:	01fd1f1b          	slliw	x30,x26,0x1f
    80003510:	233260b7          	lui	x1,0x23326
    80003514:	0122e933          	or	x18,x5,x18
    80003518:	f5e7ea13          	ori	x20,x15,-162
    8000351c:	f48206b7          	lui	x13,0xf4820
    80003520:	408e8433          	sub	x8,x29,x8
    80003524:	0047db9b          	srliw	x23,x15,0x4
    80003528:	30004617          	auipc	x12,0x30004
    8000352c:	40ab0233          	sub	x4,x22,x10
    80003530:	40c8541b          	sraiw	x8,x16,0xc
    80003534:	60c9e937          	lui	x18,0x60c9e
    80003538:	00a393b3          	sll	x7,x7,x10
    8000353c:	01ea1513          	slli	x10,x20,0x1e
    80003540:	f503ba97          	auipc	x21,0xf503b
    80003544:	004e1b33          	sll	x22,x28,x4
    80003548:	01fc1d9b          	slliw	x27,x24,0x1f
    8000354c:	a99f1037          	lui	x0,0xa99f1
    80003550:	40d80ab3          	sub	x21,x16,x13
    80003554:	91713793          	sltiu	x15,x2,-1769
    80003558:	7191dc97          	auipc	x25,0x7191d
    8000355c:	012a6f33          	or	x30,x20,x18
    80003560:	00eadf9b          	srliw	x31,x21,0xe
    80003564:	7be55017          	auipc	x0,0x7be55
    80003568:	007d2db3          	slt	x27,x26,x7
    8000356c:	43195c93          	srai	x25,x18,0x31
    80003570:	fa63b897          	auipc	x17,0xfa63b
    80003574:	40115ebb          	sraw	x29,x2,x1
    80003578:	40ffd79b          	sraiw	x15,x31,0xf
    8000357c:	efc73337          	lui	x6,0xefc73
    80003580:	003bc533          	xor	x10,x23,x3
    80003584:	9f2c8d1b          	addiw	x26,x25,-1550 # fffffffff191ff4a <_start+0xffffffff7191ff4a>
    80003588:	8fd22097          	auipc	x1,0x8fd22
    8000358c:	01ea4b33          	xor	x22,x20,x30
    80003590:	4245a893          	slti	x17,x11,1060
    80003594:	93a3aa17          	auipc	x20,0x93a3a
    80003598:	40b781b3          	sub	x3,x15,x11
    8000359c:	001e539b          	srliw	x7,x28,0x1
    800035a0:	c1abdeb7          	lui	x29,0xc1abd
    800035a4:	01c43a33          	sltu	x20,x8,x28
    800035a8:	5b2f859b          	addiw	x11,x31,1458 # 6f543a3e <_start-0x10abc5c2>
    800035ac:	887ea517          	auipc	x10,0x887ea
    800035b0:	41b88d3b          	subw	x26,x17,x27
    800035b4:	0107d11b          	srliw	x2,x15,0x10
    800035b8:	418313b7          	lui	x7,0x41831
    800035bc:	0166cb33          	xor	x22,x13,x22
    800035c0:	03a6dc13          	srli	x24,x13,0x3a
    800035c4:	1896d517          	auipc	x10,0x1896d
    800035c8:	01f625b3          	slt	x11,x12,x31
    800035cc:	88e6839b          	addiw	x7,x13,-1906 # fffffffff481f88e <_start+0xffffffff7481f88e>
    800035d0:	24a63337          	lui	x6,0x24a63
    800035d4:	01a2883b          	addw	x16,x5,x26
    800035d8:	26874113          	xori	x2,x14,616
    800035dc:	b1595a97          	auipc	x21,0xb1595
    800035e0:	01e35e3b          	srlw	x28,x6,x30
    800035e4:	000f9b93          	slli	x23,x31,0x0
    800035e8:	306d5db7          	lui	x27,0x306d5
    800035ec:	007007b3          	add	x15,x0,x7
    800035f0:	43b3de13          	srai	x28,x7,0x3b
    800035f4:	b569ff97          	auipc	x31,0xb569f
    800035f8:	40be893b          	subw	x18,x29,x11
    800035fc:	f5b9fd13          	andi	x26,x19,-165
    80003600:	9e872437          	lui	x8,0x9e872
    80003604:	004f9bbb          	sllw	x23,x31,x4
    80003608:	2e1e8313          	addi	x6,x29,737 # ffffffffc1abd2e1 <_start+0xffffffff41abd2e1>
    8000360c:	eb399c17          	auipc	x24,0xeb399
    80003610:	003fc2b3          	xor	x5,x31,x3
    80003614:	00595f1b          	srliw	x30,x18,0x5
    80003618:	d02136b7          	lui	x13,0xd0213
    8000361c:	417800bb          	subw	x1,x16,x23
    80003620:	b767051b          	addiw	x10,x14,-1162 # 69ee9b76 <_start-0x1611648a>
    80003624:	b56233b7          	lui	x7,0xb5623
    80003628:	405b8b3b          	subw	x22,x23,x5
    8000362c:	012fd91b          	srliw	x18,x31,0x12
    80003630:	d6f21f97          	auipc	x31,0xd6f21
    80003634:	00de3d33          	sltu	x26,x28,x13
    80003638:	2d0ded93          	ori	x27,x27,720
    8000363c:	11c1d6b7          	lui	x13,0x11c1d
    80003640:	0177f9b3          	and	x19,x15,x23
    80003644:	01039c13          	slli	x24,x7,0x10
    80003648:	7de3fd37          	lui	x26,0x7de3f
    8000364c:	00461e3b          	sllw	x28,x12,x4
    80003650:	73286913          	ori	x18,x16,1842
    80003654:	9e546437          	lui	x8,0x9e546
    80003658:	00c8e3b3          	or	x7,x17,x12
    8000365c:	00249d9b          	slliw	x27,x9,0x2
    80003660:	fbc19597          	auipc	x11,0xfbc19
    80003664:	00e9b533          	sltu	x10,x19,x14
    80003668:	00019693          	slli	x13,x3,0x0
    8000366c:	30506737          	lui	x14,0x30506
    80003670:	00615eb3          	srl	x29,x2,x6
    80003674:	7aa7ec93          	ori	x25,x15,1962
    80003678:	d1b56ab7          	lui	x21,0xd1b56
    8000367c:	00258c33          	add	x24,x11,x2
    80003680:	0184db93          	srli	x23,x9,0x18
    80003684:	cbfb6717          	auipc	x14,0xcbfb6
    80003688:	00b42033          	slt	x0,x8,x11
    8000368c:	1465a893          	slti	x17,x11,326
    80003690:	71f8fab7          	lui	x21,0x71f8f
    80003694:	00b391b3          	sll	x3,x7,x11
    80003698:	f0c06e13          	ori	x28,x0,-244
    8000369c:	dfeff717          	auipc	x14,0xdfeff
    800036a0:	005c893b          	addw	x18,x25,x5
    800036a4:	00925d13          	srli	x26,x4,0x9
    800036a8:	64d30c17          	auipc	x24,0x64d30
    800036ac:	409555b3          	sra	x11,x10,x9
    800036b0:	ac5f2713          	slti	x14,x30,-1339
    800036b4:	81af4397          	auipc	x7,0x81af4
    800036b8:	00544233          	xor	x4,x8,x5
    800036bc:	03d5a493          	slti	x9,x11,61
    800036c0:	33612a37          	lui	x20,0x33612
    800036c4:	016597bb          	sllw	x15,x11,x22
    800036c8:	b5758e1b          	addiw	x28,x11,-1193 # 7bc1c1b7 <_start-0x43e3e49>
    800036cc:	26c83637          	lui	x12,0x26c83
    800036d0:	4172d9bb          	sraw	x19,x5,x23
    800036d4:	f0f80b93          	addi	x23,x16,-241 # ffffffffd2010f0f <_start+0xffffffff52010f0f>
    800036d8:	d83e5737          	lui	x14,0xd83e5
    800036dc:	00ce7ab3          	and	x21,x28,x12
    800036e0:	01111813          	slli	x16,x2,0x11
    800036e4:	3b42f117          	auipc	x2,0x3b42f
    800036e8:	00aca7b3          	slt	x15,x25,x10
    800036ec:	029bde13          	srli	x28,x23,0x29
    800036f0:	81776db7          	lui	x27,0x81776
    800036f4:	01eec833          	xor	x16,x29,x30
    800036f8:	b4368e93          	addi	x29,x13,-1213 # 11c1cb43 <_start-0x6e3e34bd>
    800036fc:	0a3a63b7          	lui	x7,0xa3a6
    80003700:	0179a8b3          	slt	x17,x19,x23
    80003704:	41665b1b          	sraiw	x22,x12,0x16
    80003708:	a3847d97          	auipc	x27,0xa3847
    8000370c:	0193d433          	srl	x8,x7,x25
    80003710:	29b90d13          	addi	x26,x18,667 # 60c9e29b <_start-0x1f361d65>
    80003714:	534c0f37          	lui	x30,0x534c0
    80003718:	014225b3          	slt	x11,x4,x20
    8000371c:	40a7d713          	srai	x14,x15,0xa
    80003720:	4b0f88b7          	lui	x17,0x4b0f8
    80003724:	40878f33          	sub	x30,x15,x8
    80003728:	02ae5093          	srli	x1,x28,0x2a
    8000372c:	9035f117          	auipc	x2,0x9035f
    80003730:	017a1c3b          	sllw	x24,x20,x23
    80003734:	00055e1b          	srliw	x28,x10,0x0
    80003738:	8176cf37          	lui	x30,0x8176c
    8000373c:	01fbd233          	srl	x4,x23,x31
    80003740:	7e17e793          	ori	x15,x15,2017
    80003744:	fcacd017          	auipc	x0,0xfcacd
    80003748:	40538333          	sub	x6,x7,x5
    8000374c:	52448e13          	addi	x28,x9,1316 # 2b422848 <_start-0x54bdd7b8>
    80003750:	c2041437          	lui	x8,0xc2041
    80003754:	412153b3          	sra	x7,x2,x18
    80003758:	ea59c593          	xori	x11,x19,-347
    8000375c:	48202e17          	auipc	x28,0x48202
    80003760:	402fdcbb          	sraw	x25,x31,x2
    80003764:	01ba119b          	slliw	x3,x20,0x1b
    80003768:	9fc48db7          	lui	x27,0x9fc48
    8000376c:	01c21033          	sll	x0,x4,x28
    80003770:	03fa5b93          	srli	x23,x20,0x3f
    80003774:	d25c1a17          	auipc	x20,0xd25c1
    80003778:	01138133          	add	x2,x7,x17
    8000377c:	cc70a913          	slti	x18,x1,-825
    80003780:	633dc597          	auipc	x11,0x633dc
    80003784:	007f0cb3          	add	x25,x30,x7
    80003788:	cce1e213          	ori	x4,x3,-818
    8000378c:	0f36d197          	auipc	x3,0xf36d
    80003790:	015b503b          	srlw	x0,x22,x21
    80003794:	0bed2593          	slti	x11,x26,190
    80003798:	f49d0a97          	auipc	x21,0xf49d0
    8000379c:	004682bb          	addw	x5,x13,x4
    800037a0:	eae3891b          	addiw	x18,x7,-338 # a3a5eae <_start-0x75c5a152>
    800037a4:	95e0b237          	lui	x4,0x95e0b
    800037a8:	01a5c333          	xor	x6,x11,x26
    800037ac:	ed64009b          	addiw	x1,x8,-298 # ffffffffc2040ed6 <_start+0xffffffff42040ed6>
    800037b0:	865277b7          	lui	x15,0x86527
    800037b4:	0024fa33          	and	x20,x9,x2
    800037b8:	e51fb293          	sltiu	x5,x31,-431
    800037bc:	ea522017          	auipc	x0,0xea522
    800037c0:	419207b3          	sub	x15,x4,x25
    800037c4:	42f15b93          	srai	x23,x2,0x2f
    800037c8:	3e2ad417          	auipc	x8,0x3e2ad
    800037cc:	404809b3          	sub	x19,x16,x4
    800037d0:	69973913          	sltiu	x18,x14,1689
    800037d4:	1f2bca17          	auipc	x20,0x1f2bc
    800037d8:	00c55b3b          	srlw	x22,x10,x12
    800037dc:	35e3051b          	addiw	x10,x6,862 # 24a6335e <_start-0x5b59cca2>
    800037e0:	d22c6917          	auipc	x18,0xd22c6
    800037e4:	01c7a333          	slt	x6,x15,x28
    800037e8:	019b169b          	slliw	x13,x22,0x19
    800037ec:	4aaea397          	auipc	x7,0x4aaea
    800037f0:	408484bb          	subw	x9,x9,x8
    800037f4:	9ed06e13          	ori	x28,x0,-1555
    800037f8:	ef073d97          	auipc	x27,0xef073
    800037fc:	41d58c33          	sub	x24,x11,x29
    80003800:	eb848a13          	addi	x20,x9,-328
    80003804:	730f9f37          	lui	x30,0x730f9
    80003808:	41540ab3          	sub	x21,x8,x21
    8000380c:	40905f93          	srai	x31,x0,0x9
    80003810:	9f35f237          	lui	x4,0x9f35f
    80003814:	40e18c3b          	subw	x24,x3,x14
    80003818:	97be4793          	xori	x15,x28,-1669
    8000381c:	9abaa937          	lui	x18,0x9abaa
    80003820:	016d9a33          	sll	x20,x27,x22
    80003824:	8f23b413          	sltiu	x8,x7,-1806
    80003828:	0ff05797          	auipc	x15,0xff05
    8000382c:	417a80b3          	sub	x1,x21,x23
    80003830:	3fdf7213          	andi	x4,x30,1021
    80003834:	c76cf717          	auipc	x14,0xc76cf
    80003838:	00fef533          	and	x10,x29,x15
    8000383c:	7da04a93          	xori	x21,x0,2010
    80003840:	c9466c37          	lui	x24,0xc9466
    80003844:	01eb7f33          	and	x30,x22,x30
    80003848:	0edee813          	ori	x16,x29,237
    8000384c:	23c94637          	lui	x12,0x23c94
    80003850:	4170da3b          	sraw	x20,x1,x23
    80003854:	f024f893          	andi	x17,x9,-254
    80003858:	565767b7          	lui	x15,0x56576
    8000385c:	0049db33          	srl	x22,x19,x4
    80003860:	2cd5be13          	sltiu	x28,x11,717
    80003864:	f5cc4837          	lui	x16,0xf5cc4
    80003868:	01516d33          	or	x26,x2,x21
    8000386c:	5613b993          	sltiu	x19,x7,1377
    80003870:	fc81af37          	lui	x30,0xfc81a
    80003874:	00560ab3          	add	x21,x12,x5
    80003878:	a51a4f93          	xori	x31,x20,-1455
    8000387c:	0cb2c097          	auipc	x1,0xcb2c
    80003880:	00a848b3          	xor	x17,x16,x10
    80003884:	7639e993          	ori	x19,x19,1891
    80003888:	08189bb7          	lui	x23,0x8189
    8000388c:	00ba8333          	add	x6,x21,x11
    80003890:	663d8293          	addi	x5,x27,1635 # 6f076e5b <_start-0x10f891a5>
    80003894:	a41b2cb7          	lui	x25,0xa41b2
    80003898:	017c093b          	addw	x18,x24,x23
    8000389c:	0b1ef593          	andi	x11,x29,177
    800038a0:	68825797          	auipc	x15,0x68825
    800038a4:	40175c3b          	sraw	x24,x14,x1
    800038a8:	554bf613          	andi	x12,x23,1364
    800038ac:	64b0db37          	lui	x22,0x64b0d
    800038b0:	01284ab3          	xor	x21,x16,x18
    800038b4:	0164d79b          	srliw	x15,x9,0x16
    800038b8:	12bc5e37          	lui	x28,0x12bc5
    800038bc:	01bd6c33          	or	x24,x26,x27
    800038c0:	2c5deb93          	ori	x23,x27,709
    800038c4:	e93acf37          	lui	x30,0xe93ac
    800038c8:	010d46b3          	xor	x13,x26,x16
    800038cc:	d8512313          	slti	x6,x2,-635
    800038d0:	c890d4b7          	lui	x9,0xc890d
    800038d4:	01339d3b          	sllw	x26,x7,x19
    800038d8:	40f65113          	srai	x2,x12,0xf
    800038dc:	53e41a37          	lui	x20,0x53e41
    800038e0:	01d2c033          	xor	x0,x5,x29
    800038e4:	dfc5b393          	sltiu	x7,x11,-516
    800038e8:	14d59ab7          	lui	x21,0x14d59
    800038ec:	00c61333          	sll	x6,x12,x12
    800038f0:	016f1913          	slli	x18,x30,0x16
    800038f4:	95d6d897          	auipc	x17,0x95d6d
    800038f8:	4186d23b          	sraw	x4,x13,x24
    800038fc:	0161df93          	srli	x31,x3,0x16
    80003900:	50894d17          	auipc	x26,0x50894
    80003904:	40cade33          	sra	x28,x21,x12
    80003908:	0053d493          	srli	x9,x7,0x5
    8000390c:	047be697          	auipc	x13,0x47be
    80003910:	01697333          	and	x6,x18,x22
    80003914:	33d42b13          	slti	x22,x8,829
    80003918:	5d5fefb7          	lui	x31,0x5d5fe
    8000391c:	0055f133          	and	x2,x11,x5
    80003920:	aa998a9b          	addiw	x21,x19,-1367
    80003924:	23da41b7          	lui	x3,0x23da4
    80003928:	00971433          	sll	x8,x14,x9
    8000392c:	40dc5693          	srai	x13,x24,0xd
    80003930:	a9cbdb37          	lui	x22,0xa9cbd
    80003934:	00fab5b3          	sltu	x11,x21,x15
    80003938:	6ef3871b          	addiw	x14,x7,1775 # ffffffffcaaededb <_start+0xffffffff4aaededb>
    8000393c:	27aef137          	lui	x2,0x27aef
    80003940:	016f08b3          	add	x17,x30,x22
    80003944:	007c161b          	slliw	x12,x24,0x7
    80003948:	2692b217          	auipc	x4,0x2692b
    8000394c:	0083cc33          	xor	x24,x7,x8
    80003950:	43eb5093          	srai	x1,x22,0x3e
    80003954:	66854e37          	lui	x28,0x66854
    80003958:	013467b3          	or	x15,x8,x19
    8000395c:	ef6cbf13          	sltiu	x30,x25,-266
    80003960:	58226337          	lui	x6,0x58226
    80003964:	00546133          	or	x2,x8,x5
    80003968:	027bd213          	srli	x4,x23,0x27
    8000396c:	4b537717          	auipc	x14,0x4b537
    80003970:	00a393bb          	sllw	x7,x7,x10
    80003974:	17bb6b93          	ori	x23,x22,379
    80003978:	74aaaf17          	auipc	x30,0x74aaa
    8000397c:	001042b3          	xor	x5,x0,x1
    80003980:	01085313          	srli	x6,x16,0x10
    80003984:	bdc8a637          	lui	x12,0xbdc8a
    80003988:	40a1043b          	subw	x8,x2,x10
    8000398c:	7c4a4293          	xori	x5,x20,1988
    80003990:	eeb848b7          	lui	x17,0xeeb84
    80003994:	00e0d5b3          	srl	x11,x1,x14
    80003998:	f1d4f013          	andi	x0,x9,-227
    8000399c:	2ab74d37          	lui	x26,0x2ab74
    800039a0:	40e2d43b          	sraw	x8,x5,x14
    800039a4:	41cb5f1b          	sraiw	x30,x22,0x1c
    800039a8:	c2b56137          	lui	x2,0xc2b56
    800039ac:	00a9fa33          	and	x20,x19,x10
    800039b0:	01fe1d9b          	slliw	x27,x28,0x1f
    800039b4:	fbf66c97          	auipc	x25,0xfbf66
    800039b8:	41ad5933          	sra	x18,x26,x26
    800039bc:	00e29f9b          	slliw	x31,x5,0xe
    800039c0:	1c8a9f17          	auipc	x30,0x1c8a9
    800039c4:	414d0bb3          	sub	x23,x26,x20
    800039c8:	bea2fc13          	andi	x24,x5,-1046
    800039cc:	f4c0c117          	auipc	x2,0xf4c0c
    800039d0:	0066ceb3          	xor	x29,x13,x6
    800039d4:	00ec909b          	slliw	x1,x25,0xe
    800039d8:	d1cb2237          	lui	x4,0xd1cb2
    800039dc:	407bdcb3          	sra	x25,x23,x7
    800039e0:	35a53613          	sltiu	x12,x10,858
    800039e4:	938f9417          	auipc	x8,0x938f9
    800039e8:	01d94db3          	xor	x27,x18,x29
    800039ec:	af878a9b          	addiw	x21,x15,-1288 # ffffffffe8828398 <_start+0xffffffff68828398>
    800039f0:	67e672b7          	lui	x5,0x67e67
    800039f4:	00a5d8bb          	srlw	x17,x11,x10
    800039f8:	52eb0c13          	addi	x24,x22,1326 # ffffffffa9cbd52e <_start+0xffffffff29cbd52e>
    800039fc:	a6b79537          	lui	x10,0xa6b79
    80003a00:	40585ab3          	sra	x21,x16,x5
    80003a04:	8a08839b          	addiw	x7,x17,-1888 # ffffffffeeb838a0 <_start+0xffffffff6eb838a0>
    80003a08:	dbd1cbb7          	lui	x23,0xdbd1c
    80003a0c:	01ac84b3          	add	x9,x25,x26
    80003a10:	74507093          	andi	x1,x0,1861
    80003a14:	cd340b17          	auipc	x22,0xcd340
    80003a18:	015ce7b3          	or	x15,x25,x21
    80003a1c:	1ac77293          	andi	x5,x14,428
    80003a20:	24d3f617          	auipc	x12,0x24d3f
    80003a24:	01dd033b          	addw	x6,x26,x29
    80003a28:	39ff2b93          	slti	x23,x30,927
    80003a2c:	c213cc37          	lui	x24,0xc213c
    80003a30:	019f81b3          	add	x3,x31,x25
    80003a34:	4082ce13          	xori	x28,x5,1032
    80003a38:	3861d3b7          	lui	x7,0x3861d
    80003a3c:	009cac33          	slt	x24,x25,x9
    80003a40:	83c2c693          	xori	x13,x5,-1988
    80003a44:	1c395917          	auipc	x18,0x1c395
    80003a48:	01d01b33          	sll	x22,x0,x29
    80003a4c:	d96d2813          	slti	x16,x26,-618
    80003a50:	5f035017          	auipc	x0,0x5f035
    80003a54:	01b8ffb3          	and	x31,x17,x27
    80003a58:	41b95493          	srai	x9,x18,0x1b
    80003a5c:	d54dca97          	auipc	x21,0xd54dc
    80003a60:	00213db3          	sltu	x27,x2,x2
    80003a64:	0058d99b          	srliw	x19,x17,0x5
    80003a68:	be0d3b17          	auipc	x22,0xbe0d3
    80003a6c:	0013b833          	sltu	x16,x7,x1
    80003a70:	70962713          	slti	x14,x12,1801
    80003a74:	98889f17          	auipc	x30,0x98889
    80003a78:	004d52b3          	srl	x5,x26,x4
    80003a7c:	00909c9b          	slliw	x25,x1,0x9
    80003a80:	163e8537          	lui	x10,0x163e8
    80003a84:	01c70a3b          	addw	x20,x14,x28
    80003a88:	01409293          	slli	x5,x1,0x14
    80003a8c:	a956d117          	auipc	x2,0xa956d
    80003a90:	4158d9bb          	sraw	x19,x17,x21
    80003a94:	015f9d1b          	slliw	x26,x31,0x15
    80003a98:	02f692b7          	lui	x5,0x2f69
    80003a9c:	0083583b          	srlw	x16,x6,x8
    80003aa0:	414c501b          	sraiw	x0,x24,0x14
    80003aa4:	913b0937          	lui	x18,0x913b0
    80003aa8:	4033db33          	sra	x22,x7,x3
    80003aac:	c0f3c493          	xori	x9,x7,-1009
    80003ab0:	3058a437          	lui	x8,0x3058a
    80003ab4:	014aa7b3          	slt	x15,x21,x20
    80003ab8:	e4eb7993          	andi	x19,x22,-434
    80003abc:	85d5b937          	lui	x18,0x85d5b
    80003ac0:	0194f1b3          	and	x3,x9,x25
    80003ac4:	03289013          	slli	x0,x17,0x32
    80003ac8:	7e84a3b7          	lui	x7,0x7e84a
    80003acc:	0136e333          	or	x6,x13,x19
    80003ad0:	03679513          	slli	x10,x15,0x36
    80003ad4:	7e4cc717          	auipc	x14,0x7e4cc
    80003ad8:	00d5d5b3          	srl	x11,x11,x13
    80003adc:	a0ef3013          	sltiu	x0,x30,-1522
    80003ae0:	71768897          	auipc	x17,0x71768
    80003ae4:	004ae633          	or	x12,x21,x4
    80003ae8:	39433693          	sltiu	x13,x6,916
    80003aec:	7d7a6737          	lui	x14,0x7d7a6
    80003af0:	001f6933          	or	x18,x30,x1
    80003af4:	02b09c13          	slli	x24,x1,0x2b
    80003af8:	be724db7          	lui	x27,0xbe724
    80003afc:	019451b3          	srl	x3,x8,x25
    80003b00:	00001e9b          	slliw	x29,x0,0x0
    80003b04:	e93de797          	auipc	x15,0xe93de
    80003b08:	00d660b3          	or	x1,x12,x13
    80003b0c:	40c6dd93          	srai	x27,x13,0xc
    80003b10:	2fc07737          	lui	x14,0x2fc07
    80003b14:	0132d43b          	srlw	x8,x5,x19
    80003b18:	40dfd69b          	sraiw	x13,x31,0xd
    80003b1c:	885c1d37          	lui	x26,0x885c1
    80003b20:	40a20a33          	sub	x20,x4,x10
    80003b24:	92f2ec93          	ori	x25,x5,-1745
    80003b28:	7d1e9637          	lui	x12,0x7d1e9
    80003b2c:	41c68333          	sub	x6,x13,x28
    80003b30:	4010581b          	sraiw	x16,x0,0x1
    80003b34:	6d89c497          	auipc	x9,0x6d89c
    80003b38:	003ad13b          	srlw	x2,x21,x3
    80003b3c:	b3450a1b          	addiw	x20,x10,-1228 # 163e7b34 <_start-0x69c184cc>
    80003b40:	a7015797          	auipc	x15,0xa7015
    80003b44:	00b6e9b3          	or	x19,x13,x11
    80003b48:	82af0693          	addi	x13,x30,-2006 # 1888c29e <_start-0x67773d62>
    80003b4c:	050d4d17          	auipc	x26,0x50d4
    80003b50:	00938033          	add	x0,x7,x9
    80003b54:	00139e9b          	slliw	x29,x7,0x1
    80003b58:	7223f217          	auipc	x4,0x7223f
    80003b5c:	409d0abb          	subw	x21,x26,x9
    80003b60:	7de66913          	ori	x18,x12,2014
    80003b64:	b801fa17          	auipc	x20,0xb801f
    80003b68:	400d5033          	sra	x0,x26,x0
    80003b6c:	097dab13          	slti	x22,x27,151
    80003b70:	5262a717          	auipc	x14,0x5262a
    80003b74:	00a6a7b3          	slt	x15,x13,x10
    80003b78:	8b540f9b          	addiw	x31,x8,-1867 # 305898b5 <_start-0x4fa7674b>
    80003b7c:	bbba3d97          	auipc	x27,0xbbba3
    80003b80:	00a512bb          	sllw	x5,x10,x10
    80003b84:	0377d613          	srli	x12,x15,0x37
    80003b88:	fa7ddd37          	lui	x26,0xfa7dd
    80003b8c:	40a6ddbb          	sraw	x27,x13,x10
    80003b90:	7749b313          	sltiu	x6,x19,1908
    80003b94:	08b2f737          	lui	x14,0x8b2f
    80003b98:	01101b3b          	sllw	x22,x0,x17
    80003b9c:	fa39b413          	sltiu	x8,x19,-93
    80003ba0:	cb422897          	auipc	x17,0xcb422
    80003ba4:	01b74cb3          	xor	x25,x14,x27
    80003ba8:	38802913          	slti	x18,x0,904
    80003bac:	a91fc817          	auipc	x16,0xa91fc
    80003bb0:	007546b3          	xor	x13,x10,x7
    80003bb4:	0017d11b          	srliw	x2,x15,0x1
    80003bb8:	bcd10bb7          	lui	x23,0xbcd10
    80003bbc:	00e5d0bb          	srlw	x1,x11,x14
    80003bc0:	00aa529b          	srliw	x5,x20,0xa
    80003bc4:	daa337b7          	lui	x15,0xdaa33
    80003bc8:	40770833          	sub	x16,x14,x7
    80003bcc:	02971113          	slli	x2,x14,0x29
    80003bd0:	a236d297          	auipc	x5,0xa236d
    80003bd4:	00e9e733          	or	x14,x19,x14
    80003bd8:	e04fc213          	xori	x4,x31,-508
    80003bdc:	faf6d017          	auipc	x0,0xfaf6d
    80003be0:	418857b3          	sra	x15,x16,x24
    80003be4:	03e99f93          	slli	x31,x19,0x3e
    80003be8:	e714c297          	auipc	x5,0xe714c
    80003bec:	41e4d5bb          	sraw	x11,x9,x30
    80003bf0:	f67a3b93          	sltiu	x23,x20,-153
    80003bf4:	c3fea137          	lui	x2,0xc3fea
    80003bf8:	007348b3          	xor	x17,x6,x7
    80003bfc:	470c6d13          	ori	x26,x24,1136
    80003c00:	18e07337          	lui	x6,0x18e07
    80003c04:	0021c3b3          	xor	x7,x3,x2
    80003c08:	d8a86693          	ori	x13,x16,-630
    80003c0c:	68e8f8b7          	lui	x17,0x68e8f
    80003c10:	40ef873b          	subw	x14,x31,x14
    80003c14:	4249bb13          	sltiu	x22,x19,1060
    80003c18:	7471b2b7          	lui	x5,0x7471b
    80003c1c:	0006a7b3          	slt	x15,x13,x0
    80003c20:	76476313          	ori	x6,x14,1892
    80003c24:	81f5d1b7          	lui	x3,0x81f5d
    80003c28:	016829b3          	slt	x19,x16,x22
    80003c2c:	16c2ec93          	ori	x25,x5,364
    80003c30:	0fd08697          	auipc	x13,0xfd08
    80003c34:	011f7db3          	and	x27,x30,x17
    80003c38:	011f0993          	addi	x19,x30,17
    80003c3c:	ef6400b7          	lui	x1,0xef640
    80003c40:	0141993b          	sllw	x18,x3,x20
    80003c44:	96560a9b          	addiw	x21,x12,-1691 # 7d1e8965 <_start-0x2e1769b>
    80003c48:	709e2fb7          	lui	x31,0x709e2
    80003c4c:	00a6ebb3          	or	x23,x13,x10
    80003c50:	1e53e093          	ori	x1,x7,485
    80003c54:	7d6e8d37          	lui	x26,0x7d6e8
    80003c58:	00d315b3          	sll	x11,x6,x13
    80003c5c:	19a4f193          	andi	x3,x9,410
    80003c60:	2de78e17          	auipc	x28,0x2de78
    80003c64:	01403633          	sltu	x12,x0,x20
    80003c68:	43bb5513          	srai	x10,x22,0x3b
    80003c6c:	e6715197          	auipc	x3,0xe6715
    80003c70:	0000993b          	sllw	x18,x1,x0
    80003c74:	b9f33793          	sltiu	x15,x6,-1121
    80003c78:	caa33437          	lui	x8,0xcaa33
    80003c7c:	01db973b          	sllw	x14,x23,x29
    80003c80:	01605a1b          	srliw	x20,x0,0x16
    80003c84:	f432c217          	auipc	x4,0xf432c
    80003c88:	007b0e33          	add	x28,x22,x7
    80003c8c:	0119969b          	slliw	x13,x19,0x11
    80003c90:	f5b447b7          	lui	x15,0xf5b44
    80003c94:	01180b33          	add	x22,x16,x17
    80003c98:	33902b93          	slti	x23,x0,825
    80003c9c:	aa006e37          	lui	x28,0xaa006
    80003ca0:	00ef0d3b          	addw	x26,x30,x14
    80003ca4:	4c4df213          	andi	x4,x27,1220
    80003ca8:	4b6faf97          	auipc	x31,0x4b6fa
    80003cac:	00ef0cb3          	add	x25,x30,x14
    80003cb0:	741c7093          	andi	x1,x24,1857
    80003cb4:	348f6297          	auipc	x5,0x348f6
    80003cb8:	00474e33          	xor	x28,x14,x4
    80003cbc:	40ea569b          	sraiw	x13,x20,0xe
    80003cc0:	0cdb7637          	lui	x12,0xcdb7
    80003cc4:	413c0933          	sub	x18,x24,x19
    80003cc8:	3449fd93          	andi	x27,x19,836
    80003ccc:	d8a94fb7          	lui	x31,0xd8a94
    80003cd0:	01ea75b3          	and	x11,x20,x30
    80003cd4:	00c19f13          	slli	x30,x3,0xc
    80003cd8:	b1a87637          	lui	x12,0xb1a87
    80003cdc:	403781bb          	subw	x3,x15,x3
    80003ce0:	409bdb13          	srai	x22,x23,0x9
    80003ce4:	574f1e17          	auipc	x28,0x574f1
    80003ce8:	00de98bb          	sllw	x17,x29,x13
    80003cec:	1373b693          	sltiu	x13,x7,311
    80003cf0:	9b71e1b7          	lui	x3,0x9b71e
    80003cf4:	001c19b3          	sll	x19,x24,x1
    80003cf8:	41bfd71b          	sraiw	x14,x31,0x1b
    80003cfc:	758f1f37          	lui	x30,0x758f1
    80003d00:	004145b3          	xor	x11,x2,x4
    80003d04:	2ad8cf93          	xori	x31,x17,685
    80003d08:	e7b8b497          	auipc	x9,0xe7b8b
    80003d0c:	00007833          	and	x16,x0,x0
    80003d10:	13442893          	slti	x17,x8,308
    80003d14:	2f12db17          	auipc	x22,0x2f12d
    80003d18:	0173d5b3          	srl	x11,x7,x23
    80003d1c:	5d94c693          	xori	x13,x9,1497
    80003d20:	ac3fba97          	auipc	x21,0xac3fb
    80003d24:	01780833          	add	x16,x16,x23
    80003d28:	0683b513          	sltiu	x10,x7,104
    80003d2c:	cb4b0c17          	auipc	x24,0xcb4b0
    80003d30:	01d45633          	srl	x12,x8,x29
    80003d34:	75396893          	ori	x17,x18,1875
    80003d38:	36070717          	auipc	x14,0x36070
    80003d3c:	01fe5d3b          	srlw	x26,x28,x31
    80003d40:	00105f1b          	srliw	x30,x0,0x1
    80003d44:	7581de17          	auipc	x28,0x7581d
    80003d48:	0048e9b3          	or	x19,x17,x4
    80003d4c:	2f37b193          	sltiu	x3,x15,755
    80003d50:	bc072a97          	auipc	x21,0xbc072
    80003d54:	00f8063b          	addw	x12,x16,x15
    80003d58:	9196ed13          	ori	x26,x13,-1767
    80003d5c:	147e1017          	auipc	x0,0x147e1
    80003d60:	0133b5b3          	sltu	x11,x7,x19
    80003d64:	008b991b          	slliw	x18,x23,0x8
    80003d68:	4e3e1717          	auipc	x14,0x4e3e1
    80003d6c:	409c0c3b          	subw	x24,x24,x9
    80003d70:	cc933213          	sltiu	x4,x6,-823
    80003d74:	076b76b7          	lui	x13,0x76b7
    80003d78:	0091ddbb          	srlw	x27,x3,x9
    80003d7c:	024b5793          	srli	x15,x22,0x24
    80003d80:	497f02b7          	lui	x5,0x497f0
    80003d84:	01dcdbb3          	srl	x23,x25,x29
    80003d88:	1e660613          	addi	x12,x12,486 # ffffffffb1a871e6 <_start+0xffffffff31a871e6>
    80003d8c:	2156be97          	auipc	x29,0x2156b
    80003d90:	00118533          	add	x10,x3,x1
    80003d94:	0083109b          	slliw	x1,x6,0x8
    80003d98:	2aded737          	lui	x14,0x2aded
    80003d9c:	005a7b33          	and	x22,x20,x5
    80003da0:	01b11d93          	slli	x27,x2,0x1b
    80003da4:	00ca0837          	lui	x16,0xca0
    80003da8:	01754533          	xor	x10,x10,x23
    80003dac:	03ab9593          	slli	x11,x23,0x3a
    80003db0:	aa880b97          	auipc	x23,0xaa880
    80003db4:	40095eb3          	sra	x29,x18,x0
    80003db8:	4188d993          	srai	x19,x17,0x18
    80003dbc:	57f1d637          	lui	x12,0x57f1d
    80003dc0:	0010c6b3          	xor	x13,x1,x1
    80003dc4:	41075a9b          	sraiw	x21,x14,0x10
    80003dc8:	19af5397          	auipc	x7,0x19af5
    80003dcc:	401807bb          	subw	x15,x16,x1
    80003dd0:	03571313          	slli	x6,x14,0x35
    80003dd4:	70ece937          	lui	x18,0x70ece
    80003dd8:	017fcbb3          	xor	x23,x31,x23
    80003ddc:	a50daf13          	slti	x30,x27,-1456
    80003de0:	23dbb5b7          	lui	x11,0x23dbb
    80003de4:	412150b3          	sra	x1,x2,x18
    80003de8:	72b2b513          	sltiu	x10,x5,1835
    80003dec:	744653b7          	lui	x7,0x74465
    80003df0:	00ec0b3b          	addw	x22,x24,x14
    80003df4:	01f4d11b          	srliw	x2,x9,0x1f
    80003df8:	3fda0237          	lui	x4,0x3fda0
    80003dfc:	40be84bb          	subw	x9,x29,x11
    80003e00:	43c5d393          	srai	x7,x11,0x3c
    80003e04:	fddcf417          	auipc	x8,0xfddcf
    80003e08:	011e1c33          	sll	x24,x28,x17
    80003e0c:	012e1013          	slli	x0,x28,0x12
    80003e10:	8f93b997          	auipc	x19,0x8f93b
    80003e14:	004ddebb          	srlw	x29,x27,x4
    80003e18:	dd34c093          	xori	x1,x9,-557
    80003e1c:	644fd317          	auipc	x6,0x644fd
    80003e20:	002f85bb          	addw	x11,x31,x2
    80003e24:	690cae93          	slti	x29,x25,1680
    80003e28:	2c2d6037          	lui	x0,0x2c2d6
    80003e2c:	008099bb          	sllw	x19,x1,x8
    80003e30:	36a0ba13          	sltiu	x20,x1,874
    80003e34:	3c3480b7          	lui	x1,0x3c348
    80003e38:	01d21633          	sll	x12,x4,x29
    80003e3c:	42a2de13          	srai	x28,x5,0x2a
    80003e40:	153abfb7          	lui	x31,0x153ab
    80003e44:	015d9f3b          	sllw	x30,x27,x21
    80003e48:	01f4d01b          	srliw	x0,x9,0x1f
    80003e4c:	1448d117          	auipc	x2,0x1448d
    80003e50:	40d9d7bb          	sraw	x15,x19,x13
    80003e54:	00bdd81b          	srliw	x16,x27,0xb
    80003e58:	6f6363b7          	lui	x7,0x6f636
    80003e5c:	014f22b3          	slt	x5,x30,x20
    80003e60:	600fa193          	slti	x3,x31,1536
    80003e64:	4e6ec037          	lui	x0,0x4e6ec
    80003e68:	0195ef33          	or	x30,x11,x25
    80003e6c:	2548e493          	ori	x9,x17,596
    80003e70:	24ac9297          	auipc	x5,0x24ac9
    80003e74:	41200d3b          	subw	x26,x0,x18
    80003e78:	40e8df1b          	sraiw	x30,x17,0xe
    80003e7c:	caaad0b7          	lui	x1,0xcaaad
    80003e80:	410a09b3          	sub	x19,x20,x16
    80003e84:	43bbd593          	srai	x11,x23,0x3b
    80003e88:	699e7617          	auipc	x12,0x699e7
    80003e8c:	017d90bb          	sllw	x1,x27,x23
    80003e90:	20168393          	addi	x7,x13,513 # 76b7201 <_start-0x78948dff>
    80003e94:	eebc6a37          	lui	x20,0xeebc6
    80003e98:	0053063b          	addw	x12,x6,x5
    80003e9c:	41525a9b          	sraiw	x21,x4,0x15
    80003ea0:	c10bbfb7          	lui	x31,0xc10bb
    80003ea4:	01a715bb          	sllw	x11,x14,x26
    80003ea8:	3dfc7b13          	andi	x22,x24,991
    80003eac:	05a1e017          	auipc	x0,0x5a1e
    80003eb0:	014f0733          	add	x14,x30,x20
    80003eb4:	414cd693          	srai	x13,x25,0x14
    80003eb8:	975ab437          	lui	x8,0x975ab
    80003ebc:	0161ecb3          	or	x25,x3,x22
    80003ec0:	41d8d01b          	sraiw	x0,x17,0x1d
    80003ec4:	868a5717          	auipc	x14,0x868a5
    80003ec8:	40c787bb          	subw	x15,x15,x12
    80003ecc:	97a9af13          	slti	x30,x19,-1670
    80003ed0:	2fba9417          	auipc	x8,0x2fba9
    80003ed4:	01571eb3          	sll	x29,x14,x21
    80003ed8:	025c5613          	srli	x12,x24,0x25
    80003edc:	7f679a17          	auipc	x20,0x7f679
    80003ee0:	41fc8833          	sub	x16,x25,x31
    80003ee4:	7e24ae13          	slti	x28,x9,2018
    80003ee8:	a16722b7          	lui	x5,0xa1672
    80003eec:	01d5fbb3          	and	x23,x11,x29
    80003ef0:	e1ad051b          	addiw	x10,x26,-486 # 7d6e7e1a <_start-0x29181e6>
    80003ef4:	cd081a37          	lui	x20,0xcd081
    80003ef8:	01a1c3b3          	xor	x7,x3,x26
    80003efc:	a9ac0113          	addi	x2,x24,-1382 # 4b4b37c6 <_start-0x34b4c83a>
    80003f00:	fc114337          	lui	x6,0xfc114
    80003f04:	4195ddb3          	sra	x27,x11,x25
    80003f08:	c05a8e93          	addi	x29,x21,-1019 # 3c075955 <_start-0x43f8a6ab>
    80003f0c:	2abf0217          	auipc	x4,0x2abf0
    80003f10:	418a5e3b          	sraw	x28,x20,x24
    80003f14:	01e4d51b          	srliw	x10,x9,0x1e
    80003f18:	3a8b1137          	lui	x2,0x3a8b1
    80003f1c:	40925733          	sra	x14,x4,x9
    80003f20:	5193ba13          	sltiu	x20,x7,1305
    80003f24:	366473b7          	lui	x7,0x36647
    80003f28:	006ad833          	srl	x16,x21,x6
    80003f2c:	a4430b1b          	addiw	x22,x6,-1468 # fffffffffc113a44 <_start+0xffffffff7c113a44>
    80003f30:	d66eba17          	auipc	x20,0xd66eb
    80003f34:	0115d13b          	srlw	x2,x11,x17
    80003f38:	019e519b          	srliw	x3,x28,0x19
    80003f3c:	534c9f37          	lui	x30,0x534c9
    80003f40:	017ecb33          	xor	x22,x29,x23
    80003f44:	8bcc2c93          	slti	x25,x24,-1860
    80003f48:	fe465f97          	auipc	x31,0xfe465
    80003f4c:	41af56b3          	sra	x13,x30,x26
    80003f50:	4139d513          	srai	x10,x19,0x13
    80003f54:	c7907137          	lui	x2,0xc7907
    80003f58:	01ba9933          	sll	x18,x21,x27
    80003f5c:	bdc77e93          	andi	x29,x14,-1060
    80003f60:	09357617          	auipc	x12,0x9357
    80003f64:	000d41b3          	xor	x3,x26,x0
    80003f68:	414a549b          	sraiw	x9,x20,0x14
    80003f6c:	7aea4ab7          	lui	x21,0x7aea4
    80003f70:	410f8cb3          	sub	x25,x31,x16
    80003f74:	01ff181b          	slliw	x16,x30,0x1f
    80003f78:	7d926037          	lui	x0,0x7d926
    80003f7c:	008e75b3          	and	x11,x28,x8
    80003f80:	e6b27713          	andi	x14,x4,-405
    80003f84:	d0d9b9b7          	lui	x19,0xd0d9b
    80003f88:	01079133          	sll	x2,x15,x16
    80003f8c:	de200293          	addi	x5,x0,-542
    80003f90:	e9187c37          	lui	x24,0xe9187
    80003f94:	00a81633          	sll	x12,x16,x10
    80003f98:	401ddf1b          	sraiw	x30,x27,0x1
    80003f9c:	d344f9b7          	lui	x19,0xd344f
    80003fa0:	0144953b          	sllw	x10,x9,x20
    80003fa4:	6f896e13          	ori	x28,x18,1784
    80003fa8:	def93737          	lui	x14,0xdef93
    80003fac:	408edbbb          	sraw	x23,x29,x8
    80003fb0:	018c5d9b          	srliw	x27,x24,0x18
    80003fb4:	343d4317          	auipc	x6,0x343d4
    80003fb8:	4047d433          	sra	x8,x15,x4
    80003fbc:	fb348d13          	addi	x26,x9,-77 # 67b8ecbb <_start-0x18471345>
    80003fc0:	6d1f0997          	auipc	x19,0x6d1f0
    80003fc4:	400f813b          	subw	x2,x31,x0
    80003fc8:	01581693          	slli	x13,x16,0x15
    80003fcc:	49bddf97          	auipc	x31,0x49bdd
    80003fd0:	01931333          	sll	x6,x6,x25
    80003fd4:	0930a193          	slti	x3,x1,147
    80003fd8:	95c050b7          	lui	x1,0x95c05
    80003fdc:	019e0ab3          	add	x21,x28,x25
    80003fe0:	89fced13          	ori	x26,x25,-1889
    80003fe4:	5d401b97          	auipc	x23,0x5d401
    80003fe8:	009c9c3b          	sllw	x24,x25,x9
    80003fec:	01be5a1b          	srliw	x20,x28,0x1b
    80003ff0:	93b07017          	auipc	x0,0x93b07
    80003ff4:	016367b3          	or	x15,x6,x22
    80003ff8:	03015b93          	srli	x23,x2,0x30
    80003ffc:	8f17f217          	auipc	x4,0x8f17f
    80004000:	00a880bb          	addw	x1,x17,x10
    80004004:	403dda93          	srai	x21,x27,0x3
    80004008:	6935f2b7          	lui	x5,0x6935f
    8000400c:	008e2e33          	slt	x28,x28,x8
    80004010:	408c5c1b          	sraiw	x24,x24,0x8
    80004014:	d0a0d897          	auipc	x17,0xd0a0d
    80004018:	00f402b3          	add	x5,x8,x15
    8000401c:	7a2f8f13          	addi	x30,x31,1954 # c9be176e <_start+0x49be176e>
    80004020:	9956b917          	auipc	x18,0x9956b
    80004024:	00848a33          	add	x20,x9,x8
    80004028:	db19ff93          	andi	x31,x19,-591
    8000402c:	e1fba297          	auipc	x5,0xe1fba
    80004030:	4195df33          	sra	x30,x11,x25
    80004034:	39397a13          	andi	x20,x18,915
    80004038:	ba923997          	auipc	x19,0xba923
    8000403c:	01f25533          	srl	x10,x4,x31
    80004040:	a07d0d9b          	addiw	x27,x26,-1529
    80004044:	c9444d37          	lui	x26,0xc9444
    80004048:	0137d03b          	srlw	x0,x15,x19
    8000404c:	5f68cb93          	xori	x23,x17,1526
    80004050:	cabff517          	auipc	x10,0xcabff
    80004054:	01866a33          	or	x20,x12,x24
    80004058:	03b9d013          	srli	x0,x19,0x3b
    8000405c:	0645a217          	auipc	x4,0x645a
    80004060:	00e9adb3          	slt	x27,x19,x14
    80004064:	01165a1b          	srliw	x20,x12,0x11
    80004068:	3d7f06b7          	lui	x13,0x3d7f0
    8000406c:	00c8dfb3          	srl	x31,x17,x12
    80004070:	62caf013          	andi	x0,x21,1580
    80004074:	29020e17          	auipc	x28,0x29020
    80004078:	0090b933          	sltu	x18,x1,x9
    8000407c:	78ac019b          	addiw	x3,x24,1930 # ffffffffe918778a <_start+0xffffffff6918778a>
    80004080:	7007fdb7          	lui	x27,0x7007f
    80004084:	0137e633          	or	x12,x15,x19
    80004088:	06708013          	addi	x0,x1,103 # ffffffff95c05067 <_start+0xffffffff15c05067>
    8000408c:	cf60b797          	auipc	x15,0xcf60b
    80004090:	01cd3bb3          	sltu	x23,x26,x28
    80004094:	f0d0c513          	xori	x10,x1,-243
    80004098:	b5e51837          	lui	x16,0xb5e51
    8000409c:	00d32c33          	slt	x24,x6,x13
    800040a0:	9ff37193          	andi	x3,x6,-1537
    800040a4:	e6499d37          	lui	x26,0xe6499
    800040a8:	00b26e33          	or	x28,x4,x11
    800040ac:	41f2d31b          	sraiw	x6,x5,0x1f
    800040b0:	b85adc97          	auipc	x25,0xb85ad
    800040b4:	0081903b          	sllw	x0,x3,x8
    800040b8:	03bd5793          	srli	x15,x26,0x3b
    800040bc:	c498e117          	auipc	x2,0xc498e
    800040c0:	0168d2bb          	srlw	x5,x17,x22
    800040c4:	27af2e13          	slti	x28,x30,634
    800040c8:	45d78c17          	auipc	x24,0x45d78
    800040cc:	0173133b          	sllw	x6,x6,x23
    800040d0:	e9cdf713          	andi	x14,x27,-356
    800040d4:	9a5f87b7          	lui	x15,0x9a5f8
    800040d8:	007e5833          	srl	x16,x28,x7
    800040dc:	001e1f1b          	slliw	x30,x28,0x1
    800040e0:	300b3e37          	lui	x28,0x300b3
    800040e4:	01d589b3          	add	x19,x11,x29
    800040e8:	02935a13          	srli	x20,x6,0x29
    800040ec:	423ae437          	lui	x8,0x423ae
    800040f0:	00aacc33          	xor	x24,x21,x10
    800040f4:	0113109b          	slliw	x1,x6,0x11
    800040f8:	84f175b7          	lui	x11,0x84f17
    800040fc:	41ba51bb          	sraw	x3,x20,x27
    80004100:	7f982793          	slti	x15,x16,2041
    80004104:	8e69fa97          	auipc	x21,0x8e69f
    80004108:	406a5233          	sra	x4,x20,x6
    8000410c:	842a051b          	addiw	x10,x20,-1982 # 566ee772 <_start-0x2991188e>
    80004110:	cb23c9b7          	lui	x19,0xcb23c
    80004114:	00891c3b          	sllw	x24,x18,x8
    80004118:	01371293          	slli	x5,x14,0x13
    8000411c:	e2cd8a37          	lui	x20,0xe2cd8
    80004120:	01dd093b          	addw	x18,x26,x29
    80004124:	426f5a93          	srai	x21,x30,0x26
    80004128:	07db1bb7          	lui	x23,0x7db1
    8000412c:	41dd50b3          	sra	x1,x26,x29
    80004130:	50f68a1b          	addiw	x20,x13,1295 # 3d7f050f <_start-0x4280faf1>
    80004134:	84570d17          	auipc	x26,0x84570
    80004138:	017b9b3b          	sllw	x22,x23,x23
    8000413c:	00e95593          	srli	x11,x18,0xe
    80004140:	67e46697          	auipc	x13,0x67e46
    80004144:	00cdee33          	or	x28,x27,x12
    80004148:	01705d1b          	srliw	x26,x0,0x17
    8000414c:	653a6897          	auipc	x17,0x653a6
    80004150:	40b3da3b          	sraw	x20,x7,x11
    80004154:	427c3c13          	sltiu	x24,x24,1063
    80004158:	f81c5637          	lui	x12,0xf81c5
    8000415c:	41e6d33b          	sraw	x6,x13,x30
    80004160:	034f5f13          	srli	x30,x30,0x34
    80004164:	5aac6097          	auipc	x1,0x5aac6
    80004168:	40fe5a3b          	sraw	x20,x28,x15
    8000416c:	41a9d21b          	sraiw	x4,x19,0x1a
    80004170:	ca5e53b7          	lui	x7,0xca5e5
    80004174:	016c88bb          	addw	x17,x25,x22
    80004178:	34590313          	addi	x6,x18,837 # 1956f365 <_start-0x66a90c9b>
    8000417c:	716fb637          	lui	x12,0x716fb
    80004180:	018e8b33          	add	x22,x29,x24
    80004184:	5c40ec93          	ori	x25,x1,1476
    80004188:	b8202997          	auipc	x19,0xb8202
    8000418c:	00adb133          	sltu	x2,x27,x10
    80004190:	93de2913          	slti	x18,x28,-1731
    80004194:	ce6d5197          	auipc	x3,0xce6d5
    80004198:	41385d33          	sra	x26,x16,x19
    8000419c:	017ed39b          	srliw	x7,x29,0x17
    800041a0:	c9c06937          	lui	x18,0xc9c06
    800041a4:	00fc3cb3          	sltu	x25,x24,x15
    800041a8:	431ad893          	srai	x17,x21,0x31
    800041ac:	782ca0b7          	lui	x1,0x782ca
    800041b0:	01250533          	add	x10,x10,x18
    800041b4:	03461813          	slli	x16,x12,0x34
    800041b8:	d23f9217          	auipc	x4,0xd23f9
    800041bc:	01d925b3          	slt	x11,x18,x29
    800041c0:	0003de1b          	srliw	x28,x7,0x0
    800041c4:	6be48717          	auipc	x14,0x6be48
    800041c8:	00a157b3          	srl	x15,x2,x10
    800041cc:	41efd61b          	sraiw	x12,x31,0x1e
    800041d0:	e7b996b7          	lui	x13,0xe7b99
    800041d4:	01ce13bb          	sllw	x7,x28,x28
    800041d8:	fbf28c13          	addi	x24,x5,-65 # 61fbdfeb <_start-0x1e042015>
    800041dc:	965208b7          	lui	x17,0x96520
    800041e0:	010e3b33          	sltu	x22,x28,x16
    800041e4:	f5034193          	xori	x3,x6,-176
    800041e8:	ea68a397          	auipc	x7,0xea68a
    800041ec:	0175b6b3          	sltu	x13,x11,x23
    800041f0:	0131129b          	slliw	x5,x2,0x13
    800041f4:	ccd65597          	auipc	x11,0xccd65
    800041f8:	41ce8933          	sub	x18,x29,x28
    800041fc:	036cdb13          	srli	x22,x25,0x36
    80004200:	24b45a17          	auipc	x20,0x24b45
    80004204:	01ce5db3          	srl	x27,x28,x28
    80004208:	00f41993          	slli	x19,x8,0xf
    8000420c:	8cc6f097          	auipc	x1,0x8cc6f
    80004210:	41ebde33          	sra	x28,x23,x30
    80004214:	408ed213          	srai	x4,x29,0x8
    80004218:	43f1b837          	lui	x16,0x43f1b
    8000421c:	00c396bb          	sllw	x13,x7,x12
    80004220:	01165493          	srli	x9,x12,0x11
    80004224:	93839297          	auipc	x5,0x93839
    80004228:	0160123b          	sllw	x4,x0,x22
    8000422c:	c2dce793          	ori	x15,x25,-979
    80004230:	c6a86eb7          	lui	x29,0xc6a86
    80004234:	407009bb          	subw	x19,x0,x7
    80004238:	4725ff13          	andi	x30,x11,1138
    8000423c:	a44b8d17          	auipc	x26,0xa44b8
    80004240:	017ff3b3          	and	x7,x31,x23
    80004244:	0135d81b          	srliw	x16,x11,0x13
    80004248:	07554297          	auipc	x5,0x7554
    8000424c:	01bf8cb3          	add	x25,x31,x27
    80004250:	bc90e313          	ori	x6,x1,-1079
    80004254:	5a349a17          	auipc	x20,0x5a349
    80004258:	01c992bb          	sllw	x5,x19,x28
    8000425c:	024bd193          	srli	x3,x23,0x24
    80004260:	46751537          	lui	x10,0x46751
    80004264:	41445733          	sra	x14,x8,x20
    80004268:	9e7ab413          	sltiu	x8,x21,-1561
    8000426c:	1dcf57b7          	lui	x15,0x1dcf5
    80004270:	015efe33          	and	x28,x29,x21
    80004274:	02f5d893          	srli	x17,x11,0x2f
    80004278:	36c08817          	auipc	x16,0x36c08
    8000427c:	003afdb3          	and	x27,x21,x3
    80004280:	bb9be093          	ori	x1,x23,-1095
    80004284:	2113e137          	lui	x2,0x2113e
    80004288:	0128a633          	slt	x12,x17,x18
    8000428c:	41e6dc9b          	sraiw	x25,x13,0x1e
    80004290:	a731e817          	auipc	x16,0xa731e
    80004294:	00168733          	add	x14,x13,x1
    80004298:	756e3d13          	sltiu	x26,x28,1878
    8000429c:	9420af37          	lui	x30,0x9420a
    800042a0:	006439b3          	sltu	x19,x8,x6
    800042a4:	03e5d593          	srli	x11,x11,0x3e
    800042a8:	32fbf297          	auipc	x5,0x32fbf
    800042ac:	014d5cb3          	srl	x25,x26,x20
    800042b0:	01911893          	slli	x17,x2,0x19
    800042b4:	d162aa97          	auipc	x21,0xd162a
    800042b8:	0136e1b3          	or	x3,x13,x19
    800042bc:	00e7941b          	slliw	x8,x15,0xe
    800042c0:	9b6f7017          	auipc	x0,0x9b6f7
    800042c4:	41e707bb          	subw	x15,x14,x30
    800042c8:	0504e093          	ori	x1,x9,80
    800042cc:	2325d417          	auipc	x8,0x2325d
    800042d0:	0112803b          	addw	x0,x5,x17
    800042d4:	a9b9f113          	andi	x2,x19,-1381
    800042d8:	8bc95d37          	lui	x26,0x8bc95
    800042dc:	010f973b          	sllw	x14,x31,x16
    800042e0:	41ced69b          	sraiw	x13,x29,0x1c
    800042e4:	0762c1b7          	lui	x3,0x762c
    800042e8:	00b81b33          	sll	x22,x16,x11
    800042ec:	080e4993          	xori	x19,x28,128
    800042f0:	a4a56e97          	auipc	x29,0xa4a56
    800042f4:	01981733          	sll	x14,x16,x25
    800042f8:	18f7b093          	sltiu	x1,x15,399
    800042fc:	6b9695b7          	lui	x11,0x6b969
    80004300:	015d2633          	slt	x12,x26,x21
    80004304:	02bed113          	srli	x2,x29,0x2b
    80004308:	802d7717          	auipc	x14,0x802d7
    8000430c:	00ac1fb3          	sll	x31,x24,x10
    80004310:	029b5a13          	srli	x20,x22,0x29
    80004314:	45ae0137          	lui	x2,0x45ae0
    80004318:	019994b3          	sll	x9,x19,x25
    8000431c:	0091d513          	srli	x10,x3,0x9
    80004320:	a96e33b7          	lui	x7,0xa96e3
    80004324:	014ec333          	xor	x6,x29,x20
    80004328:	e2e7ee93          	ori	x29,x15,-466
    8000432c:	84f69cb7          	lui	x25,0x84f69
    80004330:	001fac33          	slt	x24,x31,x1
    80004334:	429fda93          	srai	x21,x31,0x29
    80004338:	e94ca237          	lui	x4,0xe94ca
    8000433c:	019453b3          	srl	x7,x8,x25
    80004340:	01431013          	slli	x0,x6,0x14
    80004344:	08e29297          	auipc	x5,0x8e29
    80004348:	0017b5b3          	sltu	x11,x15,x1
    8000434c:	40b1509b          	sraiw	x1,x2,0xb
    80004350:	1f93a437          	lui	x8,0x1f93a
    80004354:	0129d533          	srl	x10,x19,x18
    80004358:	00eb9013          	slli	x0,x23,0xe
    8000435c:	7fcc1a97          	auipc	x21,0x7fcc1
    80004360:	00344b33          	xor	x22,x8,x3
    80004364:	3dc7ab93          	slti	x23,x15,988
    80004368:	511b95b7          	lui	x11,0x511b9
    8000436c:	404a8d3b          	subw	x26,x21,x4
    80004370:	764f4313          	xori	x6,x30,1892
    80004374:	ff81ab97          	auipc	x23,0xff81a
    80004378:	41d8503b          	sraw	x0,x16,x29
    8000437c:	4259d713          	srai	x14,x19,0x25
    80004380:	945f4397          	auipc	x7,0x945f4
    80004384:	01e19b3b          	sllw	x22,x3,x30
    80004388:	00601513          	slli	x10,x0,0x6
    8000438c:	31515037          	lui	x0,0x31515
    80004390:	001bd2bb          	srlw	x5,x23,x1
    80004394:	f2016393          	ori	x7,x2,-224
    80004398:	e9c08e37          	lui	x28,0xe9c08
    8000439c:	41b0dfb3          	sra	x31,x1,x27
    800043a0:	413dd61b          	sraiw	x12,x27,0x13
    800043a4:	b5270397          	auipc	x7,0xb5270
    800043a8:	41575f3b          	sraw	x30,x14,x21
    800043ac:	fa317893          	andi	x17,x2,-93
    800043b0:	150517b7          	lui	x15,0x15051
    800043b4:	4184533b          	sraw	x6,x8,x24
    800043b8:	33eba693          	slti	x13,x23,830
    800043bc:	bff1d517          	auipc	x10,0xbff1d
    800043c0:	418a0b33          	sub	x22,x20,x24
    800043c4:	40b0da13          	srai	x20,x1,0xb
    800043c8:	fed39bb7          	lui	x23,0xfed39
    800043cc:	006986b3          	add	x13,x19,x6
    800043d0:	37344b13          	xori	x22,x8,883
    800043d4:	3da61537          	lui	x10,0x3da61
    800043d8:	005c0633          	add	x12,x24,x5
    800043dc:	0143191b          	slliw	x18,x6,0x14
    800043e0:	7e6c0097          	auipc	x1,0x7e6c0
    800043e4:	01fd3433          	sltu	x8,x26,x31
    800043e8:	01ff9b1b          	slliw	x22,x31,0x1f
    800043ec:	ee3259b7          	lui	x19,0xee325
    800043f0:	012bfd33          	and	x26,x23,x18
    800043f4:	00f4151b          	slliw	x10,x8,0xf
    800043f8:	a99d87b7          	lui	x15,0xa99d8
    800043fc:	4112883b          	subw	x16,x5,x17
    80004400:	40f1da1b          	sraiw	x20,x3,0xf
    80004404:	aaabdb97          	auipc	x23,0xaaabd
    80004408:	013f0cbb          	addw	x25,x30,x19
    8000440c:	00851e13          	slli	x28,x10,0x8
    80004410:	bb884217          	auipc	x4,0xbb884
    80004414:	410d5433          	sra	x8,x26,x16
    80004418:	011b129b          	slliw	x5,x22,0x11
    8000441c:	a6ca3337          	lui	x6,0xa6ca3
    80004420:	414e05b3          	sub	x11,x28,x20
    80004424:	a6788013          	addi	x0,x17,-1433 # ffffffff9651fa67 <_start+0xffffffff1651fa67>
    80004428:	12b71737          	lui	x14,0x12b71
    8000442c:	01ce1e3b          	sllw	x28,x28,x28
    80004430:	02299c13          	slli	x24,x19,0x22
    80004434:	757cb837          	lui	x16,0x757cb
    80004438:	015f5133          	srl	x2,x30,x21
    8000443c:	41805b93          	srai	x23,x0,0x18
    80004440:	527ef617          	auipc	x12,0x527ef
    80004444:	41a2d933          	sra	x18,x5,x26
    80004448:	002e969b          	slliw	x13,x29,0x2
    8000444c:	ea55c197          	auipc	x3,0xea55c
    80004450:	001f95b3          	sll	x11,x31,x1
    80004454:	d6e53d13          	sltiu	x26,x10,-658
    80004458:	cf802437          	lui	x8,0xcf802
    8000445c:	01564333          	xor	x6,x12,x21
    80004460:	005fde93          	srli	x29,x31,0x5
    80004464:	d2d6e6b7          	lui	x13,0xd2d6e
    80004468:	41418bb3          	sub	x23,x3,x20
    8000446c:	02979593          	slli	x11,x15,0x29
    80004470:	10222637          	lui	x12,0x10222
    80004474:	00de983b          	sllw	x16,x29,x13
    80004478:	c5a9eb93          	ori	x23,x19,-934
    8000447c:	3caa2c17          	auipc	x24,0x3caa2
    80004480:	411d01bb          	subw	x3,x26,x17
    80004484:	d9cea993          	slti	x19,x29,-612
    80004488:	653a1bb7          	lui	x23,0x653a1
    8000448c:	01444b33          	xor	x22,x8,x20
    80004490:	00049493          	slli	x9,x9,0x0
    80004494:	65592097          	auipc	x1,0x65592
    80004498:	00302833          	slt	x16,x0,x3
    8000449c:	3cc9bf13          	sltiu	x30,x19,972
    800044a0:	8ff3ce17          	auipc	x28,0x8ff3c
    800044a4:	0018ca33          	xor	x20,x17,x1
    800044a8:	4135551b          	sraiw	x10,x10,0x13
    800044ac:	95962d37          	lui	x26,0x95962
    800044b0:	012b92bb          	sllw	x5,x23,x18
    800044b4:	00acd69b          	srliw	x13,x25,0xa
    800044b8:	fae8eb37          	lui	x22,0xfae8e
    800044bc:	01a30833          	add	x16,x6,x26
    800044c0:	8f566d93          	ori	x27,x12,-1803
    800044c4:	56d7a117          	auipc	x2,0x56d7a
    800044c8:	0041d6b3          	srl	x13,x3,x4
    800044cc:	0657cb13          	xori	x22,x15,101
    800044d0:	8e3b6c37          	lui	x24,0x8e3b6
    800044d4:	41ed5d33          	sra	x26,x26,x30
    800044d8:	00b7df9b          	srliw	x31,x15,0xb
    800044dc:	969c5317          	auipc	x6,0x969c5
    800044e0:	41ea8f3b          	subw	x30,x21,x30
    800044e4:	4033dd13          	srai	x26,x7,0x3
    800044e8:	baacb7b7          	lui	x15,0xbaacb
    800044ec:	01d6e633          	or	x12,x13,x29
    800044f0:	e7958113          	addi	x2,x11,-391 # 511b8e79 <_start-0x2ee47187>
    800044f4:	ef3ea6b7          	lui	x13,0xef3ea
    800044f8:	003f6933          	or	x18,x30,x3
    800044fc:	3b5bc613          	xori	x12,x23,949
    80004500:	7ba79817          	auipc	x16,0x7ba79
    80004504:	01323db3          	sltu	x27,x4,x19
    80004508:	45abaf13          	slti	x30,x23,1114
    8000450c:	b5d66497          	auipc	x9,0xb5d66
    80004510:	007928b3          	slt	x17,x18,x7
    80004514:	3b966b93          	ori	x23,x12,953
    80004518:	285d5e37          	lui	x28,0x285d5
    8000451c:	00220a3b          	addw	x20,x4,x2
    80004520:	9b01e313          	ori	x6,x3,-1616
    80004524:	b37a4897          	auipc	x17,0xb37a4
    80004528:	00eb5d3b          	srlw	x26,x22,x14
    8000452c:	0a02b913          	sltiu	x18,x5,160
    80004530:	f3ebe3b7          	lui	x7,0xf3ebe
    80004534:	013106b3          	add	x13,x2,x19
    80004538:	46cf4413          	xori	x8,x30,1132
    8000453c:	568d4497          	auipc	x9,0x568d4
    80004540:	0042573b          	srlw	x14,x4,x4
    80004544:	3057f293          	andi	x5,x15,773
    80004548:	a05a9e17          	auipc	x28,0xa05a9
    8000454c:	40d8033b          	subw	x6,x16,x13
    80004550:	6a0fbc13          	sltiu	x24,x31,1696
    80004554:	5f25ea97          	auipc	x21,0x5f25e
    80004558:	01b09f33          	sll	x30,x1,x27
    8000455c:	f8740713          	addi	x14,x8,-121 # ffffffffcf801f87 <_start+0xffffffff4f801f87>
    80004560:	f3170037          	lui	x0,0xf3170
    80004564:	008458bb          	srlw	x17,x8,x8
    80004568:	e1ec829b          	addiw	x5,x25,-482 # ffffffff84f68e1e <_start+0xffffffff04f68e1e>
    8000456c:	196c2c97          	auipc	x25,0x196c2
    80004570:	41fd00bb          	subw	x1,x26,x31
    80004574:	43a95b13          	srai	x22,x18,0x3a
    80004578:	2ca75417          	auipc	x8,0x2ca75
    8000457c:	00dd1ebb          	sllw	x29,x26,x13
    80004580:	e243859b          	addiw	x11,x7,-476 # fffffffff3ebde24 <_start+0xffffffff73ebde24>
    80004584:	35fac117          	auipc	x2,0x35fac
    80004588:	01398333          	add	x6,x19,x19
    8000458c:	5c097993          	andi	x19,x18,1472
    80004590:	48c85c97          	auipc	x25,0x48c85
    80004594:	41ae8533          	sub	x10,x29,x26
    80004598:	614c041b          	addiw	x8,x24,1556 # ffffffff8e3b6614 <_start+0xffffffff0e3b6614>
    8000459c:	45a439b7          	lui	x19,0x45a43
    800045a0:	00cf9b33          	sll	x22,x31,x12
    800045a4:	0189151b          	slliw	x10,x18,0x18
    800045a8:	e55a0597          	auipc	x11,0xe55a0
    800045ac:	01ba19bb          	sllw	x19,x20,x27
    800045b0:	0392de93          	srli	x29,x5,0x39
    800045b4:	3773fa17          	auipc	x20,0x3773f
    800045b8:	41c20abb          	subw	x21,x4,x28
    800045bc:	8b4b0d1b          	addiw	x26,x22,-1868 # fffffffffae8d8b4 <_start+0xffffffff7ae8d8b4>
    800045c0:	68f22b37          	lui	x22,0x68f22
    800045c4:	017ec3b3          	xor	x7,x29,x23
    800045c8:	01d91a9b          	slliw	x21,x18,0x1d
    800045cc:	74a97297          	auipc	x5,0x74a97
    800045d0:	01879db3          	sll	x27,x15,x24
    800045d4:	03439593          	slli	x11,x7,0x34
    800045d8:	bc61c3b7          	lui	x7,0xbc61c
    800045dc:	013b7a33          	and	x20,x22,x19
    800045e0:	400cd71b          	sraiw	x14,x25,0x0
    800045e4:	f3a630b7          	lui	x1,0xf3a63
    800045e8:	01f6053b          	addw	x10,x12,x31
    800045ec:	01b29f9b          	slliw	x31,x5,0x1b
    800045f0:	54277797          	auipc	x15,0x54277
    800045f4:	01574f33          	xor	x30,x14,x21
    800045f8:	00e7109b          	slliw	x1,x14,0xe
    800045fc:	99085d17          	auipc	x26,0x99085
    80004600:	004e43b3          	xor	x7,x28,x4
    80004604:	03619413          	slli	x8,x3,0x36
    80004608:	70a0cc97          	auipc	x25,0x70a0c
    8000460c:	015ef9b3          	and	x19,x29,x21
    80004610:	4022d693          	srai	x13,x5,0x2
    80004614:	d8305897          	auipc	x17,0xd8305
    80004618:	418287b3          	sub	x15,x5,x24
    8000461c:	43725993          	srai	x19,x4,0x37
    80004620:	036dee17          	auipc	x28,0x36de
    80004624:	01ebbbb3          	sltu	x23,x23,x30
    80004628:	2bc48e93          	addi	x29,x9,700 # d68d87f8 <_start+0x568d87f8>
    8000462c:	a187fa17          	auipc	x20,0xa187f
    80004630:	007f913b          	sllw	x2,x31,x7
    80004634:	02966f13          	ori	x30,x12,41
    80004638:	7499c337          	lui	x6,0x7499c
    8000463c:	01de4fb3          	xor	x31,x28,x29
    80004640:	41fad51b          	sraiw	x10,x21,0x1f
    80004644:	4e151817          	auipc	x16,0x4e151
    80004648:	01d60c33          	add	x24,x12,x29
    8000464c:	e8b18593          	addi	x11,x3,-373 # 6a5602d7 <_start-0x15a9fd29>
    80004650:	9932f237          	lui	x4,0x9932f
    80004654:	00809cbb          	sllw	x25,x1,x8
    80004658:	40f05a93          	srai	x21,x0,0xf
    8000465c:	051a9337          	lui	x6,0x51a9
    80004660:	005faa33          	slt	x20,x31,x5
    80004664:	e0b53513          	sltiu	x10,x10,-501
    80004668:	30091917          	auipc	x18,0x30091
    8000466c:	00b09633          	sll	x12,x1,x11
    80004670:	2860011b          	addiw	x2,x0,646
    80004674:	f5634497          	auipc	x9,0xf5634
    80004678:	4133533b          	sraw	x6,x6,x19
    8000467c:	01ced59b          	srliw	x11,x29,0x1c
    80004680:	ecc69137          	lui	x2,0xecc69
    80004684:	00c2863b          	addw	x12,x5,x12
    80004688:	37f57193          	andi	x3,x10,895
    8000468c:	1ad9d797          	auipc	x15,0x1ad9d
    80004690:	00eac333          	xor	x6,x21,x14
    80004694:	9c4e8593          	addi	x11,x29,-1596 # 24a59cb4 <_start-0x5b5a634c>
    80004698:	6ba5c617          	auipc	x12,0x6ba5c
    8000469c:	41748fbb          	subw	x31,x9,x23
    800046a0:	fc484293          	xori	x5,x16,-60
    800046a4:	18694797          	auipc	x15,0x18694
    800046a8:	01170433          	add	x8,x14,x17
    800046ac:	40f6549b          	sraiw	x9,x12,0xf
    800046b0:	853ffc97          	auipc	x25,0x853ff
    800046b4:	01f59eb3          	sll	x29,x11,x31
    800046b8:	01351f13          	slli	x30,x10,0x13
    800046bc:	d9b208b7          	lui	x17,0xd9b20
    800046c0:	01048633          	add	x12,x9,x16
    800046c4:	fa512b93          	slti	x23,x2,-91
    800046c8:	bd718537          	lui	x10,0xbd718
    800046cc:	019a9a33          	sll	x20,x21,x25
    800046d0:	b9b78713          	addi	x14,x15,-1125 # 9869823f <_start+0x1869823f>
    800046d4:	144d0837          	lui	x16,0x144d0
    800046d8:	013bd3bb          	srlw	x7,x23,x19
    800046dc:	7982c993          	xori	x19,x5,1944
    800046e0:	8e32b117          	auipc	x2,0x8e32b
    800046e4:	01131c33          	sll	x24,x6,x17
    800046e8:	007a121b          	slliw	x4,x20,0x7
    800046ec:	48685d17          	auipc	x26,0x48685
    800046f0:	00cbbeb3          	sltu	x29,x23,x12
    800046f4:	4148d89b          	sraiw	x17,x17,0x14
    800046f8:	3d3ccf97          	auipc	x31,0x3d3cc
    800046fc:	00b25f3b          	srlw	x30,x4,x11
    80004700:	0386d393          	srli	x7,x13,0x38
    80004704:	11101bb7          	lui	x23,0x11101
    80004708:	00574ab3          	xor	x21,x14,x5
    8000470c:	4349de13          	srai	x28,x19,0x34
    80004710:	cf198c37          	lui	x24,0xcf198
    80004714:	40438433          	sub	x8,x7,x4
    80004718:	01db931b          	slliw	x6,x23,0x1d
    8000471c:	72b598b7          	lui	x17,0x72b59
    80004720:	01738d33          	add	x26,x7,x23
    80004724:	99408493          	addi	x9,x1,-1644 # fffffffff3a62994 <_start+0xffffffff73a62994>
    80004728:	632bb997          	auipc	x19,0x632bb
    8000472c:	019fdeb3          	srl	x29,x31,x25
    80004730:	00e35893          	srli	x17,x6,0xe
    80004734:	671b7497          	auipc	x9,0x671b7
    80004738:	01a1e2b3          	or	x5,x3,x26
    8000473c:	03ae1693          	slli	x13,x28,0x3a
    80004740:	95371e97          	auipc	x29,0x95371
    80004744:	01e0cdb3          	xor	x27,x1,x30
    80004748:	000c5a9b          	srliw	x21,x24,0x0
    8000474c:	be7156b7          	lui	x13,0xbe715
    80004750:	01e0abb3          	slt	x23,x1,x30
    80004754:	01561493          	slli	x9,x12,0x15
    80004758:	11415837          	lui	x16,0x11415
    8000475c:	41620cb3          	sub	x25,x4,x22
    80004760:	42c8d513          	srai	x10,x17,0x2c
    80004764:	240ed497          	auipc	x9,0x240ed
    80004768:	01ba53b3          	srl	x7,x20,x27
    8000476c:	018a5a9b          	srliw	x21,x20,0x18
    80004770:	a9d30d17          	auipc	x26,0xa9d30
    80004774:	0046fbb3          	and	x23,x13,x4
    80004778:	02461713          	slli	x14,x12,0x24
    8000477c:	9fa28b37          	lui	x22,0x9fa28
    80004780:	41935e33          	sra	x28,x6,x25
    80004784:	890f0293          	addi	x5,x30,-1904 # ffffffff94209890 <_start+0xffffffff14209890>
    80004788:	c2a79f97          	auipc	x31,0xc2a79
    8000478c:	007ab233          	sltu	x4,x21,x7
    80004790:	41875b13          	srai	x22,x14,0x18
    80004794:	319c21b7          	lui	x3,0x319c2
    80004798:	419f5cbb          	sraw	x25,x30,x25
    8000479c:	53f0c213          	xori	x4,x1,1343
    800047a0:	47abda97          	auipc	x21,0x47abd
    800047a4:	005fcdb3          	xor	x27,x31,x5
    800047a8:	7036041b          	addiw	x8,x12,1795 # ffffffffeba60d9b <_start+0xffffffff6ba60d9b>
    800047ac:	e71fd617          	auipc	x12,0xe71fd
    800047b0:	00ab823b          	addw	x4,x23,x10
    800047b4:	8629c713          	xori	x14,x19,-1950
    800047b8:	582fa397          	auipc	x7,0x582fa
    800047bc:	019197b3          	sll	x15,x3,x25
    800047c0:	409b5093          	srai	x1,x22,0x9
    800047c4:	aeb895b7          	lui	x11,0xaeb89
    800047c8:	003a36b3          	sltu	x13,x20,x3
    800047cc:	015b1213          	slli	x4,x22,0x15
    800047d0:	6a6ac497          	auipc	x9,0x6a6ac
    800047d4:	016fd733          	srl	x14,x31,x22
    800047d8:	01bf519b          	srliw	x3,x30,0x1b
    800047dc:	3923ee37          	lui	x28,0x3923e
    800047e0:	015c2c33          	slt	x24,x24,x21
    800047e4:	015d5a93          	srli	x21,x26,0x15
    800047e8:	89f1b117          	auipc	x2,0x89f1b
    800047ec:	00601533          	sll	x10,x0,x6
    800047f0:	2b39fc93          	andi	x25,x19,691
    800047f4:	fae9ea17          	auipc	x20,0xfae9e
    800047f8:	0137eab3          	or	x21,x15,x19
    800047fc:	a5b14793          	xori	x15,x2,-1445
    80004800:	f6661397          	auipc	x7,0xf6661
    80004804:	0024163b          	sllw	x12,x8,x2
    80004808:	c649059b          	addiw	x11,x18,-924 # ffffffffb00952cc <_start+0xffffffff300952cc>
    8000480c:	61c73a17          	auipc	x20,0x61c73
    80004810:	00652233          	slt	x4,x10,x6
    80004814:	0183919b          	slliw	x3,x7,0x18
    80004818:	4ad39f97          	auipc	x31,0x4ad39
    8000481c:	000c2533          	slt	x10,x24,x0
    80004820:	c82f0393          	addi	x7,x30,-894
    80004824:	a6b98d37          	lui	x26,0xa6b98
    80004828:	006ed433          	srl	x8,x29,x6
    8000482c:	01e5981b          	slliw	x16,x11,0x1e
    80004830:	9c5ba397          	auipc	x7,0x9c5ba
    80004834:	00276f33          	or	x30,x14,x2
    80004838:	46b13d13          	sltiu	x26,x2,1131
    8000483c:	0434b117          	auipc	x2,0x434b
    80004840:	405ed033          	sra	x0,x29,x5
    80004844:	41275f1b          	sraiw	x30,x14,0x12
    80004848:	643a1d97          	auipc	x27,0x643a1
    8000484c:	003237b3          	sltu	x15,x4,x3
    80004850:	0072991b          	slliw	x18,x5,0x7
    80004854:	9cc36397          	auipc	x7,0x9cc36
    80004858:	4183563b          	sraw	x12,x6,x24
    8000485c:	10f28713          	addi	x14,x5,271 # f4a9b6db <_start+0x74a9b6db>
    80004860:	5365fc97          	auipc	x25,0x5365f
    80004864:	40240b3b          	subw	x22,x8,x2
    80004868:	c104899b          	addiw	x19,x9,-1008 # ffffffffea6b03e0 <_start+0xffffffff6a6b03e0>
    8000486c:	56d43eb7          	lui	x29,0x56d43
    80004870:	00d0963b          	sllw	x12,x1,x13
    80004874:	b0afea13          	ori	x20,x31,-1270
    80004878:	0d54b517          	auipc	x10,0xd54b
    8000487c:	01b0f2b3          	and	x5,x1,x27
    80004880:	42c9d013          	srai	x0,x19,0x2c
    80004884:	fd4a6a97          	auipc	x21,0xfd4a6
    80004888:	0121a0b3          	slt	x1,x3,x18
    8000488c:	9a29ee13          	ori	x28,x19,-1630
    80004890:	e1bb1817          	auipc	x16,0xe1bb1
    80004894:	008c4f33          	xor	x30,x24,x8
    80004898:	981e8793          	addi	x15,x29,-1663 # 56d42981 <_start-0x292bd67f>
    8000489c:	e3c2db97          	auipc	x23,0xe3c2d
    800048a0:	4031d23b          	sraw	x4,x3,x3
    800048a4:	54cb3e93          	sltiu	x29,x22,1356
    800048a8:	1ae6bfb7          	lui	x31,0x1ae6b
    800048ac:	40870f3b          	subw	x30,x14,x8
    800048b0:	00b5929b          	slliw	x5,x11,0xb
    800048b4:	1fbc8ab7          	lui	x21,0x1fbc8
    800048b8:	01424a33          	xor	x20,x4,x20
    800048bc:	df896413          	ori	x8,x18,-520
    800048c0:	02cd6317          	auipc	x6,0x2cd6
    800048c4:	015187b3          	add	x15,x3,x21
    800048c8:	41a3d613          	srai	x12,x7,0x1a
    800048cc:	0b3dca37          	lui	x20,0xb3dc
    800048d0:	003cfbb3          	and	x23,x25,x3
    800048d4:	afb5f993          	andi	x19,x11,-1285
    800048d8:	7d732537          	lui	x10,0x7d732
    800048dc:	00bef433          	and	x8,x29,x11
    800048e0:	0120581b          	srliw	x16,x0,0x12
    800048e4:	7c991697          	auipc	x13,0x7c991
    800048e8:	01d78db3          	add	x27,x15,x29
    800048ec:	003bdc9b          	srliw	x25,x23,0x3
    800048f0:	f5ce34b7          	lui	x9,0xf5ce3
    800048f4:	40ae5033          	sra	x0,x28,x10
    800048f8:	41e25193          	srai	x3,x4,0x1e
    800048fc:	18491117          	auipc	x2,0x18491
    80004900:	00d497b3          	sll	x15,x9,x13
    80004904:	00f71913          	slli	x18,x14,0xf
    80004908:	35cee297          	auipc	x5,0x35cee
    8000490c:	01748a33          	add	x20,x9,x23
    80004910:	b10d0813          	addi	x16,x26,-1264 # ffffffffa6b97b10 <_start+0xffffffff26b97b10>
    80004914:	40d4c197          	auipc	x3,0x40d4c
    80004918:	01f083b3          	add	x7,x1,x31
    8000491c:	707a3113          	sltiu	x2,x20,1799
    80004920:	5e9dd897          	auipc	x17,0x5e9dd
    80004924:	008a89bb          	addw	x19,x21,x8
    80004928:	00da9a9b          	slliw	x21,x21,0xd
    8000492c:	e296df97          	auipc	x31,0xe296d
    80004930:	00685d3b          	srlw	x26,x16,x6
    80004934:	8dce8013          	addi	x0,x29,-1828
    80004938:	0a2c06b7          	lui	x13,0xa2c0
    8000493c:	005c9c3b          	sllw	x24,x25,x5
    80004940:	14b30c93          	addi	x25,x6,331 # 82cdaa0b <_start+0x2cdaa0b>
    80004944:	77a27f97          	auipc	x31,0x77a27
    80004948:	01a507b3          	add	x15,x10,x26
    8000494c:	01ea5993          	srli	x19,x20,0x1e
    80004950:	8ae88517          	auipc	x10,0x8ae88
    80004954:	003a823b          	addw	x4,x21,x3
    80004958:	28608813          	addi	x16,x1,646
    8000495c:	69bd4c37          	lui	x24,0x69bd4
    80004960:	014ac333          	xor	x6,x21,x20
    80004964:	4079d19b          	sraiw	x3,x19,0x7
    80004968:	469da597          	auipc	x11,0x469da
    8000496c:	00ac9533          	sll	x10,x25,x10
    80004970:	016f109b          	slliw	x1,x30,0x16
    80004974:	edcffe17          	auipc	x28,0xedcff
    80004978:	019302bb          	addw	x5,x6,x25
    8000497c:	43635913          	srai	x18,x6,0x36
    80004980:	2d60e437          	lui	x8,0x2d60e
    80004984:	004abab3          	sltu	x21,x21,x4
    80004988:	022c5893          	srli	x17,x24,0x22
    8000498c:	0cd432b7          	lui	x5,0xcd43
    80004990:	00884533          	xor	x10,x16,x8
    80004994:	3f6e3f13          	sltiu	x30,x28,1014
    80004998:	df47f437          	lui	x8,0xdf47f
    8000499c:	018038b3          	sltu	x17,x0,x24
    800049a0:	00605a1b          	srliw	x20,x0,0x6
    800049a4:	092350b7          	lui	x1,0x9235
    800049a8:	01de83bb          	addw	x7,x29,x29
    800049ac:	716c8f13          	addi	x30,x25,1814 # d3663f76 <_start+0x53663f76>
    800049b0:	7d637db7          	lui	x27,0x7d637
    800049b4:	004e7c33          	and	x24,x28,x4
    800049b8:	6123f493          	andi	x9,x7,1554
    800049bc:	83a71037          	lui	x0,0x83a71
    800049c0:	00cfaf33          	slt	x30,x31,x12
    800049c4:	02061793          	slli	x15,x12,0x20
    800049c8:	09128237          	lui	x4,0x9128
    800049cc:	016895bb          	sllw	x11,x17,x22
    800049d0:	01fbd313          	srli	x6,x23,0x1f
    800049d4:	43411137          	lui	x2,0x43411
    800049d8:	000cf833          	and	x16,x25,x0
    800049dc:	0f892993          	slti	x19,x18,248
    800049e0:	3c7f5417          	auipc	x8,0x3c7f5
    800049e4:	005ddfb3          	srl	x31,x27,x5
    800049e8:	00021b1b          	slliw	x22,x4,0x0
    800049ec:	2e6b21b7          	lui	x3,0x2e6b2
    800049f0:	013a9abb          	sllw	x21,x21,x19
    800049f4:	425e5f93          	srai	x31,x28,0x25
    800049f8:	cfb1dd97          	auipc	x27,0xcfb1d
    800049fc:	00720eb3          	add	x29,x4,x7
    80004a00:	77030c9b          	addiw	x25,x6,1904
    80004a04:	dae3a997          	auipc	x19,0xdae3a
    80004a08:	018973b3          	and	x7,x18,x24
    80004a0c:	433b5013          	srai	x0,x22,0x33
    80004a10:	49ed8f97          	auipc	x31,0x49ed8
    80004a14:	00925633          	srl	x12,x4,x9
    80004a18:	5fa6a393          	slti	x7,x13,1530
    80004a1c:	5bde1b37          	lui	x22,0x5bde1
    80004a20:	40188133          	sub	x2,x17,x1
    80004a24:	afa8f193          	andi	x3,x17,-1286
    80004a28:	37338997          	auipc	x19,0x37338
    80004a2c:	40d2d4b3          	sra	x9,x5,x13
    80004a30:	4355d913          	srai	x18,x11,0x35
    80004a34:	4120a417          	auipc	x8,0x4120a
    80004a38:	003607b3          	add	x15,x12,x3
    80004a3c:	4d85fa93          	andi	x21,x11,1240
    80004a40:	5989c137          	lui	x2,0x5989c
    80004a44:	0169833b          	addw	x6,x19,x22
    80004a48:	01409c1b          	slliw	x24,x1,0x14
    80004a4c:	046607b7          	lui	x15,0x4660
    80004a50:	404b0b3b          	subw	x22,x22,x4
    80004a54:	43e1dd93          	srai	x27,x3,0x3e
    80004a58:	bb471bb7          	lui	x23,0xbb471
    80004a5c:	00fcf033          	and	x0,x25,x15
    80004a60:	03009113          	slli	x2,x1,0x30
    80004a64:	8c41f4b7          	lui	x9,0x8c41f
    80004a68:	40bed9bb          	sraw	x19,x29,x11
    80004a6c:	41285f1b          	sraiw	x30,x16,0x12
    80004a70:	d1638337          	lui	x6,0xd1638
    80004a74:	418c87b3          	sub	x15,x25,x24
    80004a78:	01c2d59b          	srliw	x11,x5,0x1c
    80004a7c:	a2009117          	auipc	x2,0xa2009
    80004a80:	01391fbb          	sllw	x31,x18,x19
    80004a84:	40545e9b          	sraiw	x29,x8,0x5
    80004a88:	62eddb97          	auipc	x23,0x62edd
    80004a8c:	401007b3          	sub	x15,x0,x1
    80004a90:	e0fdef93          	ori	x31,x27,-497
    80004a94:	95dd6637          	lui	x12,0x95dd6
    80004a98:	0099a1b3          	slt	x3,x19,x9
    80004a9c:	4035d31b          	sraiw	x6,x11,0x3
    80004aa0:	fc029037          	lui	x0,0xfc029
    80004aa4:	00df6b33          	or	x22,x30,x13
    80004aa8:	01f09493          	slli	x9,x1,0x1f
    80004aac:	f688c8b7          	lui	x17,0xf688c
    80004ab0:	01259dbb          	sllw	x27,x11,x18
    80004ab4:	4142da1b          	sraiw	x20,x5,0x14
    80004ab8:	1ccec7b7          	lui	x15,0x1ccec
    80004abc:	00aadbb3          	srl	x23,x21,x10
    80004ac0:	003ede1b          	srliw	x28,x29,0x3
    80004ac4:	a9a6cd37          	lui	x26,0xa9a6c
    80004ac8:	40fc503b          	sraw	x0,x24,x15
    80004acc:	01b9191b          	slliw	x18,x18,0x1b
    80004ad0:	08a45d97          	auipc	x27,0x8a45
    80004ad4:	415189b3          	sub	x19,x3,x21
    80004ad8:	02201f93          	slli	x31,x0,0x22
    80004adc:	70ff4037          	lui	x0,0x70ff4
    80004ae0:	00158eb3          	add	x29,x11,x1
    80004ae4:	01f49a9b          	slliw	x21,x9,0x1f
    80004ae8:	0e90c497          	auipc	x9,0xe90c
    80004aec:	01981f3b          	sllw	x30,x16,x25
    80004af0:	7d88e713          	ori	x14,x17,2008
    80004af4:	d1c19697          	auipc	x13,0xd1c19
    80004af8:	0069bfb3          	sltu	x31,x19,x6
    80004afc:	36e5e893          	ori	x17,x11,878
    80004b00:	b2d16eb7          	lui	x29,0xb2d16
    80004b04:	0131e0b3          	or	x1,x3,x19
    80004b08:	38928613          	addi	x12,x5,905 # cd43389 <_start-0x732bcc77>
    80004b0c:	eb453717          	auipc	x14,0xeb453
    80004b10:	01702933          	slt	x18,x0,x23
    80004b14:	4351dc93          	srai	x25,x3,0x35
    80004b18:	bd8d4e37          	lui	x28,0xbd8d4
    80004b1c:	0016f533          	and	x10,x13,x1
    80004b20:	cce48b93          	addi	x23,x9,-818 # 8e9107b6 <_start+0xe9107b6>
    80004b24:	faa1ff97          	auipc	x31,0xfaa1f
    80004b28:	0065debb          	srlw	x29,x11,x6
    80004b2c:	f40e0e1b          	addiw	x28,x28,-192 # ffffffffbd8d3f40 <_start+0xffffffff3d8d3f40>
    80004b30:	b511f037          	lui	x0,0xb511f
    80004b34:	015ab2b3          	sltu	x5,x21,x21
    80004b38:	01a8599b          	srliw	x19,x16,0x1a
    80004b3c:	cc5f8337          	lui	x6,0xcc5f8
    80004b40:	01bc1eb3          	sll	x29,x24,x27
    80004b44:	01d01c13          	slli	x24,x0,0x1d
    80004b48:	084a0f97          	auipc	x31,0x84a0
    80004b4c:	007c983b          	sllw	x16,x25,x7
    80004b50:	415cd39b          	sraiw	x7,x25,0x15
    80004b54:	503d0197          	auipc	x3,0x503d0
    80004b58:	012bb533          	sltu	x10,x23,x18
    80004b5c:	03765693          	srli	x13,x12,0x37
    80004b60:	ecad2297          	auipc	x5,0xecad2
    80004b64:	0121863b          	addw	x12,x3,x18
    80004b68:	0122521b          	srliw	x4,x4,0x12
    80004b6c:	578f9797          	auipc	x15,0x578f9
    80004b70:	407e5d3b          	sraw	x26,x28,x7
    80004b74:	281ec713          	xori	x14,x29,641
    80004b78:	1305ceb7          	lui	x29,0x1305c
    80004b7c:	018a0933          	add	x18,x20,x24
    80004b80:	44800c13          	addi	x24,x0,1096
    80004b84:	7a0f6d17          	auipc	x26,0x7a0f6
    80004b88:	00282eb3          	slt	x29,x16,x2
    80004b8c:	40a6d01b          	sraiw	x0,x13,0xa
    80004b90:	9345f617          	auipc	x12,0x9345f
    80004b94:	00f4abb3          	slt	x23,x9,x15
    80004b98:	addd009b          	addiw	x1,x26,-1315 # fffffffffa0fa661 <_start+0xffffffff7a0fa661>
    80004b9c:	4eabd897          	auipc	x17,0x4eabd
    80004ba0:	41df8dbb          	subw	x27,x31,x29
    80004ba4:	00fcde13          	srli	x28,x25,0xf
    80004ba8:	6b3e6b37          	lui	x22,0x6b3e6
    80004bac:	40380033          	sub	x0,x16,x3
    80004bb0:	93aeb213          	sltiu	x4,x29,-1734
    80004bb4:	3917a2b7          	lui	x5,0x3917a
    80004bb8:	403f83b3          	sub	x7,x31,x3
    80004bbc:	7dd64a13          	xori	x20,x12,2013
    80004bc0:	88951b37          	lui	x22,0x88951
    80004bc4:	01904333          	xor	x6,x0,x25
    80004bc8:	e629fc93          	andi	x25,x19,-414
    80004bcc:	21a77617          	auipc	x12,0x21a77
    80004bd0:	0016a833          	slt	x16,x13,x1
    80004bd4:	41b15313          	srai	x6,x2,0x1b
    80004bd8:	50d22d17          	auipc	x26,0x50d22
    80004bdc:	40fc0fb3          	sub	x31,x24,x15
    80004be0:	401b5013          	srai	x0,x22,0x1
    80004be4:	2f5ff3b7          	lui	x7,0x2f5ff
    80004be8:	40d280bb          	subw	x1,x5,x13
    80004bec:	00ff961b          	slliw	x12,x31,0xf
    80004bf0:	a5779237          	lui	x4,0xa5779
    80004bf4:	01f454bb          	srlw	x9,x8,x31
    80004bf8:	480e6a93          	ori	x21,x28,1152
    80004bfc:	726a5e17          	auipc	x28,0x726a5
    80004c00:	014ee1b3          	or	x3,x29,x20
    80004c04:	cf590a1b          	addiw	x20,x18,-779
    80004c08:	e72faa97          	auipc	x21,0xe72fa
    80004c0c:	017d063b          	addw	x12,x26,x23
    80004c10:	02e3df13          	srli	x30,x7,0x2e
    80004c14:	07722697          	auipc	x13,0x7722
    80004c18:	40ec5233          	sra	x4,x24,x14
    80004c1c:	01781c1b          	slliw	x24,x16,0x17
    80004c20:	2e2dd517          	auipc	x10,0x2e2dd
    80004c24:	016f31b3          	sltu	x3,x30,x22
    80004c28:	9c237d13          	andi	x26,x6,-1598
    80004c2c:	b3713797          	auipc	x15,0xb3713
    80004c30:	01844c33          	xor	x24,x8,x24
    80004c34:	75590993          	addi	x19,x18,1877
    80004c38:	dd8d9cb7          	lui	x25,0xdd8d9
    80004c3c:	00896833          	or	x16,x18,x8
    80004c40:	72ebb093          	sltiu	x1,x23,1838
    80004c44:	cd9bd117          	auipc	x2,0xcd9bd
    80004c48:	0057ca33          	xor	x20,x15,x5
    80004c4c:	a77f0013          	addi	x0,x30,-1417
    80004c50:	43d16d37          	lui	x26,0x43d16
    80004c54:	00bc18b3          	sll	x17,x24,x11
    80004c58:	cadce793          	ori	x15,x25,-851
    80004c5c:	a9a14f97          	auipc	x31,0xa9a14
    80004c60:	418ddc3b          	sraw	x24,x27,x24
    80004c64:	32a47313          	andi	x6,x8,810
    80004c68:	cb3b20b7          	lui	x1,0xcb3b2
    80004c6c:	0108b9b3          	sltu	x19,x17,x16
    80004c70:	a61b041b          	addiw	x8,x22,-1439 # ffffffff88950a61 <_start+0xffffffff08950a61>
    80004c74:	86026217          	auipc	x4,0x86026
    80004c78:	009b2eb3          	slt	x29,x22,x9
