
./build/test:     file format elf64-littleriscv


Disassembly of section .text:

0000000080000000 <_start>:
    80000000:	14ba5d17          	auipc	x26,0x14ba5
    80000004:	7b086f93          	ori	x31,x16,1968
    80000008:	9b4bcf17          	auipc	x30,0x9b4bc
    8000000c:	01b95593          	srli	x11,x18,0x1b
    80000010:	478cc4b7          	lui	x9,0x478cc
    80000014:	410ad19b          	sraiw	x3,x21,0x10
    80000018:	32911637          	lui	x12,0x32911
    8000001c:	015fd11b          	srliw	x2,x31,0x15
    80000020:	338f1a17          	auipc	x20,0x338f1
    80000024:	32f5f793          	andi	x15,x11,815
    80000028:	855f3817          	auipc	x16,0x855f3
    8000002c:	02398e13          	addi	x28,x19,35
    80000030:	cc329cb7          	lui	x25,0xcc329
    80000034:	000dde9b          	srliw	x29,x27,0x0
    80000038:	aa90bd97          	auipc	x27,0xaa90b
    8000003c:	0eb54b93          	xori	x23,x10,235
    80000040:	71832937          	lui	x18,0x71832
    80000044:	71424e13          	xori	x28,x4,1812
    80000048:	a3de3137          	lui	x2,0xa3de3
    8000004c:	42625813          	srai	x16,x4,0x26
    80000050:	3fe73c17          	auipc	x24,0x3fe73
    80000054:	41aed593          	srai	x11,x29,0x1a
    80000058:	2eea6797          	auipc	x15,0x2eea6
    8000005c:	4fc68e1b          	addiw	x28,x13,1276
    80000060:	5e2404b7          	lui	x9,0x5e240
    80000064:	0712ce93          	xori	x29,x5,113
    80000068:	235f2817          	auipc	x16,0x235f2
    8000006c:	1ffd2b93          	slti	x23,x26,511
    80000070:	291640b7          	lui	x1,0x29164
    80000074:	0199de9b          	srliw	x29,x19,0x19
    80000078:	7893a897          	auipc	x17,0x7893a
    8000007c:	69fbcf93          	xori	x31,x23,1695
    80000080:	fc3d5717          	auipc	x14,0xfc3d5
    80000084:	016c1b1b          	slliw	x22,x24,0x16
    80000088:	3b0f1537          	lui	x10,0x3b0f1
    8000008c:	02abda13          	srli	x20,x23,0x2a
    80000090:	084c83b7          	lui	x7,0x84c8
    80000094:	00e1d49b          	srliw	x9,x3,0xe
    80000098:	57496e17          	auipc	x28,0x57496
    8000009c:	0e8ef793          	andi	x15,x29,232
    800000a0:	4aef7db7          	lui	x27,0x4aef7
    800000a4:	0040d39b          	srliw	x7,x1,0x4
    800000a8:	6085c1b7          	lui	x3,0x6085c
    800000ac:	1d4a0e9b          	addiw	x29,x20,468 # ffffffffb38f11f4 <_start+0xffffffff338f11f4>
    800000b0:	bd82f117          	auipc	x2,0xbd82f
    800000b4:	042aa093          	slti	x1,x21,66
    800000b8:	3f6f23b7          	lui	x7,0x3f6f2
    800000bc:	007d5493          	srli	x9,x26,0x7
    800000c0:	d9eaba37          	lui	x20,0xd9eab
    800000c4:	412e819b          	addiw	x3,x29,1042
    800000c8:	24d97437          	lui	x8,0x24d97
    800000cc:	01b6959b          	slliw	x11,x13,0x1b
    800000d0:	ef2bd0b7          	lui	x1,0xef2bd
    800000d4:	62c20b13          	addi	x22,x4,1580 # 62c <_start-0x7ffff9d4>
    800000d8:	b79484b7          	lui	x9,0xb7948
    800000dc:	00aed89b          	srliw	x17,x29,0xa
    800000e0:	1db8ddb7          	lui	x27,0x1db8d
    800000e4:	40a2db9b          	sraiw	x23,x5,0xa
    800000e8:	805a1817          	auipc	x16,0x805a1
    800000ec:	2b672a13          	slti	x20,x14,694
    800000f0:	d1df17b7          	lui	x15,0xd1df1
    800000f4:	4e590f1b          	addiw	x30,x18,1253 # 718324e5 <_start-0xe7cdb1b>
    800000f8:	807a3617          	auipc	x12,0x807a3
    800000fc:	01cc3993          	sltiu	x19,x24,28
    80000100:	287c5c97          	auipc	x25,0x287c5
    80000104:	4680fd13          	andi	x26,x1,1128
    80000108:	f6b203b7          	lui	x7,0xf6b20
    8000010c:	5a957a13          	andi	x20,x10,1449
    80000110:	9edf5c37          	lui	x24,0x9edf5
    80000114:	00a71d13          	slli	x26,x14,0xa
    80000118:	627669b7          	lui	x19,0x62766
    8000011c:	00f2d51b          	srliw	x10,x5,0xf
    80000120:	e571fb37          	lui	x22,0xe571f
    80000124:	035f9c93          	slli	x25,x31,0x35
    80000128:	d621c6b7          	lui	x13,0xd621c
    8000012c:	402c5b9b          	sraiw	x23,x24,0x2
    80000130:	20b5b7b7          	lui	x15,0x20b5b
    80000134:	70e2ec93          	ori	x25,x5,1806
    80000138:	00091917          	auipc	x18,0x91
    8000013c:	4e850813          	addi	x16,x10,1256 # 3b0f14e8 <_start-0x44f0eb18>
    80000140:	d48ce097          	auipc	x1,0xd48ce
    80000144:	13fbca13          	xori	x20,x23,319
    80000148:	cdbae037          	lui	x0,0xcdbae
    8000014c:	0006179b          	slliw	x15,x12,0x0
    80000150:	013500b7          	lui	x1,0x1350
    80000154:	006b199b          	slliw	x19,x22,0x6
    80000158:	65a3f237          	lui	x4,0x65a3f
    8000015c:	2d4ce513          	ori	x10,x25,724
    80000160:	cb1bc8b7          	lui	x17,0xcb1bc
    80000164:	0110111b          	slliw	x2,x0,0x11
    80000168:	3b476e17          	auipc	x28,0x3b476
    8000016c:	577b6293          	ori	x5,x22,1399
    80000170:	4f12cf37          	lui	x30,0x4f12c
    80000174:	09706e93          	ori	x29,x0,151
    80000178:	84f363b7          	lui	x7,0x84f36
    8000017c:	40565593          	srai	x11,x12,0x5
    80000180:	ead60c17          	auipc	x24,0xead60
    80000184:	00b6979b          	slliw	x15,x13,0xb
    80000188:	950296b7          	lui	x13,0x95029
    8000018c:	44120213          	addi	x4,x4,1089 # 65a3f441 <_start-0x1a5c0bbf>
    80000190:	bc01d597          	auipc	x11,0xbc01d
    80000194:	0026511b          	srliw	x2,x12,0x2
    80000198:	53e58537          	lui	x10,0x53e58
    8000019c:	5b063a93          	sltiu	x21,x12,1456
    800001a0:	42604997          	auipc	x19,0x42604
    800001a4:	3bf86193          	ori	x3,x16,959
    800001a8:	5bf2c537          	lui	x10,0x5bf2c
    800001ac:	42615d13          	srai	x26,x2,0x26
    800001b0:	a833de97          	auipc	x29,0xa833d
    800001b4:	1811e713          	ori	x14,x3,385
    800001b8:	ac95d817          	auipc	x16,0xac95d
    800001bc:	40755d9b          	sraiw	x27,x10,0x7
    800001c0:	fed70197          	auipc	x3,0xfed70
    800001c4:	02a51093          	slli	x1,x10,0x2a
    800001c8:	c04ae3b7          	lui	x7,0xc04ae
    800001cc:	40425b9b          	sraiw	x23,x4,0x4
    800001d0:	712e9437          	lui	x8,0x712e9
    800001d4:	17b00713          	addi	x14,x0,379
    800001d8:	94636997          	auipc	x19,0x94636
    800001dc:	01be5893          	srli	x17,x28,0x1b
    800001e0:	bc95f117          	auipc	x2,0xbc95f
    800001e4:	294ac493          	xori	x9,x21,660
    800001e8:	b78ff397          	auipc	x7,0xb78ff
    800001ec:	05bea193          	slti	x3,x29,91
    800001f0:	6743ad97          	auipc	x27,0x6743a
    800001f4:	40472893          	slti	x17,x14,1028
    800001f8:	158e5b37          	lui	x22,0x158e5
    800001fc:	409a531b          	sraiw	x6,x20,0x9
    80000200:	eab473b7          	lui	x7,0xeab47
    80000204:	01399693          	slli	x13,x19,0x13
    80000208:	f9ce3b37          	lui	x22,0xf9ce3
    8000020c:	6af73a13          	sltiu	x20,x14,1711
    80000210:	a5198c17          	auipc	x24,0xa5198
    80000214:	019ad793          	srli	x15,x21,0x19
    80000218:	ae315037          	lui	x0,0xae315
    8000021c:	014fdd1b          	srliw	x26,x31,0x14
    80000220:	4bf6b117          	auipc	x2,0x4bf6b
    80000224:	268e6a93          	ori	x21,x28,616
    80000228:	96b94997          	auipc	x19,0x96b94
    8000022c:	01ee5c9b          	srliw	x25,x28,0x1e
    80000230:	2b565e37          	lui	x28,0x2b565
    80000234:	4080df13          	srai	x30,x1,0x8
    80000238:	14cdb237          	lui	x4,0x14cdb
    8000023c:	717ce013          	ori	x0,x25,1815
    80000240:	5245fe97          	auipc	x29,0x5245f
    80000244:	41df531b          	sraiw	x6,x30,0x1d
    80000248:	c3b3f917          	auipc	x18,0xc3b3f
    8000024c:	40b0d893          	srai	x17,x1,0xb
    80000250:	da4cbd37          	lui	x26,0xda4cb
    80000254:	41a4d31b          	sraiw	x6,x9,0x1a
    80000258:	c6f28f17          	auipc	x30,0xc6f28
    8000025c:	03d4099b          	addiw	x19,x8,61 # 712e903d <_start-0xed16fc3>
    80000260:	5d2b0cb7          	lui	x25,0x5d2b0
    80000264:	3fc96813          	ori	x16,x18,1020
    80000268:	fcad5117          	auipc	x2,0xfcad5
    8000026c:	67156e93          	ori	x29,x10,1649
    80000270:	c471ad97          	auipc	x27,0xc471a
    80000274:	1f3a8313          	addi	x6,x21,499
    80000278:	ab054537          	lui	x10,0xab054
    8000027c:	69988093          	addi	x1,x17,1689 # ffffffffcb1bc699 <_start+0xffffffff4b1bc699>
    80000280:	29ca0937          	lui	x18,0x29ca0
    80000284:	01629c9b          	slliw	x25,x5,0x16
    80000288:	eebc1117          	auipc	x2,0xeebc1
    8000028c:	00c09793          	slli	x15,x1,0xc
    80000290:	4d801d97          	auipc	x27,0x4d801
    80000294:	209a8093          	addi	x1,x21,521
    80000298:	b17e7217          	auipc	x4,0xb17e7
    8000029c:	7c2e4713          	xori	x14,x28,1986
    800002a0:	1ecd6fb7          	lui	x31,0x1ecd6
    800002a4:	55180c1b          	addiw	x24,x16,1361 # 2c95d709 <_start-0x536a28f7>
    800002a8:	97bffb37          	lui	x22,0x97bff
    800002ac:	41825e9b          	sraiw	x29,x4,0x18
    800002b0:	3e3c1c97          	auipc	x25,0x3e3c1
    800002b4:	418ddf13          	srai	x30,x27,0x18
    800002b8:	c8b7ad37          	lui	x26,0xc8b7a
    800002bc:	018c5593          	srli	x11,x24,0x18
    800002c0:	2692e617          	auipc	x12,0x2692e
    800002c4:	7b108f93          	addi	x31,x1,1969 # 13507b1 <_start-0x7ecaf84f>
    800002c8:	0da5df17          	auipc	x30,0xda5d
    800002cc:	41b9db13          	srai	x22,x19,0x1b
    800002d0:	d718c137          	lui	x2,0xd718c
    800002d4:	41225513          	srai	x10,x4,0x12
    800002d8:	d817cf97          	auipc	x31,0xd817c
    800002dc:	0eb7a213          	slti	x4,x15,235
    800002e0:	4ff3c7b7          	lui	x15,0x4ff3c
    800002e4:	01cdd01b          	srliw	x0,x27,0x1c
    800002e8:	d5839c17          	auipc	x24,0xd5839
    800002ec:	51bf0893          	addi	x17,x30,1307 # 8da5d7e3 <_start+0xda5d7e3>
    800002f0:	b47b4197          	auipc	x3,0xb47b4
    800002f4:	06262213          	slti	x4,x12,98
    800002f8:	5b16b697          	auipc	x13,0x5b16b
    800002fc:	5c448e93          	addi	x29,x9,1476 # ffffffffb79485c4 <_start+0xffffffff379485c4>
    80000300:	495d7ab7          	lui	x21,0x495d7
    80000304:	1e234013          	xori	x0,x6,482
    80000308:	bcfea537          	lui	x10,0xbcfea
    8000030c:	00eb509b          	srliw	x1,x22,0xe
    80000310:	e878f3b7          	lui	x7,0xe878f
    80000314:	40b72913          	slti	x18,x14,1035
    80000318:	6a8eb037          	lui	x0,0x6a8eb
    8000031c:	4988f613          	andi	x12,x17,1176
    80000320:	295fc317          	auipc	x6,0x295fc
    80000324:	02ba9a33          	mulh	x20,x21,x11
    80000328:	01021f93          	slli	x31,x4,0x10
    8000032c:	0315f43b          	remuw	x8,x11,x17
    80000330:	4922cd13          	xori	x26,x5,1170
    80000334:	021b5733          	divu	x14,x22,x1
    80000338:	1296801b          	addiw	x0,x13,297 # ffffffffdb16b421 <_start+0xffffffff5b16b421>
    8000033c:	02f2e1bb          	remw	x3,x5,x15
    80000340:	48d96d17          	auipc	x26,0x48d96
    80000344:	0365c7bb          	divw	x15,x11,x22
    80000348:	e3be4437          	lui	x8,0xe3be4
    8000034c:	032b563b          	divuw	x12,x22,x18
    80000350:	03501813          	slli	x16,x0,0x35
    80000354:	0315efbb          	remw	x31,x11,x17
    80000358:	15e8f493          	andi	x9,x17,350
    8000035c:	0281adb3          	mulhsu	x27,x3,x8
    80000360:	413bda13          	srai	x20,x23,0x13
    80000364:	02d7fc3b          	remuw	x24,x15,x13
    80000368:	40b6d69b          	sraiw	x13,x13,0xb
    8000036c:	031537b3          	mulhu	x15,x10,x17
    80000370:	14cb7813          	andi	x16,x22,332
    80000374:	02937db3          	remu	x27,x6,x9
    80000378:	01dad71b          	srliw	x14,x21,0x1d
    8000037c:	02348333          	mul	x6,x9,x3
    80000380:	004af9b3          	and	x19,x21,x4
    80000384:	031decb3          	rem	x25,x27,x17
    80000388:	00ed981b          	slliw	x16,x27,0xe
    8000038c:	02860dbb          	mulw	x27,x12,x8
    80000390:	01f401b3          	add	x3,x8,x31
    80000394:	029050bb          	divuw	x1,x0,x9
    80000398:	343d8817          	auipc	x16,0x343d8
    8000039c:	02b6e53b          	remw	x10,x13,x11
    800003a0:	403b53bb          	sraw	x7,x22,x3
    800003a4:	029e0133          	mul	x2,x28,x9
    800003a8:	7f831217          	auipc	x4,0x7f831
    800003ac:	0301f43b          	remuw	x8,x3,x16
    800003b0:	44d2c997          	auipc	x19,0x44d2c
    800003b4:	027bc93b          	divw	x18,x23,x7
    800003b8:	414b8733          	sub	x14,x23,x20
    800003bc:	03fded33          	rem	x26,x27,x31
    800003c0:	be5d2797          	auipc	x15,0xbe5d2
    800003c4:	02524b3b          	divw	x22,x4,x5
    800003c8:	0196519b          	srliw	x3,x12,0x19
    800003cc:	0332c83b          	divw	x16,x5,x19
    800003d0:	011bf633          	and	x12,x23,x17
    800003d4:	0323e7bb          	remw	x15,x7,x18
    800003d8:	1ed56917          	auipc	x18,0x1ed56
    800003dc:	03a274b3          	remu	x9,x4,x26
    800003e0:	6e720fb7          	lui	x31,0x6e720
    800003e4:	02d80633          	mul	x12,x16,x13
    800003e8:	40abd113          	srai	x2,x23,0xa
    800003ec:	02ebdcbb          	divuw	x25,x23,x14
    800003f0:	ff927093          	andi	x1,x4,-7
    800003f4:	038b4f33          	div	x30,x22,x24
    800003f8:	936ac2b7          	lui	x5,0x936ac
    800003fc:	0307b233          	mulhu	x4,x15,x16
    80000400:	00c3873b          	addw	x14,x7,x12
    80000404:	038febb3          	rem	x23,x31,x24
    80000408:	4b853837          	lui	x16,0x4b853
    8000040c:	0262053b          	mulw	x10,x4,x6
    80000410:	031e5613          	srli	x12,x28,0x31
    80000414:	02e96e33          	rem	x28,x18,x14
    80000418:	01036db3          	or	x27,x6,x16
    8000041c:	021bb9b3          	mulhu	x19,x23,x1
    80000420:	2b5823b7          	lui	x7,0x2b582
    80000424:	0390a633          	mulhsu	x12,x1,x25
    80000428:	016452b3          	srl	x5,x8,x22
    8000042c:	03914b33          	div	x22,x2,x25
    80000430:	01fd953b          	sllw	x10,x27,x31
    80000434:	021857b3          	divu	x15,x16,x1
    80000438:	417c5933          	sra	x18,x24,x23
    8000043c:	03570d3b          	mulw	x26,x14,x21
    80000440:	f388b417          	auipc	x8,0xf388b
    80000444:	0214b5b3          	mulhu	x11,x9,x1
    80000448:	ff968293          	addi	x5,x13,-7
    8000044c:	02404bb3          	div	x23,x0,x4
    80000450:	40ec579b          	sraiw	x15,x24,0xe
    80000454:	0289c6bb          	divw	x13,x19,x8
    80000458:	3465c537          	lui	x10,0x3465c
    8000045c:	03c14fbb          	divw	x31,x2,x28
    80000460:	e9575997          	auipc	x19,0xe9575
    80000464:	03105433          	divu	x8,x0,x17
    80000468:	34414613          	xori	x12,x2,836
    8000046c:	03d306bb          	mulw	x13,x6,x29
    80000470:	4bcd6c13          	ori	x24,x26,1212
    80000474:	02ef4933          	div	x18,x30,x14
    80000478:	7adc4597          	auipc	x11,0x7adc4
    8000047c:	022984b3          	mul	x9,x19,x2
    80000480:	038d5893          	srli	x17,x26,0x38
    80000484:	03278e33          	mul	x28,x15,x18
    80000488:	2bd5d197          	auipc	x3,0x2bd5d
    8000048c:	03d21433          	mulh	x8,x4,x29
    80000490:	03839f93          	slli	x31,x7,0x38
    80000494:	02fe413b          	divw	x2,x28,x15
    80000498:	00ee1f3b          	sllw	x30,x28,x14
    8000049c:	03040333          	mul	x6,x8,x16
    800004a0:	460ebe13          	sltiu	x28,x29,1120
    800004a4:	023755b3          	divu	x11,x14,x3
    800004a8:	413ad53b          	sraw	x10,x21,x19
    800004ac:	029c733b          	remuw	x6,x24,x9
    800004b0:	85a03a17          	auipc	x20,0x85a03
    800004b4:	02304433          	div	x8,x0,x3
    800004b8:	00519cbb          	sllw	x25,x3,x5
    800004bc:	0263e73b          	remw	x14,x7,x6
    800004c0:	db462d37          	lui	x26,0xdb462
    800004c4:	035601b3          	mul	x3,x12,x21
    800004c8:	b7c25cb7          	lui	x25,0xb7c25
    800004cc:	037bbb33          	mulhu	x22,x23,x23
    800004d0:	01a45533          	srl	x10,x8,x26
    800004d4:	0298b133          	mulhu	x2,x17,x9
    800004d8:	0176843b          	addw	x8,x13,x23
    800004dc:	026af633          	remu	x12,x21,x6
    800004e0:	414a501b          	sraiw	x0,x20,0x14
    800004e4:	021bdab3          	divu	x21,x23,x1
    800004e8:	00931293          	slli	x5,x6,0x9
    800004ec:	03c42db3          	mulhsu	x27,x8,x28
    800004f0:	43a65437          	lui	x8,0x43a65
    800004f4:	02d73d33          	mulhu	x26,x14,x13
    800004f8:	010a9233          	sll	x4,x21,x16
    800004fc:	020e9ab3          	mulh	x21,x29,x0
    80000500:	00f81633          	sll	x12,x16,x15
    80000504:	03344033          	div	x0,x8,x19
    80000508:	011fcc33          	xor	x24,x31,x17
    8000050c:	0338fd3b          	remuw	x26,x17,x19
    80000510:	465f14b7          	lui	x9,0x465f1
    80000514:	026bc6bb          	divw	x13,x23,x6
    80000518:	1e4ce717          	auipc	x14,0x1e4ce
    8000051c:	03a5b0b3          	mulhu	x1,x11,x26
    80000520:	011f65b3          	or	x11,x30,x17
    80000524:	038c5d3b          	divuw	x26,x24,x24
    80000528:	282be693          	ori	x13,x23,642
    8000052c:	03464033          	div	x0,x12,x20
    80000530:	005b0cb3          	add	x25,x22,x5
    80000534:	0368d0b3          	divu	x1,x17,x22
    80000538:	01c18493          	addi	x9,x3,28 # abd5d4a4 <_start+0x2bd5d4a4>
    8000053c:	02363b33          	mulhu	x22,x12,x3
    80000540:	2167fc13          	andi	x24,x15,534
    80000544:	024737b3          	mulhu	x15,x14,x4
    80000548:	a85a3297          	auipc	x5,0xa85a3
    8000054c:	02ed6e3b          	remw	x28,x26,x14
    80000550:	87090737          	lui	x14,0x87090
    80000554:	039d89bb          	mulw	x19,x27,x25
    80000558:	401d57b3          	sra	x15,x26,x1
    8000055c:	02c6c1bb          	divw	x3,x13,x12
    80000560:	24828913          	addi	x18,x5,584 # 285a3790 <_start-0x57a5c870>
    80000564:	03d415b3          	mulh	x11,x8,x29
    80000568:	29de4013          	xori	x0,x28,669
    8000056c:	038eee3b          	remw	x28,x29,x24
    80000570:	00f1cc33          	xor	x24,x3,x15
    80000574:	035a423b          	divw	x4,x20,x21
    80000578:	14814a37          	lui	x20,0x14814
    8000057c:	03ae45b3          	div	x11,x28,x26
    80000580:	41fb803b          	subw	x0,x23,x31
    80000584:	02d188b3          	mul	x17,x3,x13
    80000588:	78e80837          	lui	x16,0x78e80
    8000058c:	03a3063b          	mulw	x12,x6,x26
    80000590:	fc107417          	auipc	x8,0xfc107
    80000594:	03356033          	rem	x0,x10,x19
    80000598:	865f6117          	auipc	x2,0x865f6
    8000059c:	02f8d1bb          	divuw	x3,x17,x15
    800005a0:	412707b3          	sub	x15,x14,x18
    800005a4:	03a50033          	mul	x0,x10,x26
    800005a8:	48cc6c13          	ori	x24,x24,1164
    800005ac:	03b3ddbb          	divuw	x27,x7,x27
    800005b0:	01d6b5b3          	sltu	x11,x13,x29
    800005b4:	0331c333          	div	x6,x3,x19
    800005b8:	b4eb0a37          	lui	x20,0xb4eb0
    800005bc:	024faf33          	mulhsu	x30,x31,x4
    800005c0:	1a3e19b7          	lui	x19,0x1a3e1
    800005c4:	02b5c23b          	divw	x4,x11,x11
    800005c8:	fd5e2597          	auipc	x11,0xfd5e2
    800005cc:	02fb773b          	remuw	x14,x22,x15
    800005d0:	09c28e13          	addi	x28,x5,156
    800005d4:	02057233          	remu	x4,x10,x0
    800005d8:	017eabb3          	slt	x23,x29,x23
    800005dc:	034cf4bb          	remuw	x9,x25,x20
    800005e0:	45f7a993          	slti	x19,x15,1119
    800005e4:	0222a8b3          	mulhsu	x17,x5,x2
    800005e8:	003ad2b3          	srl	x5,x21,x3
    800005ec:	034e0bbb          	mulw	x23,x28,x20
    800005f0:	40970dbb          	subw	x27,x14,x9
    800005f4:	02e04533          	div	x10,x0,x14
    800005f8:	01197433          	and	x8,x18,x17
    800005fc:	0266063b          	mulw	x12,x12,x6
    80000600:	004e183b          	sllw	x16,x28,x4
    80000604:	02498db3          	mul	x27,x19,x4
    80000608:	40da5e33          	sra	x28,x20,x13
    8000060c:	0320d733          	divu	x14,x1,x18
    80000610:	0808cfb7          	lui	x31,0x808c
    80000614:	0362d8b3          	divu	x17,x5,x22
    80000618:	01fb159b          	slliw	x11,x22,0x1f
    8000061c:	027c8cb3          	mul	x25,x25,x7
    80000620:	405453bb          	sraw	x7,x8,x5
    80000624:	034177bb          	remuw	x15,x2,x20
    80000628:	e6390d37          	lui	x26,0xe6390
    8000062c:	03ce0fbb          	mulw	x31,x28,x28
    80000630:	40e28333          	sub	x6,x5,x14
    80000634:	02da9733          	mulh	x14,x21,x13
    80000638:	b65b0797          	auipc	x15,0xb65b0
    8000063c:	02a145bb          	divw	x11,x2,x10
    80000640:	020dd013          	srli	x0,x27,0x20
    80000644:	02e73db3          	mulhu	x27,x14,x14
    80000648:	13ab6c17          	auipc	x24,0x13ab6
    8000064c:	03d647bb          	divw	x15,x12,x29
    80000650:	008bc9b3          	xor	x19,x23,x8
    80000654:	02c05eb3          	divu	x29,x0,x12
    80000658:	29b800b7          	lui	x1,0x29b80
    8000065c:	02c64f3b          	divw	x30,x12,x12
    80000660:	1afba393          	slti	x7,x23,431
    80000664:	0228d9bb          	divuw	x19,x17,x2
    80000668:	c90935b7          	lui	x11,0xc9093
    8000066c:	029badb3          	mulhsu	x27,x23,x9
    80000670:	4b83bab7          	lui	x21,0x4b83b
    80000674:	0314ef33          	rem	x30,x9,x17
    80000678:	20efb213          	sltiu	x4,x31,526
    8000067c:	038b7c33          	remu	x24,x22,x24
    80000680:	011e0cb3          	add	x25,x28,x17
    80000684:	03790eb3          	mul	x29,x18,x23
    80000688:	40565a33          	sra	x20,x12,x5
    8000068c:	03c95db3          	divu	x27,x18,x28
    80000690:	4292a893          	slti	x17,x5,1065
    80000694:	02a43e33          	mulhu	x28,x8,x10
    80000698:	408d5433          	sra	x8,x26,x8
    8000069c:	03a207bb          	mulw	x15,x4,x26
    800006a0:	5a9b40b7          	lui	x1,0x5a9b4
    800006a4:	03f159bb          	divuw	x19,x2,x31
    800006a8:	e9c093b7          	lui	x7,0xe9c09
    800006ac:	030e44bb          	divw	x9,x28,x16
    800006b0:	01764cb3          	xor	x25,x12,x23
    800006b4:	033da8b3          	mulhsu	x17,x27,x19
    800006b8:	42bed113          	srai	x2,x29,0x2b
    800006bc:	023d8eb3          	mul	x29,x27,x3
    800006c0:	03961a93          	slli	x21,x12,0x39
    800006c4:	0316de33          	divu	x28,x13,x17
    800006c8:	a23f9237          	lui	x4,0xa23f9
    800006cc:	025c8333          	mul	x6,x25,x5
    800006d0:	301aff93          	andi	x31,x21,769
    800006d4:	021b07b3          	mul	x15,x22,x1
    800006d8:	0016fdb3          	and	x27,x13,x1
    800006dc:	037d4cbb          	divw	x25,x26,x23
    800006e0:	67217e93          	andi	x29,x2,1650
    800006e4:	03358733          	mul	x14,x11,x19
    800006e8:	009b143b          	sllw	x8,x22,x9
    800006ec:	030dcf3b          	divw	x30,x27,x16
    800006f0:	e84f2037          	lui	x0,0xe84f2
    800006f4:	02e3f53b          	remuw	x10,x7,x14
    800006f8:	05527213          	andi	x4,x4,85
    800006fc:	02f3d0b3          	divu	x1,x7,x15
    80000700:	400fdbb3          	sra	x23,x31,x0
    80000704:	033e5833          	divu	x16,x28,x19
    80000708:	0118dcbb          	srlw	x25,x17,x17
    8000070c:	03209f33          	mulh	x30,x1,x18
    80000710:	3101f017          	auipc	x0,0x3101f
    80000714:	024615b3          	mulh	x11,x12,x4
    80000718:	92fc52b7          	lui	x5,0x92fc5
    8000071c:	02d780b3          	mul	x1,x15,x13
    80000720:	41435c93          	srai	x25,x6,0x14
    80000724:	0363adb3          	mulhsu	x27,x7,x22
    80000728:	00ba6fb3          	or	x31,x20,x11
    8000072c:	034f07b3          	mul	x15,x30,x20
    80000730:	407380bb          	subw	x1,x7,x7
    80000734:	0265d53b          	divuw	x10,x11,x6
    80000738:	6a537413          	andi	x8,x6,1701
    8000073c:	035ff733          	remu	x14,x31,x21
    80000740:	001d9a93          	slli	x21,x27,0x1
    80000744:	03802a33          	mulhsu	x20,x0,x24
    80000748:	09fd2237          	lui	x4,0x9fd2
    8000074c:	03158eb3          	mul	x29,x11,x17
    80000750:	1b4d0093          	addi	x1,x26,436 # ffffffffe63901b4 <_start+0xffffffff663901b4>
    80000754:	03a34abb          	divw	x21,x6,x26
    80000758:	00169d9b          	slliw	x27,x13,0x1
    8000075c:	0379e733          	rem	x14,x19,x23
    80000760:	ba61b237          	lui	x4,0xba61b
    80000764:	02d983bb          	mulw	x7,x19,x13
    80000768:	586ab813          	sltiu	x16,x21,1414
    8000076c:	02ff97b3          	mulh	x15,x31,x15
    80000770:	03245693          	srli	x13,x8,0x32
    80000774:	02c93bb3          	mulhu	x23,x18,x12
    80000778:	40840eb3          	sub	x29,x8,x8
    8000077c:	020905bb          	mulw	x11,x18,x0
    80000780:	01f81d33          	sll	x26,x16,x31
    80000784:	0340b433          	mulhu	x8,x1,x20
    80000788:	369c2b17          	auipc	x22,0x369c2
    8000078c:	021f0fbb          	mulw	x31,x30,x1
    80000790:	01a0569b          	srliw	x13,x0,0x1a
    80000794:	02e66ebb          	remw	x29,x12,x14
    80000798:	01da579b          	srliw	x15,x20,0x1d
    8000079c:	031522b3          	mulhsu	x5,x10,x17
    800007a0:	91426a37          	lui	x20,0x91426
    800007a4:	02c1f93b          	remuw	x18,x3,x12
    800007a8:	b71a2bb7          	lui	x23,0xb71a2
    800007ac:	030b77bb          	remuw	x15,x22,x16
    800007b0:	2be44f93          	xori	x31,x8,702
    800007b4:	029569bb          	remw	x19,x10,x9
    800007b8:	dcc7f4b7          	lui	x9,0xdcc7f
    800007bc:	02870bb3          	mul	x23,x14,x8
    800007c0:	44b0f637          	lui	x12,0x44b0f
    800007c4:	02daa1b3          	mulhsu	x3,x21,x13
    800007c8:	649a0793          	addi	x15,x20,1609 # ffffffff91426649 <_start+0xffffffff11426649>
    800007cc:	039bf133          	remu	x2,x23,x25
    800007d0:	010dd233          	srl	x4,x27,x16
    800007d4:	026a0d3b          	mulw	x26,x20,x6
    800007d8:	3903b413          	sltiu	x8,x7,912
    800007dc:	03d28933          	mul	x18,x5,x29
    800007e0:	9379ef97          	auipc	x31,0x9379e
    800007e4:	0375edbb          	remw	x27,x11,x23
    800007e8:	41ae5e9b          	sraiw	x29,x28,0x1a
    800007ec:	03e47e3b          	remuw	x28,x8,x30
    800007f0:	53987a13          	andi	x20,x16,1337
    800007f4:	02c20bbb          	mulw	x23,x4,x12
    800007f8:	4074d8b3          	sra	x17,x9,x7
    800007fc:	02f665b3          	rem	x11,x12,x15
    80000800:	01d77733          	and	x14,x14,x29
    80000804:	02421c33          	mulh	x24,x4,x4
    80000808:	19fb0a9b          	addiw	x21,x22,415 # ffffffffb69c2927 <_start+0xffffffff369c2927>
    8000080c:	039b6dbb          	remw	x27,x22,x25
    80000810:	1b198a1b          	addiw	x20,x19,433 # 1a3e11b1 <_start-0x65c1ee4f>
    80000814:	033ccc33          	div	x24,x25,x19
    80000818:	004e1113          	slli	x2,x28,0x4
    8000081c:	02cf8233          	mul	x4,x31,x12
    80000820:	0172a633          	slt	x12,x5,x23
    80000824:	039af733          	remu	x14,x21,x25
    80000828:	751a3e17          	auipc	x28,0x751a3
    8000082c:	03d9a9b3          	mulhsu	x19,x19,x29
    80000830:	40a8df1b          	sraiw	x30,x17,0xa
    80000834:	03da8db3          	mul	x27,x21,x29
    80000838:	41aa5693          	srai	x13,x20,0x1a
    8000083c:	02cb7bb3          	remu	x23,x22,x12
    80000840:	44bea9b7          	lui	x19,0x44bea
    80000844:	02ffe2b3          	rem	x5,x31,x15
    80000848:	002e06b3          	add	x13,x28,x2
    8000084c:	02b75abb          	divuw	x21,x14,x11
    80000850:	40585f13          	srai	x30,x16,0x5
    80000854:	0281fa33          	remu	x20,x3,x8
    80000858:	00cb28b3          	slt	x17,x22,x12
    8000085c:	0272f433          	remu	x8,x5,x7
    80000860:	01e502bb          	addw	x5,x10,x30
    80000864:	03024ebb          	divw	x29,x4,x16
    80000868:	67972893          	slti	x17,x14,1657
    8000086c:	0304813b          	mulw	x2,x9,x16
    80000870:	5aa2a513          	slti	x10,x5,1450
    80000874:	0382f23b          	remuw	x4,x5,x24
    80000878:	00ca931b          	slliw	x6,x21,0xc
    8000087c:	02ff00b3          	mul	x1,x30,x15
    80000880:	412b5db3          	sra	x27,x22,x18
    80000884:	03126c3b          	remw	x24,x4,x17
    80000888:	00bd0f3b          	addw	x30,x26,x11
    8000088c:	02701ab3          	mulh	x21,x0,x7
    80000890:	0234de13          	srli	x28,x9,0x23
    80000894:	02b7b033          	mulhu	x0,x15,x11
    80000898:	4031d5bb          	sraw	x11,x3,x3
    8000089c:	0287ca33          	div	x20,x15,x8
    800008a0:	01bf073b          	addw	x14,x30,x27
    800008a4:	0264a3b3          	mulhsu	x7,x9,x6
    800008a8:	01fc18bb          	sllw	x17,x24,x31
    800008ac:	02d5763b          	remuw	x12,x10,x13
    800008b0:	003dceb3          	xor	x29,x27,x3
    800008b4:	03e965b3          	rem	x11,x18,x30
    800008b8:	bf74db37          	lui	x22,0xbf74d
    800008bc:	0287563b          	divuw	x12,x14,x8
    800008c0:	90f33d97          	auipc	x27,0x90f33
    800008c4:	029f9833          	mulh	x16,x31,x9
    800008c8:	01f5d213          	srli	x4,x11,0x1f
    800008cc:	0315e33b          	remw	x6,x11,x17
    800008d0:	62272c13          	slti	x24,x14,1570
    800008d4:	03487933          	remu	x18,x16,x20
    800008d8:	0116ebb3          	or	x23,x13,x17
    800008dc:	02a3c7b3          	div	x15,x7,x10
    800008e0:	01015033          	srl	x0,x2,x16
    800008e4:	028fd6b3          	divu	x13,x31,x8
    800008e8:	14b40ab7          	lui	x21,0x14b40
    800008ec:	0274e1b3          	rem	x3,x9,x7
    800008f0:	0062033b          	addw	x6,x4,x6
    800008f4:	0206fcbb          	remuw	x25,x13,x0
    800008f8:	ffc70013          	addi	x0,x14,-4 # ffffffff8708fffc <_start+0xffffffff0708fffc>
    800008fc:	035ea233          	mulhsu	x4,x29,x21
    80000900:	41a1d43b          	sraw	x8,x3,x26
    80000904:	021f74b3          	remu	x9,x30,x1
    80000908:	410f5b3b          	sraw	x22,x30,x16
    8000090c:	027299b3          	mulh	x19,x5,x7
    80000910:	00081693          	slli	x13,x16,0x0
    80000914:	03b66333          	rem	x6,x12,x27
    80000918:	5770049b          	addiw	x9,x0,1399
    8000091c:	02cee73b          	remw	x14,x29,x12
    80000920:	01622bb3          	slt	x23,x4,x22
    80000924:	0234013b          	mulw	x2,x8,x3
    80000928:	419004b3          	sub	x9,x0,x25
    8000092c:	038daab3          	mulhsu	x21,x27,x24
    80000930:	028a1393          	slli	x7,x20,0x28
    80000934:	032937b3          	mulhu	x15,x18,x18
    80000938:	43ccd193          	srai	x3,x25,0x3c
    8000093c:	031f99b3          	mulh	x19,x31,x17
    80000940:	adfc4837          	lui	x16,0xadfc4
    80000944:	02d4a733          	mulhsu	x14,x9,x13
    80000948:	3a65091b          	addiw	x18,x10,934 # 3465c3a6 <_start-0x4b9a3c5a>
    8000094c:	0315f3b3          	remu	x7,x11,x17
    80000950:	03134837          	lui	x16,0x3134
    80000954:	03bd86bb          	mulw	x13,x27,x27
    80000958:	7b6c27b7          	lui	x15,0x7b6c2
    8000095c:	02494933          	div	x18,x18,x4
    80000960:	03e5d493          	srli	x9,x11,0x3e
    80000964:	033ec23b          	divw	x4,x29,x19
    80000968:	413583b3          	sub	x7,x11,x19
    8000096c:	0211dc3b          	divuw	x24,x3,x1
    80000970:	27a67093          	andi	x1,x12,634
    80000974:	02e87fbb          	remuw	x31,x16,x14
    80000978:	00786733          	or	x14,x16,x7
    8000097c:	03b126b3          	mulhsu	x13,x2,x27
    80000980:	a7f65cb7          	lui	x25,0xa7f65
    80000984:	0389a933          	mulhsu	x18,x19,x24
    80000988:	01621733          	sll	x14,x4,x22
    8000098c:	03f86abb          	remw	x21,x16,x31
    80000990:	00fb1333          	sll	x6,x22,x15
    80000994:	03f88433          	mul	x8,x17,x31
    80000998:	01a9d63b          	srlw	x12,x19,x26
    8000099c:	0210b033          	mulhu	x0,x1,x1
    800009a0:	37ff4893          	xori	x17,x30,895
    800009a4:	03e25c3b          	divuw	x24,x4,x30
    800009a8:	40ab0b3b          	subw	x22,x22,x10
    800009ac:	0377d53b          	divuw	x10,x15,x23
    800009b0:	59e93613          	sltiu	x12,x18,1438
    800009b4:	0307683b          	remw	x16,x14,x16
    800009b8:	00288f3b          	addw	x30,x17,x2
    800009bc:	023d23b3          	mulhsu	x7,x26,x3
    800009c0:	01ac1793          	slli	x15,x24,0x1a
    800009c4:	0200dc33          	divu	x24,x1,x0
    800009c8:	d31dd137          	lui	x2,0xd31dd
    800009cc:	03cf4a3b          	divw	x20,x30,x28
    800009d0:	021ebb37          	lui	x22,0x21eb
    800009d4:	0378d2bb          	divuw	x5,x17,x23
    800009d8:	21d0a697          	auipc	x13,0x21d0a
    800009dc:	031d1ab3          	mulh	x21,x26,x17
    800009e0:	5acb4793          	xori	x15,x22,1452
    800009e4:	020d4133          	div	x2,x26,x0
    800009e8:	5cb00f1b          	addiw	x30,x0,1483
    800009ec:	0244a833          	mulhsu	x16,x9,x4
    800009f0:	01cfa4b3          	slt	x9,x31,x28
    800009f4:	0396b6b3          	mulhu	x13,x13,x25
    800009f8:	41d3d5bb          	sraw	x11,x7,x29
    800009fc:	0211443b          	divw	x8,x2,x1
    80000a00:	7acafb93          	andi	x23,x21,1964
    80000a04:	02f89933          	mulh	x18,x17,x15
    80000a08:	0c6ffd17          	auipc	x26,0xc6ff
    80000a0c:	036a16b3          	mulh	x13,x20,x22
    80000a10:	401fd21b          	sraiw	x4,x31,0x1
    80000a14:	02879c33          	mulh	x24,x15,x8
    80000a18:	0184949b          	slliw	x9,x9,0x18
    80000a1c:	02d596b3          	mulh	x13,x11,x13
    80000a20:	01a31b3b          	sllw	x22,x6,x26
    80000a24:	02b089bb          	mulw	x19,x1,x11
    80000a28:	0102b033          	sltu	x0,x5,x16
    80000a2c:	029f0bb3          	mul	x23,x30,x9
    80000a30:	32da6637          	lui	x12,0x32da6
    80000a34:	03c7c9bb          	divw	x19,x15,x28
    80000a38:	11d1ea13          	ori	x20,x3,285
    80000a3c:	0218423b          	divw	x4,x16,x1
    80000a40:	00c45e3b          	srlw	x28,x8,x12
    80000a44:	038e9933          	mulh	x18,x29,x24
    80000a48:	398bbc13          	sltiu	x24,x23,920
    80000a4c:	037a6333          	rem	x6,x20,x23
    80000a50:	0092a633          	slt	x12,x5,x9
    80000a54:	0336efbb          	remw	x31,x13,x19
    80000a58:	4efe4813          	xori	x16,x28,1263
    80000a5c:	0379a433          	mulhsu	x8,x19,x23
    80000a60:	529e2b93          	slti	x23,x28,1321
    80000a64:	03cccf33          	div	x30,x25,x28
    80000a68:	073ac137          	lui	x2,0x73ac
    80000a6c:	02624db3          	div	x27,x4,x6
    80000a70:	0128f3b3          	and	x7,x17,x18
    80000a74:	02385f33          	divu	x30,x16,x3
    80000a78:	29269197          	auipc	x3,0x29269
    80000a7c:	0266483b          	divw	x16,x12,x6
    80000a80:	dfb8bb37          	lui	x22,0xdfb8b
    80000a84:	02155cbb          	divuw	x25,x10,x1
    80000a88:	439f0a93          	addi	x21,x30,1081
    80000a8c:	02ab9f33          	mulh	x30,x23,x10
    80000a90:	7f646097          	auipc	x1,0x7f646
    80000a94:	0292e8bb          	remw	x17,x5,x9
    80000a98:	00e68db3          	add	x27,x13,x14
    80000a9c:	02944a33          	div	x20,x8,x9
    80000aa0:	e5caaf97          	auipc	x31,0xe5caa
    80000aa4:	02b6e1bb          	remw	x3,x13,x11
    80000aa8:	43d45093          	srai	x1,x8,0x3d
    80000aac:	0244e033          	rem	x0,x9,x4
    80000ab0:	5d802eb7          	lui	x29,0x5d802
    80000ab4:	03f12833          	mulhsu	x16,x2,x31
    80000ab8:	7e39a217          	auipc	x4,0x7e39a
    80000abc:	02d4f533          	remu	x10,x9,x13
    80000ac0:	1de0bc97          	auipc	x25,0x1de0b
    80000ac4:	03efac33          	mulhsu	x24,x31,x30
    80000ac8:	0043833b          	addw	x6,x7,x4
    80000acc:	03c53e33          	mulhu	x28,x10,x28
    80000ad0:	0594b913          	sltiu	x18,x9,89
    80000ad4:	03df2433          	mulhsu	x8,x30,x29
    80000ad8:	405c0fbb          	subw	x31,x24,x5
    80000adc:	0249bd33          	mulhu	x26,x19,x4
    80000ae0:	007c52b3          	srl	x5,x24,x7
    80000ae4:	03b50cbb          	mulw	x25,x10,x27
    80000ae8:	40fc5033          	sra	x0,x24,x15
    80000aec:	028f7fbb          	remuw	x31,x30,x8
    80000af0:	03169313          	slli	x6,x13,0x31
    80000af4:	0329b733          	mulhu	x14,x19,x18
    80000af8:	2c031237          	lui	x4,0x2c031
    80000afc:	03df803b          	mulw	x0,x31,x29
    80000b00:	63f48d13          	addi	x26,x9,1599 # ffffffffdcc7f63f <_start+0xffffffff5cc7f63f>
    80000b04:	02f57bb3          	remu	x23,x10,x15
    80000b08:	273cb497          	auipc	x9,0x273cb
    80000b0c:	0279f2bb          	remuw	x5,x19,x7
    80000b10:	01b0ef33          	or	x30,x1,x27
    80000b14:	022d8933          	mul	x18,x27,x2
    80000b18:	0187a433          	slt	x8,x15,x24
    80000b1c:	037d7fbb          	remuw	x31,x26,x23
    80000b20:	48af0b1b          	addiw	x22,x30,1162
    80000b24:	02c20a33          	mul	x20,x4,x12
    80000b28:	009e05bb          	addw	x11,x28,x9
    80000b2c:	028c8bbb          	mulw	x23,x25,x8
    80000b30:	31be0813          	addi	x16,x28,795 # f51a3b43 <_start+0x751a3b43>
    80000b34:	031546bb          	divw	x13,x10,x17
    80000b38:	f36d1217          	auipc	x4,0xf36d1
    80000b3c:	02bcce33          	div	x28,x25,x11
    80000b40:	cd736717          	auipc	x14,0xcd736
    80000b44:	02a96fbb          	remw	x31,x18,x10
    80000b48:	01b9dcbb          	srlw	x25,x19,x27
    80000b4c:	0266b333          	mulhu	x6,x13,x6
    80000b50:	47d0d8b7          	lui	x17,0x47d0d
    80000b54:	03b97abb          	remuw	x21,x18,x27
    80000b58:	01de993b          	sllw	x18,x29,x29
    80000b5c:	028557bb          	divuw	x15,x10,x8
    80000b60:	1ab45717          	auipc	x14,0x1ab45
    80000b64:	02837d3b          	remuw	x26,x6,x8
    80000b68:	670b1037          	lui	x0,0x670b1
    80000b6c:	029f423b          	divw	x4,x30,x9
    80000b70:	2b13cf93          	xori	x31,x7,689
    80000b74:	03bad6bb          	divuw	x13,x21,x27
    80000b78:	08716bb7          	lui	x23,0x8716
    80000b7c:	03c28a33          	mul	x20,x5,x28
    80000b80:	ffe6a637          	lui	x12,0xffe6a
    80000b84:	02bf65bb          	remw	x11,x30,x11
    80000b88:	1c2e079b          	addiw	x15,x28,450
    80000b8c:	025de03b          	remw	x0,x27,x5
    80000b90:	58f48a1b          	addiw	x20,x9,1423 # ffffffffa73cc097 <_start+0xffffffff273cc097>
    80000b94:	02df63bb          	remw	x7,x30,x13
    80000b98:	2c6e7313          	andi	x6,x28,710
    80000b9c:	03627c33          	remu	x24,x4,x22
    80000ba0:	016a37b3          	sltu	x15,x20,x22
    80000ba4:	02103fb3          	mulhu	x31,x0,x1
    80000ba8:	45668ab7          	lui	x21,0x45668
    80000bac:	0296813b          	mulw	x2,x13,x9
    80000bb0:	1f780c37          	lui	x24,0x1f780
    80000bb4:	0375d2b3          	divu	x5,x11,x23
    80000bb8:	0158f8b3          	and	x17,x17,x21
    80000bbc:	036fd4b3          	divu	x9,x31,x22
    80000bc0:	014dde13          	srli	x28,x27,0x14
    80000bc4:	03341933          	mulh	x18,x8,x19
    80000bc8:	40e78abb          	subw	x21,x15,x14
    80000bcc:	02da52bb          	divuw	x5,x20,x13
    80000bd0:	007e9c1b          	slliw	x24,x29,0x7
    80000bd4:	03d1cdbb          	divw	x27,x3,x29
    80000bd8:	0065581b          	srliw	x16,x10,0x6
    80000bdc:	0286dd3b          	divuw	x26,x13,x8
    80000be0:	b61ddab7          	lui	x21,0xb61dd
    80000be4:	03c90ebb          	mulw	x29,x18,x28
    80000be8:	02698093          	addi	x1,x19,38 # 44bea026 <_start-0x3b415fda>
    80000bec:	024ff2bb          	remuw	x5,x31,x4
    80000bf0:	f6714d97          	auipc	x27,0xf6714
    80000bf4:	03db0633          	mul	x12,x22,x29
    80000bf8:	38472c13          	slti	x24,x14,900
    80000bfc:	03f70333          	mul	x6,x14,x31
    80000c00:	64de0a93          	addi	x21,x28,1613
    80000c04:	039d2933          	mulhsu	x18,x26,x25
    80000c08:	1c0be697          	auipc	x13,0x1c0be
    80000c0c:	03f7eebb          	remw	x29,x15,x31
    80000c10:	004fc9b3          	xor	x19,x31,x4
    80000c14:	025a533b          	divuw	x6,x20,x5
    80000c18:	4335081b          	addiw	x16,x10,1075
    80000c1c:	0386c3b3          	div	x7,x13,x24
    80000c20:	00409f1b          	slliw	x30,x1,0x4
    80000c24:	02450b33          	mul	x22,x10,x4
    80000c28:	4072589b          	sraiw	x17,x4,0x7
    80000c2c:	03ccd033          	divu	x0,x25,x28
    80000c30:	2009b5b7          	lui	x11,0x2009b
    80000c34:	029396b3          	mulh	x13,x7,x9
    80000c38:	f869cc17          	auipc	x24,0xf869c
    80000c3c:	022979b3          	remu	x19,x18,x2
    80000c40:	65d67793          	andi	x15,x12,1629
    80000c44:	02d9083b          	mulw	x16,x18,x13
    80000c48:	417203b3          	sub	x7,x4,x23
    80000c4c:	033f6eb3          	rem	x29,x30,x19
    80000c50:	24144fb7          	lui	x31,0x24144
    80000c54:	02d0a233          	mulhsu	x4,x1,x13
    80000c58:	002b11b3          	sll	x3,x22,x2
    80000c5c:	02ba053b          	mulw	x10,x20,x11
    80000c60:	a36b5797          	auipc	x15,0xa36b5
    80000c64:	036fec3b          	remw	x24,x31,x22
    80000c68:	133f7397          	auipc	x7,0x133f7
    80000c6c:	02ce66bb          	remw	x13,x28,x12
    80000c70:	27659437          	lui	x8,0x27659
    80000c74:	030771b3          	remu	x3,x14,x16
    80000c78:	01306a33          	or	x20,x0,x19
    80000c7c:	0350823b          	mulw	x4,x1,x21
    80000c80:	5c1106b7          	lui	x13,0x5c110
    80000c84:	0318d4b3          	divu	x9,x17,x17
    80000c88:	78e9be37          	lui	x28,0x78e9b
    80000c8c:	0398db3b          	divuw	x22,x17,x25
    80000c90:	41bbd63b          	sraw	x12,x23,x27
    80000c94:	0212fcbb          	remuw	x25,x5,x1
    80000c98:	005ba8b3          	slt	x17,x23,x5
    80000c9c:	0374ec33          	rem	x24,x9,x23
    80000ca0:	01702333          	slt	x6,x0,x23
    80000ca4:	03dafab3          	remu	x21,x21,x29
    80000ca8:	00b7ca33          	xor	x20,x15,x11
    80000cac:	033745bb          	divw	x11,x14,x19
    80000cb0:	00d748b3          	xor	x17,x14,x13
    80000cb4:	0296b633          	mulhu	x12,x13,x9
    80000cb8:	5dd3c413          	xori	x8,x7,1501
    80000cbc:	02bb73b3          	remu	x7,x22,x11
    80000cc0:	0096d233          	srl	x4,x13,x9
    80000cc4:	02bdaf33          	mulhsu	x30,x27,x11
    80000cc8:	018c49b3          	xor	x19,x24,x24
    80000ccc:	02ffc1bb          	divw	x3,x31,x15
    80000cd0:	5cf06c37          	lui	x24,0x5cf06
    80000cd4:	028ac63b          	divw	x12,x21,x8
    80000cd8:	0119913b          	sllw	x2,x19,x17
    80000cdc:	02973533          	mulhu	x10,x14,x9
    80000ce0:	010f6733          	or	x14,x30,x16
    80000ce4:	02105d33          	divu	x26,x0,x1
    80000ce8:	287eca93          	xori	x21,x29,647
    80000cec:	028107bb          	mulw	x15,x2,x8
    80000cf0:	00d87c33          	and	x24,x16,x13
    80000cf4:	03abdf33          	divu	x30,x23,x26
    80000cf8:	00165bbb          	srlw	x23,x12,x1
    80000cfc:	02a09fb3          	mulh	x31,x1,x10
    80000d00:	41c9d41b          	sraiw	x8,x19,0x1c
    80000d04:	02ef4933          	div	x18,x30,x14
    80000d08:	2de91397          	auipc	x7,0x2de91
    80000d0c:	037e613b          	remw	x2,x28,x23
    80000d10:	42af5013          	srai	x0,x30,0x2a
    80000d14:	025b6ebb          	remw	x29,x22,x5
    80000d18:	01b1e0b3          	or	x1,x3,x27
    80000d1c:	02bc9e33          	mulh	x28,x25,x11
    80000d20:	1f768f1b          	addiw	x30,x13,503 # 5c1101f7 <_start-0x23eefe09>
    80000d24:	0349ffbb          	remuw	x31,x19,x20
    80000d28:	00835ebb          	srlw	x29,x6,x8
    80000d2c:	0322c2b3          	div	x5,x5,x18
    80000d30:	391f3213          	sltiu	x4,x30,913
    80000d34:	02bdc8b3          	div	x17,x27,x11
    80000d38:	00d55b1b          	srliw	x22,x10,0xd
    80000d3c:	03df92b3          	mulh	x5,x31,x29
    80000d40:	41e3833b          	subw	x6,x7,x30
    80000d44:	0336c03b          	divw	x0,x13,x19
    80000d48:	01b3ac33          	slt	x24,x7,x27
    80000d4c:	03f1e53b          	remw	x10,x3,x31
    80000d50:	419f5ab3          	sra	x21,x30,x25
    80000d54:	03aa4e33          	div	x28,x20,x26
    80000d58:	33a20f93          	addi	x31,x4,826 # 736d1e72 <_start-0xc92e18e>
    80000d5c:	020b693b          	remw	x18,x22,x0
    80000d60:	f84d8237          	lui	x4,0xf84d8
    80000d64:	02b880bb          	mulw	x1,x17,x11
    80000d68:	0148139b          	slliw	x7,x16,0x14
    80000d6c:	02a8dfbb          	divuw	x31,x17,x10
    80000d70:	01755cb3          	srl	x25,x10,x23
    80000d74:	02c1e33b          	remw	x6,x3,x12
    80000d78:	90c12617          	auipc	x12,0x90c12
    80000d7c:	02e9b533          	mulhu	x10,x19,x14
    80000d80:	16f1b793          	sltiu	x15,x3,367
    80000d84:	03920f3b          	mulw	x30,x4,x25
    80000d88:	85f02737          	lui	x14,0x85f02
    80000d8c:	03a369bb          	remw	x19,x6,x26
    80000d90:	01c4511b          	srliw	x2,x8,0x1c
    80000d94:	021956b3          	divu	x13,x18,x1
    80000d98:	c495fd17          	auipc	x26,0xc495f
    80000d9c:	038d82bb          	mulw	x5,x27,x24
    80000da0:	01623a33          	sltu	x20,x4,x22
    80000da4:	02fa8533          	mul	x10,x21,x15
    80000da8:	00779abb          	sllw	x21,x15,x7
    80000dac:	0226f333          	remu	x6,x13,x2
    80000db0:	43b1d713          	srai	x14,x3,0x3b
    80000db4:	0212ebbb          	remw	x23,x5,x1
    80000db8:	5f61c413          	xori	x8,x3,1526
    80000dbc:	03dfe133          	rem	x2,x31,x29
    80000dc0:	0073e933          	or	x18,x7,x7
    80000dc4:	03e3f1b3          	remu	x3,x7,x30
    80000dc8:	418b5313          	srai	x6,x22,0x18
    80000dcc:	03798abb          	mulw	x21,x19,x23
    80000dd0:	41e70b3b          	subw	x22,x14,x30
    80000dd4:	03cc54bb          	divuw	x9,x24,x28
    80000dd8:	b0d4e637          	lui	x12,0xb0d4e
    80000ddc:	03937e3b          	remuw	x28,x6,x25
    80000de0:	00680333          	add	x6,x16,x6
    80000de4:	03d38bbb          	mulw	x23,x7,x29
    80000de8:	7767b413          	sltiu	x8,x15,1910
    80000dec:	03d51ab3          	mulh	x21,x10,x29
    80000df0:	01a5f6b3          	and	x13,x11,x26
    80000df4:	039fec3b          	remw	x24,x31,x25
    80000df8:	3fbcaa37          	lui	x20,0x3fbca
    80000dfc:	035af5b3          	remu	x11,x21,x21
    80000e00:	404f03b3          	sub	x7,x30,x4
    80000e04:	03e46fb3          	rem	x31,x8,x30
    80000e08:	02f25513          	srli	x10,x4,0x2f
    80000e0c:	02326bbb          	remw	x23,x4,x3
    80000e10:	019b05bb          	addw	x11,x22,x25
    80000e14:	03cf96b3          	mulh	x13,x31,x28
    80000e18:	6b294493          	xori	x9,x18,1714
    80000e1c:	02fd5d3b          	divuw	x26,x26,x15
    80000e20:	e1ba8237          	lui	x4,0xe1ba8
    80000e24:	037b15b3          	mulh	x11,x22,x23
    80000e28:	43eed393          	srai	x7,x29,0x3e
    80000e2c:	025ad2b3          	divu	x5,x21,x5
    80000e30:	408d053b          	subw	x10,x26,x8
    80000e34:	03121333          	mulh	x6,x4,x17
    80000e38:	401e83bb          	subw	x7,x29,x1
    80000e3c:	03594db3          	div	x27,x18,x21
    80000e40:	006b169b          	slliw	x13,x22,0x6
    80000e44:	032418b3          	mulh	x17,x8,x18
    80000e48:	14bc0f13          	addi	x30,x24,331 # 5cf0614b <_start-0x230f9eb5>
    80000e4c:	03947e33          	remu	x28,x8,x25
    80000e50:	01a97bb3          	and	x23,x18,x26
    80000e54:	0343e2b3          	rem	x5,x7,x20
    80000e58:	00a99e9b          	slliw	x29,x19,0xa
    80000e5c:	028afab3          	remu	x21,x21,x8
    80000e60:	238c4213          	xori	x4,x24,568
    80000e64:	03af52bb          	divuw	x5,x30,x26
    80000e68:	003113b3          	sll	x7,x2,x3
    80000e6c:	0365c1b3          	div	x3,x11,x22
    80000e70:	d6f64a97          	auipc	x21,0xd6f64
    80000e74:	02510cb3          	mul	x25,x2,x5
    80000e78:	aa6c4637          	lui	x12,0xaa6c4
    80000e7c:	02d74b33          	div	x22,x14,x13
    80000e80:	34f3ea93          	ori	x21,x7,847
    80000e84:	03a9f13b          	remuw	x2,x19,x26
    80000e88:	3528cf13          	xori	x30,x17,850
    80000e8c:	020ef5b3          	remu	x11,x29,x0
    80000e90:	42229a17          	auipc	x20,0x42229
    80000e94:	033c653b          	remw	x10,x24,x19
    80000e98:	00933733          	sltu	x14,x6,x9
    80000e9c:	037b9833          	mulh	x16,x23,x23
    80000ea0:	860dbe37          	lui	x28,0x860db
    80000ea4:	02b174bb          	remuw	x9,x2,x11
    80000ea8:	0396d013          	srli	x0,x13,0x39
    80000eac:	03ad0b33          	mul	x22,x26,x26
    80000eb0:	63a9e817          	auipc	x16,0x63a9e
    80000eb4:	0290aeb3          	mulhsu	x29,x1,x9
    80000eb8:	01941c13          	slli	x24,x8,0x19
    80000ebc:	0287ffb3          	remu	x31,x15,x8
    80000ec0:	40f9823b          	subw	x4,x19,x15
    80000ec4:	03734eb3          	div	x29,x6,x23
    80000ec8:	1a94c593          	xori	x11,x9,425
    80000ecc:	02a7d03b          	divuw	x0,x15,x10
    80000ed0:	d2136637          	lui	x12,0xd2136
    80000ed4:	024bf2bb          	remuw	x5,x23,x4
    80000ed8:	778d7d93          	andi	x27,x26,1912
    80000edc:	03dbf333          	remu	x6,x23,x29
    80000ee0:	df6aaf17          	auipc	x30,0xdf6aa
    80000ee4:	0239e633          	rem	x12,x19,x3
    80000ee8:	41085d93          	srai	x27,x16,0x10
    80000eec:	031d1033          	mulh	x0,x26,x17
    80000ef0:	40888b3b          	subw	x22,x17,x8
    80000ef4:	024ceab3          	rem	x21,x25,x4
    80000ef8:	97b8ac37          	lui	x24,0x97b8a
    80000efc:	0284c2bb          	divw	x5,x9,x8
    80000f00:	417b8933          	sub	x18,x23,x23
    80000f04:	02025033          	divu	x0,x4,x0
    80000f08:	72667d93          	andi	x27,x12,1830
    80000f0c:	03f63433          	mulhu	x8,x12,x31
    80000f10:	01351833          	sll	x16,x10,x19
    80000f14:	0206a7b3          	mulhsu	x15,x13,x0
    80000f18:	33c58193          	addi	x3,x11,828 # 2009b33c <_start-0x5ff64cc4>
    80000f1c:	03324a33          	div	x20,x4,x19
    80000f20:	93cf1237          	lui	x4,0x93cf1
    80000f24:	03d4e0bb          	remw	x1,x9,x29
    80000f28:	00a8139b          	slliw	x7,x16,0xa
    80000f2c:	03f5a8b3          	mulhsu	x17,x11,x31
    80000f30:	01dcc833          	xor	x16,x25,x29
    80000f34:	02da403b          	divw	x0,x20,x13
    80000f38:	13d52213          	slti	x4,x10,317
    80000f3c:	02875dbb          	divuw	x27,x14,x8
    80000f40:	ed1d8497          	auipc	x9,0xed1d8
    80000f44:	03395abb          	divuw	x21,x18,x19
    80000f48:	0448d737          	lui	x14,0x448d
    80000f4c:	027b47bb          	divw	x15,x22,x7
    80000f50:	a0afb917          	auipc	x18,0xa0afb
    80000f54:	03bf7bb3          	remu	x23,x30,x27
    80000f58:	019d2fb3          	slt	x31,x26,x25
    80000f5c:	03a445b3          	div	x11,x8,x26
    80000f60:	74f3bf13          	sltiu	x30,x7,1871
    80000f64:	02c05ab3          	divu	x21,x0,x12
    80000f68:	7e905b97          	auipc	x23,0x7e905
    80000f6c:	039701b3          	mul	x3,x14,x25
    80000f70:	00735fbb          	srlw	x31,x6,x7
    80000f74:	02ba6c33          	rem	x24,x20,x11
    80000f78:	00e840b3          	xor	x1,x16,x14
    80000f7c:	02ff7db3          	remu	x27,x30,x15
    80000f80:	687693b7          	lui	x7,0x68769
    80000f84:	037298b3          	mulh	x17,x5,x23
    80000f88:	019c591b          	srliw	x18,x24,0x19
    80000f8c:	022344bb          	divw	x9,x6,x2
    80000f90:	f4505a37          	lui	x20,0xf4505
    80000f94:	03a5ed3b          	remw	x26,x11,x26
    80000f98:	69d54a93          	xori	x21,x10,1693
    80000f9c:	03887c33          	remu	x24,x16,x24
    80000fa0:	2c11e0b7          	lui	x1,0x2c11e
    80000fa4:	02eb56b3          	divu	x13,x22,x14
    80000fa8:	f82b6537          	lui	x10,0xf82b6
    80000fac:	03706a33          	rem	x20,x0,x23
    80000fb0:	f860cc17          	auipc	x24,0xf860c
    80000fb4:	03dba6b3          	mulhsu	x13,x23,x29
    80000fb8:	9a9c9c97          	auipc	x25,0x9a9c9
    80000fbc:	0295f933          	remu	x18,x11,x9
    80000fc0:	1313d5b7          	lui	x11,0x1313d
    80000fc4:	0297e7b3          	rem	x15,x15,x9
    80000fc8:	00e5139b          	slliw	x7,x10,0xe
    80000fcc:	02cb6033          	rem	x0,x22,x12
    80000fd0:	7defbe93          	sltiu	x29,x31,2014
    80000fd4:	02621d33          	mulh	x26,x4,x6
    80000fd8:	006a8433          	add	x8,x21,x6
    80000fdc:	03688ab3          	mul	x21,x17,x22
    80000fe0:	94317297          	auipc	x5,0x94317
    80000fe4:	0335e833          	rem	x16,x11,x19
    80000fe8:	19e33893          	sltiu	x17,x6,414
    80000fec:	03d951bb          	divuw	x3,x18,x29
    80000ff0:	00ae7d33          	and	x26,x28,x10
    80000ff4:	0340c6b3          	div	x13,x1,x20
    80000ff8:	ec303d97          	auipc	x27,0xec303
    80000ffc:	035c90b3          	mulh	x1,x25,x21
    80001000:	0104553b          	srlw	x10,x8,x16
    80001004:	0279d5bb          	divuw	x11,x19,x7
    80001008:	14b4c837          	lui	x16,0x14b4c
    8000100c:	02d10e33          	mul	x28,x2,x13
    80001010:	fee0e493          	ori	x9,x1,-18
    80001014:	02408ab3          	mul	x21,x1,x4
    80001018:	016852bb          	srlw	x5,x16,x22
    8000101c:	02021a33          	mulh	x20,x4,x0
    80001020:	003e3233          	sltu	x4,x28,x3
    80001024:	03611cb3          	mulh	x25,x2,x22
    80001028:	403e83b3          	sub	x7,x29,x3
    8000102c:	023177b3          	remu	x15,x2,x3
    80001030:	560b1917          	auipc	x18,0x560b1
    80001034:	03e201bb          	mulw	x3,x4,x30
    80001038:	428f8997          	auipc	x19,0x428f8
    8000103c:	02189bb3          	mulh	x23,x17,x1
    80001040:	4044593b          	sraw	x18,x8,x4
    80001044:	03f66e3b          	remw	x28,x12,x31
    80001048:	c8e77897          	auipc	x17,0xc8e77
    8000104c:	038a43b3          	div	x7,x20,x24
    80001050:	5be6ba93          	sltiu	x21,x13,1470
    80001054:	0326653b          	remw	x10,x12,x18
    80001058:	00a26037          	lui	x0,0xa26
    8000105c:	038d24b3          	mulhsu	x9,x26,x24
    80001060:	005febb3          	or	x23,x31,x5
    80001064:	031ea233          	mulhsu	x4,x29,x17
    80001068:	00a2ac33          	slt	x24,x5,x10
    8000106c:	03e2ceb3          	div	x29,x5,x30
    80001070:	51763b13          	sltiu	x22,x12,1303
    80001074:	0301ba33          	mulhu	x20,x3,x16
    80001078:	80ac2ab7          	lui	x21,0x80ac2
    8000107c:	023bd333          	divu	x6,x23,x3
    80001080:	00c45cb3          	srl	x25,x8,x12
    80001084:	023df6bb          	remuw	x13,x27,x3
    80001088:	b6bdd997          	auipc	x19,0xb6bdd
    8000108c:	02750b33          	mul	x22,x10,x7
    80001090:	d79e5db7          	lui	x27,0xd79e5
    80001094:	03cd043b          	mulw	x8,x26,x28
    80001098:	432ce093          	ori	x1,x25,1074
    8000109c:	036661bb          	remw	x3,x12,x22
    800010a0:	88889db7          	lui	x27,0x88889
    800010a4:	03eebb33          	mulhu	x22,x29,x30
    800010a8:	01d644b3          	xor	x9,x12,x29
    800010ac:	02518abb          	mulw	x21,x3,x5
    800010b0:	25dcdf37          	lui	x30,0x25dcd
    800010b4:	038e6533          	rem	x10,x28,x24
    800010b8:	00000433          	add	x8,x0,x0
    800010bc:	02c2fabb          	remuw	x21,x5,x12
    800010c0:	019a1393          	slli	x7,x20,0x19
    800010c4:	03b98bb3          	mul	x23,x19,x27
    800010c8:	03995f93          	srli	x31,x18,0x39
    800010cc:	03c5ca3b          	divw	x20,x11,x28
    800010d0:	088cb197          	auipc	x3,0x88cb
    800010d4:	03036633          	rem	x12,x6,x16
    800010d8:	018d5c1b          	srliw	x24,x26,0x18
    800010dc:	03707abb          	remuw	x21,x0,x23
    800010e0:	68780d1b          	addiw	x26,x16,1671 # 14b4c687 <_start-0x6b4b3979>
    800010e4:	0242f63b          	remuw	x12,x5,x4
    800010e8:	41d786bb          	subw	x13,x15,x29
    800010ec:	039b6cbb          	remw	x25,x22,x25
    800010f0:	272c6113          	ori	x2,x24,626
    800010f4:	03a5403b          	divw	x0,x10,x26
    800010f8:	2bc52313          	slti	x6,x10,700
    800010fc:	03f9e5b3          	rem	x11,x19,x31
    80001100:	41aa06bb          	subw	x13,x20,x26
    80001104:	0238e933          	rem	x18,x17,x3
    80001108:	81410417          	auipc	x8,0x81410
    8000110c:	0367653b          	remw	x10,x14,x22
    80001110:	013b88b3          	add	x17,x23,x19
    80001114:	0297833b          	mulw	x6,x15,x9
    80001118:	01a7ddb3          	srl	x27,x15,x26
    8000111c:	03370033          	mul	x0,x14,x19
    80001120:	401c551b          	sraiw	x10,x24,0x1
    80001124:	03cb88b3          	mul	x17,x23,x28
    80001128:	f1893a17          	auipc	x20,0xf1893
    8000112c:	03a987bb          	mulw	x15,x19,x26
    80001130:	41585fb3          	sra	x31,x16,x21
    80001134:	03a9adb3          	mulhsu	x27,x19,x26
    80001138:	4d73059b          	addiw	x11,x6,1239 # ffffffffa95fc7f7 <_start+0xffffffff295fc7f7>
    8000113c:	0233e133          	rem	x2,x7,x3
    80001140:	40885a9b          	sraiw	x21,x16,0x8
    80001144:	030f7633          	remu	x12,x30,x16
    80001148:	01ee48b3          	xor	x17,x28,x30
    8000114c:	03954833          	div	x16,x10,x25
    80001150:	41b3de33          	sra	x28,x7,x27
    80001154:	028905b3          	mul	x11,x18,x8
    80001158:	426cd4b7          	lui	x9,0x426cd
    8000115c:	0222023b          	mulw	x4,x4,x2
    80001160:	0dd000b7          	lui	x1,0xdd00
    80001164:	0351f933          	remu	x18,x3,x21
    80001168:	010b8333          	add	x6,x23,x16
    8000116c:	02aac2bb          	divw	x5,x21,x10
    80001170:	76626693          	ori	x13,x4,1894
    80001174:	023650b3          	divu	x1,x12,x3
    80001178:	4d120c1b          	addiw	x24,x4,1233 # ffffffff93cf14d1 <_start+0xffffffff13cf14d1>
    8000117c:	02ca553b          	divuw	x10,x20,x12
    80001180:	41ebd01b          	sraiw	x0,x23,0x1e
    80001184:	027b6733          	rem	x14,x22,x7
    80001188:	03e49f13          	slli	x30,x9,0x3e
    8000118c:	03f8ebb3          	rem	x23,x17,x31
    80001190:	694fc6b7          	lui	x13,0x694fc
    80001194:	03aaf73b          	remuw	x14,x21,x26
    80001198:	21ae6113          	ori	x2,x28,538
    8000119c:	02a675b3          	remu	x11,x12,x10
    800011a0:	5314f417          	auipc	x8,0x5314f
    800011a4:	02dcf2b3          	remu	x5,x25,x13
    800011a8:	0381d213          	srli	x4,x3,0x38
    800011ac:	0223e6bb          	remw	x13,x7,x2
    800011b0:	00e503bb          	addw	x7,x10,x14
    800011b4:	0231dcbb          	divuw	x25,x3,x3
    800011b8:	a7cdbd97          	auipc	x27,0xa7cdb
    800011bc:	03af45b3          	div	x11,x30,x26
    800011c0:	4c0acb13          	xori	x22,x21,1216
    800011c4:	03e2d2bb          	divuw	x5,x5,x30
    800011c8:	002448b3          	xor	x17,x8,x2
    800011cc:	029fe93b          	remw	x18,x31,x9
    800011d0:	41a680b3          	sub	x1,x13,x26
    800011d4:	030796b3          	mulh	x13,x15,x16
    800011d8:	0022ccb3          	xor	x25,x5,x2
    800011dc:	024b12b3          	mulh	x5,x22,x4
    800011e0:	29e6a537          	lui	x10,0x29e6a
    800011e4:	0271ca3b          	divw	x20,x3,x7
    800011e8:	41df55bb          	sraw	x11,x30,x29
    800011ec:	0322efb3          	rem	x31,x5,x18
    800011f0:	ace92d17          	auipc	x26,0xace92
    800011f4:	03bad2bb          	divuw	x5,x21,x27
    800011f8:	5aba4f17          	auipc	x30,0x5aba4
    800011fc:	022c2e33          	mulhsu	x28,x24,x2
    80001200:	016d989b          	slliw	x17,x27,0x16
    80001204:	03d75c3b          	divuw	x24,x14,x29
    80001208:	0105513b          	srlw	x2,x10,x16
    8000120c:	02ae6e33          	rem	x28,x28,x10
    80001210:	b2c2c2b7          	lui	x5,0xb2c2c
    80001214:	0294a8b3          	mulhsu	x17,x9,x9
    80001218:	6dc7bd13          	sltiu	x26,x15,1756
    8000121c:	028d9633          	mulh	x12,x27,x8
    80001220:	3b437213          	andi	x4,x6,948
    80001224:	0375c9bb          	divw	x19,x11,x23
    80001228:	f65f0a97          	auipc	x21,0xf65f0
    8000122c:	029f8c3b          	mulw	x24,x31,x9
    80001230:	5c42aa37          	lui	x20,0x5c42a
    80001234:	03184333          	div	x6,x16,x17
    80001238:	00f551bb          	srlw	x3,x10,x15
    8000123c:	0300a233          	mulhsu	x4,x1,x16
    80001240:	015b3a33          	sltu	x20,x22,x21
    80001244:	02ec0d3b          	mulw	x26,x24,x14
    80001248:	acfffa97          	auipc	x21,0xacfff
    8000124c:	0247b533          	mulhu	x10,x15,x4
    80001250:	400f5cb3          	sra	x25,x30,x0
    80001254:	024e683b          	remw	x16,x28,x4
    80001258:	036f2993          	slti	x19,x30,54
    8000125c:	023f2db3          	mulhsu	x27,x30,x3
    80001260:	303bf493          	andi	x9,x23,771
    80001264:	021bf13b          	remuw	x2,x23,x1
    80001268:	017fd31b          	srliw	x6,x31,0x17
    8000126c:	0369ebb3          	rem	x23,x19,x22
    80001270:	00878fbb          	addw	x31,x15,x8
    80001274:	0340ecb3          	rem	x25,x1,x20
    80001278:	01e06933          	or	x18,x0,x30
    8000127c:	02d07c33          	remu	x24,x0,x13
    80001280:	4081531b          	sraiw	x6,x2,0x8
    80001284:	029df5bb          	remuw	x11,x27,x9
    80001288:	d3a28617          	auipc	x12,0xd3a28
    8000128c:	029e76b3          	remu	x13,x28,x9
    80001290:	01c8d4bb          	srlw	x9,x17,x28
    80001294:	038785bb          	mulw	x11,x15,x24
    80001298:	8f85cf97          	auipc	x31,0x8f85c
    8000129c:	03c3603b          	remw	x0,x6,x28
    800012a0:	00e52d33          	slt	x26,x10,x14
    800012a4:	03cc6c33          	rem	x24,x24,x28
    800012a8:	00784333          	xor	x6,x16,x7
    800012ac:	0223aa33          	mulhsu	x20,x7,x2
    800012b0:	5eb2b9b7          	lui	x19,0x5eb2b
    800012b4:	0301d83b          	divuw	x16,x3,x16
    800012b8:	00619293          	slli	x5,x3,0x6
    800012bc:	03ac80bb          	mulw	x1,x25,x26
    800012c0:	406d5d1b          	sraiw	x26,x26,0x6
    800012c4:	0343433b          	divw	x6,x6,x20
    800012c8:	0066969b          	slliw	x13,x13,0x6
    800012cc:	02489733          	mulh	x14,x17,x4
    800012d0:	72932b37          	lui	x22,0x72932
    800012d4:	030a7abb          	remuw	x21,x20,x16
    800012d8:	00d271b3          	and	x3,x4,x13
    800012dc:	027f9d33          	mulh	x26,x31,x7
    800012e0:	009c4333          	xor	x6,x24,x9
    800012e4:	02cbce33          	div	x28,x23,x12
    800012e8:	00c5db93          	srli	x23,x11,0xc
    800012ec:	0206f13b          	remuw	x2,x13,x0
    800012f0:	3e274593          	xori	x11,x14,994
    800012f4:	0347f63b          	remuw	x12,x15,x20
    800012f8:	7ce97193          	andi	x3,x18,1998
    800012fc:	03e7c433          	div	x8,x15,x30
    80001300:	00668733          	add	x14,x13,x6
    80001304:	03151a33          	mulh	x20,x10,x17
    80001308:	40ab5e1b          	sraiw	x28,x22,0xa
    8000130c:	03392cb3          	mulhsu	x25,x18,x19
    80001310:	229d6f17          	auipc	x30,0x229d6
    80001314:	028df63b          	remuw	x12,x27,x8
    80001318:	cf179017          	auipc	x0,0xcf179
    8000131c:	030f8db3          	mul	x27,x31,x16
    80001320:	4b9ebe13          	sltiu	x28,x29,1209
    80001324:	025a5533          	divu	x10,x20,x5
    80001328:	a6377017          	auipc	x0,0xa6377
    8000132c:	021da7b3          	mulhsu	x15,x27,x1
    80001330:	50376ab7          	lui	x21,0x50376
    80001334:	03bf1733          	mulh	x14,x30,x27
    80001338:	01df583b          	srlw	x16,x30,x29
    8000133c:	024d8bbb          	mulw	x23,x27,x4
    80001340:	b81a9217          	auipc	x4,0xb81a9
    80001344:	022ec33b          	divw	x6,x29,x2
    80001348:	79144193          	xori	x3,x8,1937
    8000134c:	029bef3b          	remw	x30,x23,x9
    80001350:	41575e9b          	sraiw	x29,x14,0x15
    80001354:	0299c633          	div	x12,x19,x9
    80001358:	e43c84b7          	lui	x9,0xe43c8
    8000135c:	03f3ef33          	rem	x30,x7,x31
    80001360:	412058b3          	sra	x17,x0,x18
    80001364:	0386ccbb          	divw	x25,x13,x24
    80001368:	b2a1a9b7          	lui	x19,0xb2a1a
    8000136c:	0252ce33          	div	x28,x5,x5
    80001370:	41b35433          	sra	x8,x6,x27
    80001374:	02dc9633          	mulh	x12,x25,x13
    80001378:	2984ed93          	ori	x27,x9,664
    8000137c:	03dbe033          	rem	x0,x23,x29
    80001380:	12a7b713          	sltiu	x14,x15,298
    80001384:	028a1bb3          	mulh	x23,x20,x8
    80001388:	41a583b3          	sub	x7,x11,x26
    8000138c:	035cf9b3          	remu	x19,x25,x21
    80001390:	40ae529b          	sraiw	x5,x28,0xa
    80001394:	036afb3b          	remuw	x22,x21,x22
    80001398:	01b4dd93          	srli	x27,x9,0x1b
    8000139c:	022800bb          	mulw	x1,x16,x2
    800013a0:	00ca111b          	slliw	x2,x20,0xc
    800013a4:	037d28b3          	mulhsu	x17,x26,x23
    800013a8:	40bad593          	srai	x11,x21,0xb
    800013ac:	034f26b3          	mulhsu	x13,x30,x20
    800013b0:	4deb851b          	addiw	x10,x23,1246 # fffffffffe906446 <_start+0xffffffff7e906446>
    800013b4:	03538e3b          	mulw	x28,x7,x21
    800013b8:	d3417a37          	lui	x20,0xd3417
    800013bc:	0285d133          	divu	x2,x11,x8
    800013c0:	4c559537          	lui	x10,0x4c559
    800013c4:	020d50b3          	divu	x1,x26,x0
    800013c8:	00079eb3          	sll	x29,x15,x0
    800013cc:	02fe6433          	rem	x8,x28,x15
    800013d0:	000e25b3          	slt	x11,x28,x0
    800013d4:	030a2c33          	mulhsu	x24,x20,x16
    800013d8:	400d8b33          	sub	x22,x27,x0
    800013dc:	022e50bb          	divuw	x1,x28,x2
    800013e0:	016a1693          	slli	x13,x20,0x16
    800013e4:	033be43b          	remw	x8,x23,x19
    800013e8:	63910f13          	addi	x30,x2,1593 # 73ac639 <_start-0x78c539c7>
    800013ec:	02556e33          	rem	x28,x10,x5
    800013f0:	a33feb37          	lui	x22,0xa33fe
    800013f4:	026856bb          	divuw	x13,x16,x6
    800013f8:	007a15bb          	sllw	x11,x20,x7
    800013fc:	0317d0bb          	divuw	x1,x15,x17
    80001400:	01ded133          	srl	x2,x29,x29
    80001404:	03a8b6b3          	mulhu	x13,x17,x26
    80001408:	07c4041b          	addiw	x8,x8,124 # ffffffffd315021c <_start+0xffffffff5315021c>
    8000140c:	03b5b233          	mulhu	x4,x11,x27
    80001410:	9c084d17          	auipc	x26,0x9c084
    80001414:	034372bb          	remuw	x5,x6,x20
    80001418:	40e0853b          	subw	x10,x1,x14
    8000141c:	03b1fe3b          	remuw	x28,x3,x27
    80001420:	00689f3b          	sllw	x30,x17,x6
    80001424:	027d76bb          	remuw	x13,x26,x7
    80001428:	e2977217          	auipc	x4,0xe2977
    8000142c:	02ce4c3b          	divw	x24,x28,x12
    80001430:	00e91a9b          	slliw	x21,x18,0xe
    80001434:	0306b8b3          	mulhu	x17,x13,x16
    80001438:	1b010d1b          	addiw	x26,x2,432
    8000143c:	0292afb3          	mulhsu	x31,x5,x9
    80001440:	2ca27193          	andi	x3,x4,714
    80001444:	0204873b          	mulw	x14,x9,x0
    80001448:	6ead50b7          	lui	x1,0x6ead5
    8000144c:	036c68bb          	remw	x17,x24,x22
    80001450:	1eb47f17          	auipc	x30,0x1eb47
    80001454:	029a743b          	remuw	x8,x20,x9
    80001458:	4341fb93          	andi	x23,x3,1076
    8000145c:	02ae7633          	remu	x12,x28,x10
    80001460:	5a91ec93          	ori	x25,x3,1449
    80001464:	02754333          	div	x6,x10,x7
    80001468:	5f8bc393          	xori	x7,x23,1528
    8000146c:	037519b3          	mulh	x19,x10,x23
    80001470:	05877f93          	andi	x31,x14,88
    80001474:	03208bbb          	mulw	x23,x1,x18
    80001478:	66e89437          	lui	x8,0x66e89
    8000147c:	022c853b          	mulw	x10,x25,x2
    80001480:	42dc5793          	srai	x15,x24,0x2d
    80001484:	023e2233          	mulhsu	x4,x28,x3
    80001488:	f8da0317          	auipc	x6,0xf8da0
    8000148c:	034f44b3          	div	x9,x30,x20
    80001490:	41215533          	sra	x10,x2,x18
    80001494:	030773bb          	remuw	x7,x14,x16
    80001498:	34e34f97          	auipc	x31,0x34e34
    8000149c:	03c8723b          	remuw	x4,x16,x28
    800014a0:	0022893b          	addw	x18,x5,x2
    800014a4:	03a6f7bb          	remuw	x15,x13,x26
    800014a8:	9f869e97          	auipc	x29,0x9f869
    800014ac:	0214f233          	remu	x4,x9,x1
    800014b0:	5ae2c837          	lui	x16,0x5ae2c
    800014b4:	03e19d33          	mulh	x26,x3,x30
    800014b8:	36e84537          	lui	x10,0x36e84
    800014bc:	029a6b33          	rem	x22,x20,x9
    800014c0:	4019d03b          	sraw	x0,x19,x1
    800014c4:	0327ed33          	rem	x26,x15,x18
    800014c8:	7da4ffb7          	lui	x31,0x7da4f
    800014cc:	024aaab3          	mulhsu	x21,x21,x4
    800014d0:	42525993          	srai	x19,x4,0x25
    800014d4:	027857b3          	divu	x15,x16,x7
    800014d8:	5fb1db37          	lui	x22,0x5fb1d
    800014dc:	038dd2b3          	divu	x5,x27,x24
    800014e0:	4f21f213          	andi	x4,x3,1266
    800014e4:	0234cfbb          	divw	x31,x9,x3
    800014e8:	4039df33          	sra	x30,x19,x3
    800014ec:	03186b3b          	remw	x22,x16,x17
    800014f0:	40a4d7b3          	sra	x15,x9,x10
    800014f4:	0213413b          	divw	x2,x6,x1
    800014f8:	4124d6bb          	sraw	x13,x9,x18
    800014fc:	035465bb          	remw	x11,x8,x21
    80001500:	21fe9d17          	auipc	x26,0x21fe9
    80001504:	03c87ebb          	remuw	x29,x16,x28
    80001508:	6f118b13          	addi	x22,x3,1777 # 888cc7c1 <_start+0x88cc7c1>
    8000150c:	02ace43b          	remw	x8,x25,x10
    80001510:	afc0c017          	auipc	x0,0xafc0c
    80001514:	029be63b          	remw	x12,x23,x9
    80001518:	c019d717          	auipc	x14,0xc019d
    8000151c:	0377b0b3          	mulhu	x1,x15,x23
    80001520:	01c7b533          	sltu	x10,x15,x28
    80001524:	03ea403b          	divw	x0,x20,x30
    80001528:	23587113          	andi	x2,x16,565
    8000152c:	02331eb3          	mulh	x29,x6,x3
    80001530:	4085d9bb          	sraw	x19,x11,x8
    80001534:	02867b3b          	remuw	x22,x12,x8
    80001538:	41738d33          	sub	x26,x7,x23
    8000153c:	035ae533          	rem	x10,x21,x21
    80001540:	002054b3          	srl	x9,x0,x2
    80001544:	02eb7433          	remu	x8,x22,x14
    80001548:	0168bd13          	sltiu	x26,x17,22
    8000154c:	02502f33          	mulhsu	x30,x0,x5
    80001550:	00c150b3          	srl	x1,x2,x12
    80001554:	028b713b          	remuw	x2,x22,x8
    80001558:	02f5d513          	srli	x10,x11,0x2f
    8000155c:	02da6bbb          	remw	x23,x20,x13
    80001560:	01589cbb          	sllw	x25,x17,x21
    80001564:	03be8ebb          	mulw	x29,x29,x27
    80001568:	352c4213          	xori	x4,x24,850
    8000156c:	0232b1b3          	mulhu	x3,x5,x3
    80001570:	6da1099b          	addiw	x19,x2,1754
    80001574:	02e87bb3          	remu	x23,x16,x14
    80001578:	014dda9b          	srliw	x21,x27,0x14
    8000157c:	0243683b          	remw	x16,x6,x4
    80001580:	0184f933          	and	x18,x9,x24
    80001584:	03b8eb33          	rem	x22,x17,x27
    80001588:	01fa5a13          	srli	x20,x20,0x1f
    8000158c:	0388e433          	rem	x8,x17,x24
    80001590:	a0c4beb7          	lui	x29,0xa0c4b
    80001594:	0384cc3b          	divw	x24,x9,x24
    80001598:	0037f7b3          	and	x15,x15,x3
    8000159c:	02a4ce3b          	divw	x28,x9,x10
    800015a0:	41e68bb3          	sub	x23,x13,x30
    800015a4:	03b05cb3          	divu	x25,x0,x27
    800015a8:	006ed51b          	srliw	x10,x29,0x6
    800015ac:	0369833b          	mulw	x6,x19,x22
    800015b0:	00b00033          	add	x0,x0,x11
    800015b4:	033268bb          	remw	x17,x4,x19
    800015b8:	41a950bb          	sraw	x1,x18,x26
    800015bc:	033f3533          	mulhu	x10,x30,x19
    800015c0:	cd820397          	auipc	x7,0xcd820
    800015c4:	02c948bb          	divw	x17,x18,x12
    800015c8:	96bcadb7          	lui	x27,0x96bca
    800015cc:	022c15b3          	mulh	x11,x24,x2
    800015d0:	02c41793          	slli	x15,x8,0x2c
    800015d4:	039bcab3          	div	x21,x23,x25
    800015d8:	01d9d29b          	srliw	x5,x19,0x1d
    800015dc:	0238f4b3          	remu	x9,x17,x3
    800015e0:	0039931b          	slliw	x6,x19,0x3
    800015e4:	03e775bb          	remuw	x11,x14,x30
    800015e8:	c48d9097          	auipc	x1,0xc48d9
    800015ec:	02c3d6bb          	divuw	x13,x7,x12
    800015f0:	9b0dda37          	lui	x20,0x9b0dd
    800015f4:	036dd4b3          	divu	x9,x27,x22
    800015f8:	00ce813b          	addw	x2,x29,x12
    800015fc:	03d80e33          	mul	x28,x16,x29
    80001600:	015fc6b3          	xor	x13,x31,x21
    80001604:	0314cc33          	div	x24,x9,x17
    80001608:	02c3d293          	srli	x5,x7,0x2c
    8000160c:	036f31b3          	mulhu	x3,x30,x22
    80001610:	030e1813          	slli	x16,x28,0x30
    80001614:	03db5f3b          	divuw	x30,x22,x29
    80001618:	01dbf013          	andi	x0,x23,29
    8000161c:	0383f4b3          	remu	x9,x7,x24
    80001620:	033c5213          	srli	x4,x24,0x33
    80001624:	0255813b          	mulw	x2,x11,x5
    80001628:	6af58013          	addi	x0,x11,1711 # 1313d6af <_start-0x6cec2951>
    8000162c:	03dd8c3b          	mulw	x24,x27,x29
    80001630:	00c27e33          	and	x28,x4,x12
    80001634:	0295f9b3          	remu	x19,x11,x9
    80001638:	79e5b0b7          	lui	x1,0x79e5b
    8000163c:	020c78b3          	remu	x17,x24,x0
    80001640:	0025d6bb          	srlw	x13,x11,x2
    80001644:	03938fbb          	mulw	x31,x7,x25
    80001648:	400389b3          	sub	x19,x7,x0
    8000164c:	0245693b          	remw	x18,x10,x4
    80001650:	0117ea33          	or	x20,x15,x17
    80001654:	02e2f6b3          	remu	x13,x5,x14
    80001658:	b8acf0b7          	lui	x1,0xb8acf
    8000165c:	03ef553b          	divuw	x10,x30,x30
    80001660:	00848bbb          	addw	x23,x9,x8
    80001664:	03e16033          	rem	x0,x2,x30
    80001668:	40ca82b3          	sub	x5,x21,x12
    8000166c:	0220c3bb          	divw	x7,x1,x2
    80001670:	406ad43b          	sraw	x8,x21,x6
    80001674:	03421233          	mulh	x4,x4,x20
    80001678:	02f01793          	slli	x15,x0,0x2f
    8000167c:	035dc6b3          	div	x13,x27,x21
    80001680:	5cb04a93          	xori	x21,x0,1483
    80001684:	02a5fdbb          	remuw	x27,x11,x10
    80001688:	5d9b8b9b          	addiw	x23,x23,1497
    8000168c:	0266d133          	divu	x2,x13,x6
    80001690:	4cf5de17          	auipc	x28,0x4cf5d
    80001694:	0268beb3          	mulhu	x29,x17,x6
    80001698:	01a8cdb3          	xor	x27,x17,x26
    8000169c:	03291533          	mulh	x10,x18,x18
    800016a0:	0141da33          	srl	x20,x3,x20
    800016a4:	02f42633          	mulhsu	x12,x8,x15
    800016a8:	ca37e297          	auipc	x5,0xca37e
    800016ac:	02b1e6b3          	rem	x13,x3,x11
    800016b0:	2c8e6f13          	ori	x30,x28,712
    800016b4:	022d5833          	divu	x16,x26,x2
    800016b8:	b4221417          	auipc	x8,0xb4221
    800016bc:	02632733          	mulhsu	x14,x6,x6
    800016c0:	6beb089b          	addiw	x17,x22,1726 # 5fb1d6be <_start-0x204e2942>
    800016c4:	039ade3b          	divuw	x28,x21,x25
    800016c8:	4085d01b          	sraiw	x0,x11,0x8
    800016cc:	034707b3          	mul	x15,x14,x20
    800016d0:	31a50693          	addi	x13,x10,794 # 36e8431a <_start-0x4917bce6>
    800016d4:	039f60b3          	rem	x1,x30,x25
    800016d8:	012b6733          	or	x14,x22,x18
    800016dc:	02f87b33          	remu	x22,x16,x15
    800016e0:	5a236537          	lui	x10,0x5a236
    800016e4:	02beaf33          	mulhsu	x30,x29,x11
    800016e8:	4147da13          	srai	x20,x15,0x14
    800016ec:	0276cebb          	divw	x29,x13,x7
    800016f0:	01f04433          	xor	x8,x0,x31
    800016f4:	02bd7db3          	remu	x27,x26,x11
    800016f8:	7026f897          	auipc	x17,0x7026f
    800016fc:	020eca33          	div	x20,x29,x0
    80001700:	69fde437          	lui	x8,0x69fde
    80001704:	02af5033          	divu	x0,x30,x10
    80001708:	40148d3b          	subw	x26,x9,x1
    8000170c:	035e3f33          	mulhu	x30,x28,x21
    80001710:	81ca9eb7          	lui	x29,0x81ca9
    80001714:	03996a3b          	remw	x20,x18,x25
    80001718:	01f26cb3          	or	x25,x4,x31
    8000171c:	036e6933          	rem	x18,x28,x22
    80001720:	01efa5b3          	slt	x11,x31,x30
    80001724:	038ad83b          	divuw	x16,x21,x24
    80001728:	640b0d13          	addi	x26,x22,1600
    8000172c:	02c75ebb          	divuw	x29,x14,x12
    80001730:	ff59e4b7          	lui	x9,0xff59e
    80001734:	034bc6b3          	div	x13,x23,x20
    80001738:	40c85e1b          	sraiw	x28,x16,0xc
    8000173c:	03a8e2bb          	remw	x5,x17,x26
    80001740:	d1f14cb7          	lui	x25,0xd1f14
    80001744:	037538b3          	mulhu	x17,x10,x23
    80001748:	8a63f537          	lui	x10,0x8a63f
    8000174c:	026da233          	mulhsu	x4,x27,x6
    80001750:	b1b78337          	lui	x6,0xb1b78
    80001754:	035abf33          	mulhu	x30,x21,x21
    80001758:	3f328193          	addi	x3,x5,1011 # 4a37fa9b <_start-0x35c80565>
    8000175c:	0275c5bb          	divw	x11,x11,x7
    80001760:	5dae6a13          	ori	x20,x28,1498
    80001764:	02c497b3          	mulh	x15,x9,x12
    80001768:	017919b3          	sll	x19,x18,x23
    8000176c:	0321cf33          	div	x30,x3,x18
    80001770:	00a010bb          	sllw	x1,x0,x10
    80001774:	030ae73b          	remw	x14,x21,x16
    80001778:	d9ba9237          	lui	x4,0xd9ba9
    8000177c:	0351ec33          	rem	x24,x3,x21
    80001780:	4cee7f97          	auipc	x31,0x4cee7
    80001784:	02d28033          	mul	x0,x5,x13
    80001788:	ab76c637          	lui	x12,0xab76c
    8000178c:	03ce0a3b          	mulw	x20,x28,x28
    80001790:	404c89bb          	subw	x19,x25,x4
    80001794:	02691b33          	mulh	x22,x18,x6
    80001798:	65a8fb93          	andi	x23,x17,1626
    8000179c:	03ffa0b3          	mulhsu	x1,x31,x31
    800017a0:	33d60a93          	addi	x21,x12,829 # ffffffffab76c33d <_start+0xffffffff2b76c33d>
    800017a4:	036ce9b3          	rem	x19,x25,x22
    800017a8:	00b59393          	slli	x7,x11,0xb
    800017ac:	03cd9d33          	mulh	x26,x27,x28
    800017b0:	2a7be413          	ori	x8,x23,679
    800017b4:	02f73f33          	mulhu	x30,x14,x15
    800017b8:	4678c013          	xori	x0,x17,1127
    800017bc:	027dec33          	rem	x24,x27,x7
    800017c0:	414d0db3          	sub	x27,x26,x20
    800017c4:	035fdf33          	divu	x30,x31,x21
    800017c8:	77897817          	auipc	x16,0x77897
    800017cc:	033379b3          	remu	x19,x6,x19
    800017d0:	1a5b8f9b          	addiw	x31,x23,421
    800017d4:	023b46b3          	div	x13,x22,x3
    800017d8:	1bf52513          	slti	x10,x10,447
    800017dc:	0271c4bb          	divw	x9,x3,x7
    800017e0:	c87b01b7          	lui	x3,0xc87b0
    800017e4:	0286f2b3          	remu	x5,x13,x8
    800017e8:	0c70c313          	xori	x6,x1,199
    800017ec:	034a7933          	remu	x18,x20,x20
    800017f0:	01b49f13          	slli	x30,x9,0x1b
    800017f4:	02b1ce3b          	divw	x28,x3,x11
    800017f8:	01c1d49b          	srliw	x9,x3,0x1c
    800017fc:	030af333          	remu	x6,x21,x16
    80001800:	e7c8c397          	auipc	x7,0xe7c8c
    80001804:	028b52bb          	divuw	x5,x22,x8
    80001808:	40b8073b          	subw	x14,x16,x11
    8000180c:	03a26333          	rem	x6,x4,x26
    80001810:	01c1b933          	sltu	x18,x3,x28
    80001814:	02cfbb33          	mulhu	x22,x31,x12
    80001818:	0004da3b          	srlw	x20,x9,x0
    8000181c:	03ff4733          	div	x14,x30,x31
    80001820:	02849393          	slli	x7,x9,0x28
    80001824:	021e8633          	mul	x12,x29,x1
    80001828:	0b3a7ab7          	lui	x21,0xb3a7
    8000182c:	02f0e0bb          	remw	x1,x1,x15
    80001830:	0175f833          	and	x16,x11,x23
    80001834:	02d98fb3          	mul	x31,x19,x13
    80001838:	005d9493          	slli	x9,x27,0x5
    8000183c:	0210f5bb          	remuw	x11,x1,x1
    80001840:	07204ab7          	lui	x21,0x7204
    80001844:	023bd93b          	divuw	x18,x23,x3
    80001848:	006099bb          	sllw	x19,x1,x6
    8000184c:	03d6ca3b          	divw	x20,x13,x29
    80001850:	5c81a1b7          	lui	x3,0x5c81a
    80001854:	03229f33          	mulh	x30,x5,x18
    80001858:	412ac813          	xori	x16,x21,1042
    8000185c:	0320e3b3          	rem	x7,x1,x18
    80001860:	01d12eb3          	slt	x29,x2,x29
    80001864:	0386b233          	mulhu	x4,x13,x24
    80001868:	0094a133          	slt	x2,x9,x9
    8000186c:	02f372bb          	remuw	x5,x6,x15
    80001870:	0165a833          	slt	x16,x11,x22
    80001874:	021a743b          	remuw	x8,x20,x1
    80001878:	40475c33          	sra	x24,x14,x4
    8000187c:	034d68bb          	remw	x17,x26,x20
    80001880:	61850f93          	addi	x31,x10,1560 # ffffffff8a63f618 <_start+0xffffffff0a63f618>
    80001884:	02eb47bb          	divw	x15,x22,x14
    80001888:	40a6ddb3          	sra	x27,x13,x10
    8000188c:	032efabb          	remuw	x21,x29,x18
    80001890:	7f0f2493          	slti	x9,x30,2032
    80001894:	039eb5b3          	mulhu	x11,x29,x25
    80001898:	de622f37          	lui	x30,0xde622
    8000189c:	02edc533          	div	x10,x27,x14
    800018a0:	6a557e17          	auipc	x28,0x6a557
    800018a4:	026494b3          	mulh	x9,x9,x6
    800018a8:	2899c793          	xori	x15,x19,649
    800018ac:	03b75333          	divu	x6,x14,x27
    800018b0:	baa63537          	lui	x10,0xbaa63
    800018b4:	03516f33          	rem	x30,x2,x21
    800018b8:	31880b97          	auipc	x23,0x31880
    800018bc:	03b1aab3          	mulhsu	x21,x3,x27
    800018c0:	0004143b          	sllw	x8,x8,x0
    800018c4:	020366b3          	rem	x13,x6,x0
    800018c8:	00f0ce33          	xor	x28,x1,x15
    800018cc:	02ffe5b3          	rem	x11,x31,x15
    800018d0:	411400bb          	subw	x1,x8,x17
    800018d4:	020a5a3b          	divuw	x20,x20,x0
    800018d8:	3b3b0293          	addi	x5,x22,947
    800018dc:	03af2fb3          	mulhsu	x31,x30,x26
    800018e0:	95707217          	auipc	x4,0x95707
    800018e4:	0364f8bb          	remuw	x17,x9,x22
    800018e8:	302ae293          	ori	x5,x21,770
    800018ec:	03f03333          	mulhu	x6,x0,x31
    800018f0:	00b50833          	add	x16,x10,x11
    800018f4:	02e069bb          	remw	x19,x0,x14
    800018f8:	559300b7          	lui	x1,0x55930
    800018fc:	03205f3b          	divuw	x30,x0,x18
    80001900:	a0769197          	auipc	x3,0xa0769
    80001904:	030f8bb3          	mul	x23,x31,x16
    80001908:	00d4b433          	sltu	x8,x9,x13
    8000190c:	030f07b3          	mul	x15,x30,x16
    80001910:	6ead3eb7          	lui	x29,0x6ead3
    80001914:	033f51bb          	divuw	x3,x30,x19
    80001918:	41638933          	sub	x18,x7,x22
    8000191c:	039f7c3b          	remuw	x24,x30,x25
    80001920:	4095d6bb          	sraw	x13,x11,x9
    80001924:	021abd33          	mulhu	x26,x21,x1
    80001928:	2c59ff97          	auipc	x31,0x2c59f
    8000192c:	033a6dbb          	remw	x27,x20,x19
    80001930:	047c2713          	slti	x14,x24,71
    80001934:	02d475b3          	remu	x11,x8,x13
    80001938:	2bc90c13          	addi	x24,x18,700 # d60b22ec <_start+0x560b22ec>
    8000193c:	039d27b3          	mulhsu	x15,x26,x25
    80001940:	41af5dbb          	sraw	x27,x30,x26
    80001944:	032a34b3          	mulhu	x9,x20,x18
    80001948:	000380b3          	add	x1,x7,x0
    8000194c:	037f4d3b          	divw	x26,x30,x23
    80001950:	90773817          	auipc	x16,0x90773
    80001954:	02c5c933          	div	x18,x11,x12
    80001958:	1bb72b13          	slti	x22,x14,443
    8000195c:	025261bb          	remw	x3,x4,x5
    80001960:	80945397          	auipc	x7,0x80945
    80001964:	02dbe6bb          	remw	x13,x23,x13
    80001968:	2056f9b7          	lui	x19,0x2056f
    8000196c:	023c57bb          	divuw	x15,x24,x3
    80001970:	01075cbb          	srlw	x25,x14,x16
    80001974:	023d713b          	remuw	x2,x26,x3
    80001978:	005b2eb3          	slt	x29,x22,x5
    8000197c:	02e36c33          	rem	x24,x6,x14
    80001980:	00970633          	add	x12,x14,x9
    80001984:	03514233          	div	x4,x2,x21
    80001988:	01c5a9b3          	slt	x19,x11,x28
    8000198c:	038a43bb          	divw	x7,x20,x24
    80001990:	009ed0b3          	srl	x1,x29,x9
    80001994:	037d7d33          	remu	x26,x26,x23
    80001998:	413982bb          	subw	x5,x19,x19
    8000199c:	02b40cb3          	mul	x25,x8,x11
    800019a0:	0110e4b3          	or	x9,x1,x17
    800019a4:	02bd5c33          	divu	x24,x26,x11
    800019a8:	62c5d0b7          	lui	x1,0x62c5d
    800019ac:	027ec5bb          	divw	x11,x29,x7
    800019b0:	1596a017          	auipc	x0,0x1596a
    800019b4:	039a6833          	rem	x16,x20,x25
    800019b8:	006c531b          	srliw	x6,x24,0x6
    800019bc:	03e4d7b3          	divu	x15,x9,x30
    800019c0:	b552e997          	auipc	x19,0xb552e
    800019c4:	022d423b          	divw	x4,x26,x2
    800019c8:	157b3c37          	lui	x24,0x157b3
    800019cc:	02ddef33          	rem	x30,x27,x13
    800019d0:	79151397          	auipc	x7,0x79151
    800019d4:	0219c9bb          	divw	x19,x19,x1
    800019d8:	8fdbc337          	lui	x6,0x8fdbc
    800019dc:	0302af33          	mulhsu	x30,x5,x16
    800019e0:	63f40113          	addi	x2,x8,1599 # 69fde63f <_start-0x160219c1>
    800019e4:	03ab67b3          	rem	x15,x22,x26
    800019e8:	4d953a93          	sltiu	x21,x10,1241
    800019ec:	027a50bb          	divuw	x1,x20,x7
    800019f0:	39c86697          	auipc	x13,0x39c86
    800019f4:	039e4c3b          	divw	x24,x28,x25
    800019f8:	ea656bb7          	lui	x23,0xea656
    800019fc:	033a53b3          	divu	x7,x20,x19
    80001a00:	41d6519b          	sraiw	x3,x12,0x1d
    80001a04:	03a5b5b3          	mulhu	x11,x11,x26
    80001a08:	41b1501b          	sraiw	x0,x2,0x1b
    80001a0c:	03243933          	mulhu	x18,x8,x18
    80001a10:	01375d33          	srl	x26,x14,x19
    80001a14:	0212f333          	remu	x6,x5,x1
    80001a18:	00ef2133          	slt	x2,x30,x14
    80001a1c:	02cc5fbb          	divuw	x31,x24,x12
    80001a20:	01aa41b3          	xor	x3,x20,x26
    80001a24:	0358463b          	divw	x12,x16,x21
    80001a28:	01abd89b          	srliw	x17,x23,0x1a
    80001a2c:	02a48333          	mul	x6,x9,x10
    80001a30:	00fc7f33          	and	x30,x24,x15
    80001a34:	03607a3b          	remuw	x20,x0,x22
    80001a38:	9517b837          	lui	x16,0x9517b
    80001a3c:	032be73b          	remw	x14,x23,x18
    80001a40:	23cb1b17          	auipc	x22,0x23cb1
    80001a44:	03b354bb          	divuw	x9,x6,x27
    80001a48:	e28b8617          	auipc	x12,0xe28b8
    80001a4c:	039dd23b          	divuw	x4,x27,x25
    80001a50:	83a39117          	auipc	x2,0x83a39
    80001a54:	03545abb          	divuw	x21,x8,x21
    80001a58:	0055991b          	slliw	x18,x11,0x5
    80001a5c:	03e02d33          	mulhsu	x26,x0,x30
    80001a60:	017d9cb3          	sll	x25,x27,x23
    80001a64:	02e8efbb          	remw	x31,x17,x14
    80001a68:	0002a433          	slt	x8,x5,x0
    80001a6c:	02ef5f3b          	divuw	x30,x30,x14
    80001a70:	186ef717          	auipc	x14,0x186ef
    80001a74:	0270e0bb          	remw	x1,x1,x7
    80001a78:	c036e137          	lui	x2,0xc036e
    80001a7c:	02547b33          	remu	x22,x8,x5
    80001a80:	f2c283b7          	lui	x7,0xf2c28
    80001a84:	0201c0bb          	divw	x1,x3,x0
    80001a88:	5130c837          	lui	x16,0x5130c
    80001a8c:	029bb4b3          	mulhu	x9,x23,x9
    80001a90:	01c15033          	srl	x0,x2,x28
    80001a94:	02567933          	remu	x18,x12,x5
    80001a98:	418f0133          	sub	x2,x30,x24
    80001a9c:	023fc1bb          	divw	x3,x31,x3
    80001aa0:	01b76f33          	or	x30,x14,x27
    80001aa4:	020df53b          	remuw	x10,x27,x0
    80001aa8:	336a0d97          	auipc	x27,0x336a0
    80001aac:	02c1023b          	mulw	x4,x2,x12
    80001ab0:	01e90b3b          	addw	x22,x18,x30
    80001ab4:	032f53bb          	divuw	x7,x30,x18
    80001ab8:	015e1fb3          	sll	x31,x28,x21
    80001abc:	0319733b          	remuw	x6,x18,x17
    80001ac0:	5ee162b7          	lui	x5,0x5ee16
    80001ac4:	02b1d133          	divu	x2,x3,x11
    80001ac8:	822eb997          	auipc	x19,0x822eb
    80001acc:	02d2033b          	mulw	x6,x4,x13
    80001ad0:	5f69feb7          	lui	x29,0x5f69f
    80001ad4:	02090733          	mul	x14,x18,x0
    80001ad8:	014cfbb3          	and	x23,x25,x20
    80001adc:	03a3e53b          	remw	x10,x7,x26
    80001ae0:	3a600093          	addi	x1,x0,934
    80001ae4:	02467ebb          	remuw	x29,x12,x4
    80001ae8:	418b5e33          	sra	x28,x22,x24
    80001aec:	02f49533          	mulh	x10,x9,x15
    80001af0:	40e7519b          	sraiw	x3,x14,0xe
    80001af4:	03afc4b3          	div	x9,x31,x26
    80001af8:	01ac1d33          	sll	x26,x24,x26
    80001afc:	03329fb3          	mulh	x31,x5,x19
    80001b00:	430df613          	andi	x12,x27,1072
    80001b04:	02e150b3          	divu	x1,x2,x14
    80001b08:	03a09497          	auipc	x9,0x3a09
    80001b0c:	0286a933          	mulhsu	x18,x13,x8
    80001b10:	1146a793          	slti	x15,x13,276
    80001b14:	036ba2b3          	mulhsu	x5,x23,x22
    80001b18:	43055113          	srai	x2,x10,0x30
    80001b1c:	02868bb3          	mul	x23,x13,x8
    80001b20:	34248837          	lui	x16,0x34248
    80001b24:	02c3ffb3          	remu	x31,x7,x12
    80001b28:	018c053b          	addw	x10,x24,x24
    80001b2c:	03df4abb          	divw	x21,x30,x29
    80001b30:	00df1d13          	slli	x26,x30,0xd
    80001b34:	02c756b3          	divu	x13,x14,x12
    80001b38:	5e3fbf13          	sltiu	x30,x31,1507
    80001b3c:	032be633          	rem	x12,x23,x18
    80001b40:	6a47cdb7          	lui	x27,0x6a47c
    80001b44:	03c69d33          	mulh	x26,x13,x28
    80001b48:	54e0b313          	sltiu	x6,x1,1358
    80001b4c:	0356ff3b          	remuw	x30,x13,x21
    80001b50:	0a8a2d93          	slti	x27,x20,168
    80001b54:	02c2d233          	divu	x4,x5,x12
    80001b58:	99a00597          	auipc	x11,0x99a00
    80001b5c:	02f6753b          	remuw	x10,x12,x15
    80001b60:	005c48b3          	xor	x17,x24,x5
    80001b64:	02f2583b          	divuw	x16,x4,x15
    80001b68:	0035d633          	srl	x12,x11,x3
    80001b6c:	024c8fb3          	mul	x31,x25,x4
    80001b70:	006b853b          	addw	x10,x23,x6
    80001b74:	02d49c33          	mulh	x24,x9,x13
    80001b78:	00fb81b3          	add	x3,x23,x15
    80001b7c:	036f59bb          	divuw	x19,x30,x22
    80001b80:	0107e033          	or	x0,x15,x16
    80001b84:	028214b3          	mulh	x9,x4,x8
    80001b88:	00cb1e1b          	slliw	x28,x22,0xc
    80001b8c:	02b0d6b3          	divu	x13,x1,x11
    80001b90:	000bff33          	and	x30,x23,x0
    80001b94:	02b0da33          	divu	x20,x1,x11
    80001b98:	037c9113          	slli	x2,x25,0x37
    80001b9c:	025c0fbb          	mulw	x31,x24,x5
    80001ba0:	01792833          	slt	x16,x18,x23
    80001ba4:	02c055bb          	divuw	x11,x0,x12
    80001ba8:	0068a793          	slti	x15,x17,6
    80001bac:	0380b9b3          	mulhu	x19,x1,x24
    80001bb0:	01071193          	slli	x3,x14,0x10
    80001bb4:	02aafab3          	remu	x21,x21,x10
    80001bb8:	41ef003b          	subw	x0,x30,x30
    80001bbc:	028a013b          	mulw	x2,x20,x8
    80001bc0:	2c48039b          	addiw	x7,x16,708 # 342482c4 <_start-0x4bdb7d3c>
    80001bc4:	0330f4b3          	remu	x9,x1,x19
    80001bc8:	43efd913          	srai	x18,x31,0x3e
    80001bcc:	037ee533          	rem	x10,x29,x23
    80001bd0:	32e0db17          	auipc	x22,0x32e0d
    80001bd4:	038a72bb          	remuw	x5,x20,x24
    80001bd8:	4100dbb3          	sra	x23,x1,x16
    80001bdc:	02987fb3          	remu	x31,x16,x9
    80001be0:	17e7ad37          	lui	x26,0x17e7a
    80001be4:	02ac0c33          	mul	x24,x24,x10
    80001be8:	0bd17397          	auipc	x7,0xbd17
    80001bec:	03330abb          	mulw	x21,x6,x19
    80001bf0:	4ff6ccb7          	lui	x25,0x4ff6c
    80001bf4:	0329753b          	remuw	x10,x18,x18
    80001bf8:	014f4733          	xor	x14,x30,x20
    80001bfc:	02d41c33          	mulh	x24,x8,x13
    80001c00:	64262a93          	slti	x21,x12,1602
    80001c04:	037e2db3          	mulhsu	x27,x28,x23
    80001c08:	35780f97          	auipc	x31,0x35780
    80001c0c:	03a5c6b3          	div	x13,x11,x26
    80001c10:	d2ae1597          	auipc	x11,0xd2ae1
    80001c14:	0260543b          	divuw	x8,x0,x6
    80001c18:	2f583317          	auipc	x6,0x2f583
    80001c1c:	03e7d033          	divu	x0,x15,x30
    80001c20:	d9a88ab7          	lui	x21,0xd9a88
    80001c24:	03fbbbb3          	mulhu	x23,x23,x31
    80001c28:	40ec5b33          	sra	x22,x24,x14
    80001c2c:	026051b3          	divu	x3,x0,x6
    80001c30:	00a3f133          	and	x2,x7,x10
    80001c34:	02939433          	mulh	x8,x7,x9
    80001c38:	41785db3          	sra	x27,x16,x23
    80001c3c:	03dfd5b3          	divu	x11,x31,x29
    80001c40:	7d194b13          	xori	x22,x18,2001
    80001c44:	03020d33          	mul	x26,x4,x16
    80001c48:	00901133          	sll	x2,x0,x9
    80001c4c:	0274fcb3          	remu	x25,x9,x7
    80001c50:	01eab2b3          	sltu	x5,x21,x30
    80001c54:	0265d63b          	divuw	x12,x11,x6
    80001c58:	4127559b          	sraiw	x11,x14,0x12
    80001c5c:	03e958b3          	divu	x17,x18,x30
    80001c60:	e865bb37          	lui	x22,0xe865b
    80001c64:	02edb433          	mulhu	x8,x27,x14
    80001c68:	0018573b          	srlw	x14,x16,x1
    80001c6c:	03ee5fb3          	divu	x31,x28,x30
    80001c70:	19133b17          	auipc	x22,0x19133
    80001c74:	0355d833          	divu	x16,x11,x21
    80001c78:	00212f33          	slt	x30,x2,x2
    80001c7c:	02996ebb          	remw	x29,x18,x9
    80001c80:	40da54bb          	sraw	x9,x20,x13
    80001c84:	035adfb3          	divu	x31,x21,x21
    80001c88:	e4d02637          	lui	x12,0xe4d02
    80001c8c:	0219d7bb          	divuw	x15,x19,x1
    80001c90:	0352bb17          	auipc	x22,0x352b
    80001c94:	020fddb3          	divu	x27,x31,x0
    80001c98:	00da28b3          	slt	x17,x20,x13
    80001c9c:	021c3bb3          	mulhu	x23,x24,x1
    80001ca0:	6f564a37          	lui	x20,0x6f564
    80001ca4:	02c851bb          	divuw	x3,x16,x12
    80001ca8:	4284d093          	srai	x1,x9,0x28
    80001cac:	03885133          	divu	x2,x16,x24
    80001cb0:	015993bb          	sllw	x7,x19,x21
    80001cb4:	03cb8b33          	mul	x22,x23,x28
    80001cb8:	011517b3          	sll	x15,x10,x17
    80001cbc:	033d4ab3          	div	x21,x26,x19
    80001cc0:	0072e4b3          	or	x9,x5,x7
    80001cc4:	027d38b3          	mulhu	x17,x26,x7
    80001cc8:	416ed41b          	sraiw	x8,x29,0x16
    80001ccc:	02ccbab3          	mulhu	x21,x25,x12
    80001cd0:	3036ae13          	slti	x28,x13,771
    80001cd4:	034ef33b          	remuw	x6,x29,x20
    80001cd8:	01e6eeb3          	or	x29,x13,x30
    80001cdc:	02aba833          	mulhsu	x16,x23,x10
    80001ce0:	41a18cb3          	sub	x25,x3,x26
    80001ce4:	020364bb          	remw	x9,x6,x0
    80001ce8:	48e7f113          	andi	x2,x15,1166
    80001cec:	02a748b3          	div	x17,x14,x10
    80001cf0:	00669a1b          	slliw	x20,x13,0x6
    80001cf4:	02c6d5bb          	divuw	x11,x13,x12
    80001cf8:	412fdd93          	srai	x27,x31,0x12
    80001cfc:	03eac83b          	divw	x16,x21,x30
    80001d00:	40c956bb          	sraw	x13,x18,x12
    80001d04:	0249f43b          	remuw	x8,x19,x4
    80001d08:	00414e33          	xor	x28,x2,x4
    80001d0c:	038094b3          	mulh	x9,x1,x24
    80001d10:	00d96b33          	or	x22,x18,x13
    80001d14:	02c966bb          	remw	x13,x18,x12
    80001d18:	41cd0cb3          	sub	x25,x26,x28
    80001d1c:	03a98c3b          	mulw	x24,x19,x26
    80001d20:	67b93db7          	lui	x27,0x67b93
    80001d24:	02068e3b          	mulw	x28,x13,x0
    80001d28:	7cf76917          	auipc	x18,0x7cf76
    80001d2c:	02af1133          	mulh	x2,x30,x10
    80001d30:	6dc47b17          	auipc	x22,0x6dc47
    80001d34:	037377b3          	remu	x15,x6,x23
    80001d38:	414a5c3b          	sraw	x24,x20,x20
    80001d3c:	030948b3          	div	x17,x18,x16
    80001d40:	00f34eb7          	lui	x29,0xf34
    80001d44:	02e5dd33          	divu	x26,x11,x14
    80001d48:	4080d413          	srai	x8,x1,0x8
    80001d4c:	03cdf2b3          	remu	x5,x27,x28
    80001d50:	4df2eb17          	auipc	x22,0x4df2e
    80001d54:	03812a33          	mulhsu	x20,x2,x24
    80001d58:	414cdc13          	srai	x24,x25,0x14
    80001d5c:	03c1f0b3          	remu	x1,x3,x28
    80001d60:	00e58dbb          	addw	x27,x11,x14
    80001d64:	03d25433          	divu	x8,x4,x29
    80001d68:	2d9fcc97          	auipc	x25,0x2d9fc
    80001d6c:	033bca3b          	divw	x20,x23,x19
    80001d70:	aeac3017          	auipc	x0,0xaeac3
    80001d74:	0372083b          	mulw	x16,x4,x23
    80001d78:	41a9de3b          	sraw	x28,x19,x26
    80001d7c:	024fcf33          	div	x30,x31,x4
    80001d80:	019095bb          	sllw	x11,x1,x25
    80001d84:	03a2ccbb          	divw	x25,x5,x26
    80001d88:	f4804537          	lui	x10,0xf4804
    80001d8c:	02ceb733          	mulhu	x14,x29,x12
    80001d90:	01d9dc3b          	srlw	x24,x19,x29
    80001d94:	03458633          	mul	x12,x11,x20
    80001d98:	d5300837          	lui	x16,0xd5300
    80001d9c:	034e4d3b          	divw	x26,x28,x20
    80001da0:	f4bb2717          	auipc	x14,0xf4bb2
    80001da4:	0218b2b3          	mulhu	x5,x17,x1
    80001da8:	feff0893          	addi	x17,x30,-17 # ffffffffde621fef <_start+0xffffffff5e621fef>
    80001dac:	033321b3          	mulhsu	x3,x6,x19
    80001db0:	00721d1b          	slliw	x26,x4,0x7
    80001db4:	03f963b3          	rem	x7,x18,x31
    80001db8:	1d133713          	sltiu	x14,x6,465
    80001dbc:	0325ef33          	rem	x30,x11,x18
    80001dc0:	0070981b          	slliw	x16,x1,0x7
    80001dc4:	02391333          	mulh	x6,x18,x3
    80001dc8:	40a15c13          	srai	x24,x2,0xa
    80001dcc:	02f482b3          	mul	x5,x9,x15
    80001dd0:	0175b233          	sltu	x4,x11,x23
    80001dd4:	034a4eb3          	div	x29,x20,x20
    80001dd8:	01a56633          	or	x12,x10,x26
    80001ddc:	031b2cb3          	mulhsu	x25,x22,x17
    80001de0:	3bb37b13          	andi	x22,x6,955
    80001de4:	02da2d33          	mulhsu	x26,x20,x13
    80001de8:	5d3dd097          	auipc	x1,0x5d3dd
    80001dec:	02a04e3b          	divw	x28,x0,x10
    80001df0:	24f10713          	addi	x14,x2,591 # ffffffffc036e24f <_start+0xffffffff4036e24f>
    80001df4:	0371b533          	mulhu	x10,x3,x23
    80001df8:	5f880a13          	addi	x20,x16,1528 # ffffffffd53005f8 <_start+0xffffffff553005f8>
    80001dfc:	0268ec33          	rem	x24,x17,x6
    80001e00:	b4f4bcb7          	lui	x25,0xb4f4b
    80001e04:	033576b3          	remu	x13,x10,x19
    80001e08:	007f109b          	slliw	x1,x30,0x7
    80001e0c:	0308cabb          	divw	x21,x17,x16
    80001e10:	00085f1b          	srliw	x30,x16,0x0
    80001e14:	02814433          	div	x8,x2,x8
    80001e18:	10f69d17          	auipc	x26,0x10f69
    80001e1c:	026be633          	rem	x12,x23,x6
    80001e20:	19904593          	xori	x11,x0,409
    80001e24:	03c38133          	mul	x2,x7,x28
    80001e28:	c87a1a37          	lui	x20,0xc87a1
    80001e2c:	03c3cbb3          	div	x23,x7,x28
    80001e30:	01c7d793          	srli	x15,x15,0x1c
    80001e34:	031dc13b          	divw	x2,x27,x17
    80001e38:	01c24cb3          	xor	x25,x4,x28
    80001e3c:	026a5eb3          	divu	x29,x20,x6
    80001e40:	01bbd49b          	srliw	x9,x23,0x1b
    80001e44:	02324333          	div	x6,x4,x3
    80001e48:	00b3eb33          	or	x22,x7,x11
    80001e4c:	03e0ce33          	div	x28,x1,x30
    80001e50:	41f83913          	sltiu	x18,x16,1055
    80001e54:	0231623b          	remw	x4,x2,x3
    80001e58:	3774089b          	addiw	x17,x8,887
    80001e5c:	0303a7b3          	mulhsu	x15,x7,x16
    80001e60:	00cf21b3          	slt	x3,x30,x12
    80001e64:	02036a33          	rem	x20,x6,x0
    80001e68:	43395ab7          	lui	x21,0x43395
    80001e6c:	03a666bb          	remw	x13,x12,x26
    80001e70:	019f3333          	sltu	x6,x30,x25
    80001e74:	03643633          	mulhu	x12,x8,x22
    80001e78:	d3b36db7          	lui	x27,0xd3b36
    80001e7c:	030ecbbb          	divw	x23,x29,x16
    80001e80:	42835513          	srai	x10,x6,0x28
    80001e84:	03d5a033          	mulhsu	x0,x11,x29
    80001e88:	ce0ca9b7          	lui	x19,0xce0ca
    80001e8c:	026a4ab3          	div	x21,x20,x6
    80001e90:	0078109b          	slliw	x1,x16,0x7
    80001e94:	02f3ecbb          	remw	x25,x7,x15
    80001e98:	03ab0517          	auipc	x10,0x3ab0
    80001e9c:	0296eabb          	remw	x21,x13,x9
    80001ea0:	400a0033          	sub	x0,x20,x0
    80001ea4:	02517fb3          	remu	x31,x2,x5
    80001ea8:	11850493          	addi	x9,x10,280 # 83ab1fb0 <_start+0x3ab1fb0>
    80001eac:	02819e33          	mulh	x28,x3,x8
    80001eb0:	01bd10b3          	sll	x1,x26,x27
    80001eb4:	0356563b          	divuw	x12,x12,x21
    80001eb8:	01d9a033          	slt	x0,x19,x29
    80001ebc:	032d5b3b          	divuw	x22,x26,x18
    80001ec0:	01e5573b          	srlw	x14,x10,x30
    80001ec4:	02c440bb          	divw	x1,x8,x12
    80001ec8:	d6dae317          	auipc	x6,0xd6dae
    80001ecc:	03c137b3          	mulhu	x15,x2,x28
    80001ed0:	354def93          	ori	x31,x27,852
    80001ed4:	020ac233          	div	x4,x21,x0
    80001ed8:	40848e3b          	subw	x28,x9,x8
    80001edc:	026a00b3          	mul	x1,x20,x6
    80001ee0:	01d32ab3          	slt	x21,x6,x29
    80001ee4:	039a3eb3          	mulhu	x29,x20,x25
    80001ee8:	c85b3b17          	auipc	x22,0xc85b3
    80001eec:	022d0c3b          	mulw	x24,x26,x2
    80001ef0:	008423b3          	slt	x7,x8,x8
    80001ef4:	03360f33          	mul	x30,x12,x19
    80001ef8:	9d36b417          	auipc	x8,0x9d36b
    80001efc:	02be5933          	divu	x18,x28,x11
    80001f00:	395b2817          	auipc	x16,0x395b2
    80001f04:	0267613b          	remw	x2,x14,x6
    80001f08:	018ecc33          	xor	x24,x29,x24
    80001f0c:	02cf34b3          	mulhu	x9,x30,x12
    80001f10:	010b3833          	sltu	x16,x22,x16
    80001f14:	02edeabb          	remw	x21,x27,x14
    80001f18:	4157d99b          	sraiw	x19,x15,0x15
    80001f1c:	03631d33          	mulh	x26,x6,x22
    80001f20:	35eff917          	auipc	x18,0x35eff
    80001f24:	037100b3          	mul	x1,x2,x23
    80001f28:	41345e33          	sra	x28,x8,x19
    80001f2c:	0315eb33          	rem	x22,x11,x17
    80001f30:	7d752813          	slti	x16,x10,2007
    80001f34:	0290ffb3          	remu	x31,x1,x9
    80001f38:	00fed933          	srl	x18,x29,x15
    80001f3c:	0247dab3          	divu	x21,x15,x4
    80001f40:	001b33b3          	sltu	x7,x22,x1
    80001f44:	02847a33          	remu	x20,x8,x8
    80001f48:	00a0ec33          	or	x24,x1,x10
    80001f4c:	02e596b3          	mulh	x13,x11,x14
    80001f50:	c47f89b7          	lui	x19,0xc47f8
    80001f54:	02577233          	remu	x4,x14,x5
    80001f58:	72d80613          	addi	x12,x16,1837 # b95b462d <_start+0x395b462d>
    80001f5c:	02959c33          	mulh	x24,x11,x9
    80001f60:	00accd33          	xor	x26,x25,x10
    80001f64:	02988333          	mul	x6,x17,x9
    80001f68:	eae17137          	lui	x2,0xeae17
    80001f6c:	039899b3          	mulh	x19,x17,x25
    80001f70:	355245b7          	lui	x11,0x35524
    80001f74:	02d403b3          	mul	x7,x8,x13
    80001f78:	40d2df3b          	sraw	x30,x5,x13
    80001f7c:	02a4763b          	remuw	x12,x8,x10
    80001f80:	003d191b          	slliw	x18,x26,0x3
    80001f84:	029456bb          	divuw	x13,x8,x9
    80001f88:	1d82d117          	auipc	x2,0x1d82d
    80001f8c:	025e8ab3          	mul	x21,x29,x5
    80001f90:	4109d013          	srai	x0,x19,0x10
    80001f94:	02bb4ebb          	divw	x29,x22,x11
    80001f98:	0109c333          	xor	x6,x19,x16
    80001f9c:	03588b33          	mul	x22,x17,x21
    80001fa0:	b7126bb7          	lui	x23,0xb7126
    80001fa4:	03d39e33          	mulh	x28,x7,x29
    80001fa8:	78b43213          	sltiu	x4,x8,1931
    80001fac:	027547b3          	div	x15,x10,x7
    80001fb0:	ec7532b7          	lui	x5,0xec753
    80001fb4:	027ffe33          	remu	x28,x31,x7
    80001fb8:	00d76d33          	or	x26,x14,x13
    80001fbc:	035643b3          	div	x7,x12,x21
    80001fc0:	43c9db17          	auipc	x22,0x43c9d
    80001fc4:	02f6e73b          	remw	x14,x13,x15
    80001fc8:	1a11efb7          	lui	x31,0x1a11e
    80001fcc:	0398c9b3          	div	x19,x17,x25
    80001fd0:	003a181b          	slliw	x16,x20,0x3
    80001fd4:	025aeab3          	rem	x21,x21,x5
    80001fd8:	2ba40b13          	addi	x22,x8,698 # 1d36d1b2 <_start-0x62c92e4e>
    80001fdc:	02809eb3          	mulh	x29,x1,x8
    80001fe0:	9935cc37          	lui	x24,0x9935c
    80001fe4:	02d661b3          	rem	x3,x12,x13
    80001fe8:	01738d3b          	addw	x26,x7,x23
    80001fec:	03e3743b          	remuw	x8,x6,x30
    80001ff0:	00efaeb3          	slt	x29,x31,x14
    80001ff4:	0327de33          	divu	x28,x15,x18
    80001ff8:	0039cdb3          	xor	x27,x19,x3
    80001ffc:	02e4ec3b          	remw	x24,x9,x14
    80002000:	01a251bb          	srlw	x3,x4,x26
    80002004:	03544933          	div	x18,x8,x21
    80002008:	00eb8dbb          	addw	x27,x23,x14
    8000200c:	022d45bb          	divw	x11,x26,x2
    80002010:	3943d017          	auipc	x0,0x3943d
    80002014:	029ba2b3          	mulhsu	x5,x23,x9
    80002018:	7a8fae37          	lui	x28,0x7a8fa
    8000201c:	037626b3          	mulhsu	x13,x12,x23
    80002020:	008d6f33          	or	x30,x26,x8
    80002024:	031ec0bb          	divw	x1,x29,x17
    80002028:	01c8e9b3          	or	x19,x17,x28
    8000202c:	0306d333          	divu	x6,x13,x16
    80002030:	e5144eb7          	lui	x29,0xe5144
    80002034:	02ac06bb          	mulw	x13,x24,x10
    80002038:	751ca913          	slti	x18,x25,1873
    8000203c:	03eaf73b          	remuw	x14,x21,x30
    80002040:	00317533          	and	x10,x2,x3
    80002044:	03dbf23b          	remuw	x4,x23,x29
    80002048:	00735a13          	srli	x20,x6,0x7
    8000204c:	03a97333          	remu	x6,x18,x26
    80002050:	79dfe037          	lui	x0,0x79dfe
    80002054:	022b2433          	mulhsu	x8,x22,x2
    80002058:	f6508d97          	auipc	x27,0xf6508
    8000205c:	03464e33          	div	x28,x12,x20
    80002060:	9ae6b117          	auipc	x2,0x9ae6b
    80002064:	023fd6bb          	divuw	x13,x31,x3
    80002068:	016a98bb          	sllw	x17,x21,x22
    8000206c:	03c65ab3          	divu	x21,x12,x28
    80002070:	3d9d9d37          	lui	x26,0x3d9d9
    80002074:	0322503b          	divuw	x0,x4,x18
    80002078:	008f8e3b          	addw	x28,x31,x8
    8000207c:	024901b3          	mul	x3,x18,x4
    80002080:	00b777b3          	and	x15,x14,x11
    80002084:	03a0d8b3          	divu	x17,x1,x26
    80002088:	6885ec93          	ori	x25,x11,1672
    8000208c:	02157f3b          	remuw	x30,x10,x1
    80002090:	21152093          	slti	x1,x10,529
    80002094:	02afe13b          	remw	x2,x31,x10
    80002098:	01bf953b          	sllw	x10,x31,x27
    8000209c:	03ae4f3b          	divw	x30,x28,x26
    800020a0:	014d991b          	slliw	x18,x27,0x14
    800020a4:	026e033b          	mulw	x6,x28,x6
    800020a8:	5f2f879b          	addiw	x15,x31,1522 # 1a11e5f2 <_start-0x65ee1a0e>
    800020ac:	0291623b          	remw	x4,x2,x9
    800020b0:	40ed5d3b          	sraw	x26,x26,x14
    800020b4:	02a5dbb3          	divu	x23,x11,x10
    800020b8:	41f5d73b          	sraw	x14,x11,x31
    800020bc:	03537abb          	remuw	x21,x6,x21
    800020c0:	41bfdd9b          	sraiw	x27,x31,0x1b
    800020c4:	02412533          	mulhsu	x10,x2,x4
    800020c8:	42785213          	srai	x4,x16,0x27
    800020cc:	038840bb          	divw	x1,x16,x24
    800020d0:	c69fabb7          	lui	x23,0xc69fa
    800020d4:	035f1ab3          	mulh	x21,x30,x21
    800020d8:	02975b13          	srli	x22,x14,0x29
    800020dc:	03d083bb          	mulw	x7,x1,x29
    800020e0:	2396ea13          	ori	x20,x13,569
    800020e4:	03cbb433          	mulhu	x8,x23,x28
    800020e8:	41eb0f3b          	subw	x30,x22,x30
    800020ec:	025d0ebb          	mulw	x29,x26,x5
    800020f0:	00fc109b          	slliw	x1,x24,0xf
    800020f4:	028019b3          	mulh	x19,x0,x8
    800020f8:	402b01b3          	sub	x3,x22,x2
    800020fc:	028334b3          	mulhu	x9,x6,x8
    80002100:	d111b917          	auipc	x18,0xd111b
    80002104:	022a96b3          	mulh	x13,x21,x2
    80002108:	a6dff197          	auipc	x3,0xa6dff
    8000210c:	02a08133          	mul	x2,x1,x10
    80002110:	56ea9e37          	lui	x28,0x56ea9
    80002114:	02b696b3          	mulh	x13,x13,x11
    80002118:	0187db93          	srli	x23,x15,0x18
    8000211c:	0223dcbb          	divuw	x25,x7,x2
    80002120:	03a81293          	slli	x5,x16,0x3a
    80002124:	02688c3b          	mulw	x24,x17,x6
    80002128:	0011df9b          	srliw	x31,x3,0x1
    8000212c:	03e3f233          	remu	x4,x7,x30
    80002130:	82d67137          	lui	x2,0x82d67
    80002134:	02c5733b          	remuw	x6,x10,x12
    80002138:	c8ee6d37          	lui	x26,0xc8ee6
    8000213c:	02bce03b          	remw	x0,x25,x11
    80002140:	40f5dc3b          	sraw	x24,x11,x15
    80002144:	037845bb          	divw	x11,x16,x23
    80002148:	08c3af37          	lui	x30,0x8c3a
    8000214c:	02327cb3          	remu	x25,x4,x3
    80002150:	00740333          	add	x6,x8,x7
    80002154:	02889ab3          	mulh	x21,x17,x8
    80002158:	00e568b3          	or	x17,x10,x14
    8000215c:	02fece33          	div	x28,x29,x15
    80002160:	013caa33          	slt	x20,x25,x19
    80002164:	03736333          	rem	x6,x6,x23
    80002168:	00a6539b          	srliw	x7,x12,0xa
    8000216c:	02144e33          	div	x28,x8,x1
    80002170:	41378fbb          	subw	x31,x15,x19
    80002174:	02a25333          	divu	x6,x4,x10
    80002178:	0b85b093          	sltiu	x1,x11,184
    8000217c:	0321ab33          	mulhsu	x22,x3,x18
    80002180:	1d112d13          	slti	x26,x2,465
    80002184:	034f26b3          	mulhsu	x13,x30,x20
    80002188:	347247b7          	lui	x15,0x34724
    8000218c:	035cbab3          	mulhu	x21,x25,x21
    80002190:	007e3033          	sltu	x0,x28,x7
    80002194:	030a20b3          	mulhsu	x1,x20,x16
    80002198:	5cc2bf97          	auipc	x31,0x5cc2b
    8000219c:	03e70abb          	mulw	x21,x14,x30
    800021a0:	3d1c5337          	lui	x6,0x3d1c5
    800021a4:	0248023b          	mulw	x4,x16,x4
    800021a8:	3635809b          	addiw	x1,x11,867 # 35524363 <_start-0x4aadbc9d>
    800021ac:	031595b3          	mulh	x11,x11,x17
    800021b0:	df8f5537          	lui	x10,0xdf8f5
    800021b4:	0288f633          	remu	x12,x17,x8
    800021b8:	0101b833          	sltu	x16,x3,x16
    800021bc:	03a1e333          	rem	x6,x3,x26
    800021c0:	0a246fb7          	lui	x31,0xa246
    800021c4:	02010bbb          	mulw	x23,x2,x0
    800021c8:	4183863b          	subw	x12,x7,x24
    800021cc:	02373533          	mulhu	x10,x14,x3
    800021d0:	01b8df9b          	srliw	x31,x17,0x1b
    800021d4:	03574433          	div	x8,x14,x21
    800021d8:	4f024a17          	auipc	x20,0x4f024
    800021dc:	0220523b          	divuw	x4,x0,x2
    800021e0:	5bdf0613          	addi	x12,x30,1469 # 8c3a5bd <_start-0x773c5a43>
    800021e4:	02fe883b          	mulw	x16,x29,x15
    800021e8:	03169093          	slli	x1,x13,0x31
    800021ec:	0358dc3b          	divuw	x24,x17,x21
    800021f0:	41d48a3b          	subw	x20,x9,x29
    800021f4:	036249bb          	divw	x19,x4,x22
    800021f8:	663b6293          	ori	x5,x22,1635
    800021fc:	035bc233          	div	x4,x23,x21
    80002200:	6dd5e793          	ori	x15,x11,1757
    80002204:	0289403b          	divw	x0,x18,x8
    80002208:	008e55bb          	srlw	x11,x28,x8
    8000220c:	038b0db3          	mul	x27,x22,x24
    80002210:	0197f233          	and	x4,x15,x25
    80002214:	02ecf6bb          	remuw	x13,x25,x14
    80002218:	6ba3ee97          	auipc	x29,0x6ba3e
    8000221c:	02105fb3          	divu	x31,x0,x1
    80002220:	696b889b          	addiw	x17,x23,1686 # ffffffffc69fa696 <_start+0xffffffff469fa696>
    80002224:	035516b3          	mulh	x13,x10,x21
    80002228:	57ac7513          	andi	x10,x24,1402
    8000222c:	02b5d233          	divu	x4,x11,x11
    80002230:	44de6613          	ori	x12,x28,1101
    80002234:	025fd5bb          	divuw	x11,x31,x5
    80002238:	3588b417          	auipc	x8,0x3588b
    8000223c:	0314bfb3          	mulhu	x31,x9,x17
    80002240:	40add23b          	sraw	x4,x27,x10
    80002244:	0200a533          	mulhsu	x10,x1,x0
    80002248:	1c7bf613          	andi	x12,x23,455
    8000224c:	021be8bb          	remw	x17,x23,x1
    80002250:	6ec60937          	lui	x18,0x6ec60
    80002254:	02313533          	mulhu	x10,x2,x3
    80002258:	9c375797          	auipc	x15,0x9c375
    8000225c:	02cd6e33          	rem	x28,x26,x12
    80002260:	01a132b3          	sltu	x5,x2,x26
    80002264:	02969233          	mulh	x4,x13,x9
    80002268:	425c5a13          	srai	x20,x24,0x25
    8000226c:	031c83bb          	mulw	x7,x25,x17
    80002270:	8c1856b7          	lui	x13,0x8c185
    80002274:	03decfb3          	div	x31,x29,x29
    80002278:	6f3804b7          	lui	x9,0x6f380
    8000227c:	02ed1533          	mulh	x10,x26,x14
    80002280:	30cfc817          	auipc	x16,0x30cfc
    80002284:	03eed13b          	divuw	x2,x29,x30
    80002288:	0078e333          	or	x6,x17,x7
    8000228c:	02adc6bb          	divw	x13,x27,x10
    80002290:	5cd03e13          	sltiu	x28,x0,1485
    80002294:	03abf533          	remu	x10,x23,x26
    80002298:	01fb7c33          	and	x24,x22,x31
    8000229c:	020b52b3          	divu	x5,x22,x0
    800022a0:	01007333          	and	x6,x0,x16
    800022a4:	023f7fb3          	remu	x31,x30,x3
    800022a8:	2a234d17          	auipc	x26,0x2a234
    800022ac:	037b07b3          	mul	x15,x22,x23
    800022b0:	417b7437          	lui	x8,0x417b7
    800022b4:	022848bb          	divw	x17,x16,x2
    800022b8:	00ecd63b          	srlw	x12,x25,x14
    800022bc:	0329053b          	mulw	x10,x18,x18
    800022c0:	9e440a97          	auipc	x21,0x9e440
    800022c4:	022191b3          	mulh	x3,x3,x2
    800022c8:	0048579b          	srliw	x15,x16,0x4
    800022cc:	037ec83b          	divw	x16,x29,x23
    800022d0:	4342d313          	srai	x6,x5,0x34
    800022d4:	02558c3b          	mulw	x24,x11,x5
    800022d8:	011402bb          	addw	x5,x8,x17
    800022dc:	02d1e3b3          	rem	x7,x3,x13
    800022e0:	013cd193          	srli	x3,x25,0x13
    800022e4:	03e0ddb3          	divu	x27,x1,x30
    800022e8:	41c585b3          	sub	x11,x11,x28
    800022ec:	037a4333          	div	x6,x20,x23
    800022f0:	002c1893          	slli	x17,x24,0x2
    800022f4:	02edcbb3          	div	x23,x27,x14
    800022f8:	41360533          	sub	x10,x12,x19
    800022fc:	029486bb          	mulw	x13,x9,x9
    80002300:	0253dc93          	srli	x25,x7,0x25
    80002304:	03c3f033          	remu	x0,x7,x28
    80002308:	6b15a093          	slti	x1,x11,1713
    8000230c:	0251a5b3          	mulhsu	x11,x3,x5
    80002310:	4d4ee893          	ori	x17,x29,1236
    80002314:	0297e2bb          	remw	x5,x15,x9
    80002318:	d7fdc797          	auipc	x15,0xd7fdc
    8000231c:	02a9ce3b          	divw	x28,x19,x10
    80002320:	008718bb          	sllw	x17,x14,x8
    80002324:	0372eb3b          	remw	x22,x5,x23
    80002328:	31e40217          	auipc	x4,0x31e40
    8000232c:	0292c33b          	divw	x6,x5,x9
    80002330:	a2338197          	auipc	x3,0xa2338
    80002334:	02249033          	mulh	x0,x9,x2
    80002338:	4029d6b3          	sra	x13,x19,x2
    8000233c:	032bcb33          	div	x22,x23,x18
    80002340:	8393d337          	lui	x6,0x8393d
    80002344:	0283dcbb          	divuw	x25,x7,x8
    80002348:	001e82bb          	addw	x5,x29,x1
    8000234c:	03f40033          	mul	x0,x8,x31
    80002350:	01f15b9b          	srliw	x23,x2,0x1f
    80002354:	032415b3          	mulh	x11,x8,x18
    80002358:	7b290317          	auipc	x6,0x7b290
    8000235c:	033ce93b          	remw	x18,x25,x19
    80002360:	40e852bb          	sraw	x5,x16,x14
    80002364:	0330beb3          	mulhu	x29,x1,x19
    80002368:	018a1733          	sll	x14,x20,x24
    8000236c:	0357f233          	remu	x4,x15,x21
    80002370:	017fbf33          	sltu	x30,x31,x23
    80002374:	03ca1333          	mulh	x6,x20,x28
    80002378:	67f3fa93          	andi	x21,x7,1663
    8000237c:	02ea5b33          	divu	x22,x20,x14
    80002380:	40d3853b          	subw	x10,x7,x13
    80002384:	031769b3          	rem	x19,x14,x17
    80002388:	0027ed33          	or	x26,x15,x2
    8000238c:	034b8bb3          	mul	x23,x23,x20
    80002390:	ac6f5537          	lui	x10,0xac6f5
    80002394:	0305fdbb          	remuw	x27,x11,x16
    80002398:	41fd59b3          	sra	x19,x26,x31
    8000239c:	03ea4d33          	div	x26,x20,x30
    800023a0:	402e80b3          	sub	x1,x29,x2
    800023a4:	026ee53b          	remw	x10,x29,x6
    800023a8:	2cdb4bb7          	lui	x23,0x2cdb4
    800023ac:	02239a33          	mulh	x20,x7,x2
    800023b0:	2b3dc417          	auipc	x8,0x2b3dc
    800023b4:	02008abb          	mulw	x21,x1,x0
    800023b8:	0023cc33          	xor	x24,x7,x2
    800023bc:	03bce233          	rem	x4,x25,x27
    800023c0:	40cf5a33          	sra	x20,x30,x12
    800023c4:	028e13b3          	mulh	x7,x28,x8
    800023c8:	72375f37          	lui	x30,0x72375
    800023cc:	025f87bb          	mulw	x15,x31,x5
    800023d0:	474b2417          	auipc	x8,0x474b2
    800023d4:	03f89533          	mulh	x10,x17,x31
    800023d8:	01f0dcb3          	srl	x25,x1,x31
    800023dc:	03d7e333          	rem	x6,x15,x29
    800023e0:	c5a67e37          	lui	x28,0xc5a67
    800023e4:	020d8933          	mul	x18,x27,x0
    800023e8:	00ca69b3          	or	x19,x20,x12
    800023ec:	02220d33          	mul	x26,x4,x2
    800023f0:	418c03b3          	sub	x7,x24,x24
    800023f4:	026626b3          	mulhsu	x13,x12,x6
    800023f8:	012c1313          	slli	x6,x24,0x12
    800023fc:	036964bb          	remw	x9,x18,x22
    80002400:	50a99717          	auipc	x14,0x50a99
    80002404:	02ad6ebb          	remw	x29,x26,x10
    80002408:	7a252617          	auipc	x12,0x7a252
    8000240c:	02f33c33          	mulhu	x24,x6,x15
    80002410:	0096d233          	srl	x4,x13,x9
    80002414:	027ffebb          	remuw	x29,x31,x7
    80002418:	55cb0593          	addi	x11,x22,1372 # c3c9f51c <_start+0x43c9f51c>
    8000241c:	037f5abb          	divuw	x21,x30,x23
    80002420:	7b5e6313          	ori	x6,x28,1973
    80002424:	0390abb3          	mulhsu	x23,x1,x25
    80002428:	42f3de93          	srai	x29,x7,0x2f
    8000242c:	03147733          	remu	x14,x8,x17
    80002430:	41ee529b          	sraiw	x5,x28,0x1e
    80002434:	024e0abb          	mulw	x21,x28,x4
    80002438:	00d08b33          	add	x22,x1,x13
    8000243c:	03dea0b3          	mulhsu	x1,x29,x29
    80002440:	00d6999b          	slliw	x19,x13,0xd
    80002444:	02ddf033          	remu	x0,x27,x13
    80002448:	010532b3          	sltu	x5,x10,x16
    8000244c:	02cd8eb3          	mul	x29,x27,x12
    80002450:	465b58b7          	lui	x17,0x465b5
    80002454:	035c623b          	remw	x4,x24,x21
    80002458:	1f0ce597          	auipc	x11,0x1f0ce
    8000245c:	038a93b3          	mulh	x7,x21,x24
    80002460:	40205fb3          	sra	x31,x0,x2
    80002464:	0264ed33          	rem	x26,x9,x6
    80002468:	7905f413          	andi	x8,x11,1936
    8000246c:	026906bb          	mulw	x13,x18,x6
    80002470:	03e11e93          	slli	x29,x2,0x3e
    80002474:	03007e33          	remu	x28,x0,x16
    80002478:	4db38313          	addi	x6,x7,1243 # 8bd190c3 <_start+0xbd190c3>
    8000247c:	0222c8bb          	divw	x17,x5,x2
    80002480:	58e6e697          	auipc	x13,0x58e6e
    80002484:	03c100b3          	mul	x1,x2,x28
    80002488:	00925b13          	srli	x22,x4,0x9
    8000248c:	0295b733          	mulhu	x14,x11,x9
    80002490:	41ebda9b          	sraiw	x21,x23,0x1e
    80002494:	03cd093b          	mulw	x18,x26,x28
    80002498:	01818bbb          	addw	x23,x3,x24
    8000249c:	02045db3          	divu	x27,x8,x0
    800024a0:	113ffb37          	lui	x22,0x113ff
    800024a4:	02f065b3          	rem	x11,x0,x15
    800024a8:	01a382bb          	addw	x5,x7,x26
    800024ac:	03d9633b          	remw	x6,x18,x29
    800024b0:	00ae93b3          	sll	x7,x29,x10
    800024b4:	031ed8bb          	divuw	x17,x29,x17
    800024b8:	2e7ec513          	xori	x10,x29,743
    800024bc:	028c61bb          	remw	x3,x24,x8
    800024c0:	77082493          	slti	x9,x16,1904
    800024c4:	02505bb3          	divu	x23,x0,x5
    800024c8:	09b47c93          	andi	x25,x8,155
    800024cc:	025f0433          	mul	x8,x30,x5
    800024d0:	00c487b3          	add	x15,x9,x12
    800024d4:	036b41bb          	divw	x3,x22,x22
    800024d8:	cd9fa617          	auipc	x12,0xcd9fa
    800024dc:	03d6d733          	divu	x14,x13,x29
    800024e0:	9ba2b9b7          	lui	x19,0x9ba2b
    800024e4:	03e8dcbb          	divuw	x25,x17,x30
    800024e8:	0010d33b          	srlw	x6,x1,x1
    800024ec:	02cfcf33          	div	x30,x31,x12
    800024f0:	77f98c1b          	addiw	x24,x19,1919 # ffffffff9ba2b77f <_start+0xffffffff1ba2b77f>
    800024f4:	03d446b3          	div	x13,x8,x29
    800024f8:	411d521b          	sraiw	x4,x26,0x11
    800024fc:	03f72f33          	mulhsu	x30,x14,x31
    80002500:	b1bba017          	auipc	x0,0xb1bba
    80002504:	03769a33          	mulh	x20,x13,x23
    80002508:	7222bc17          	auipc	x24,0x7222b
    8000250c:	031f6d3b          	remw	x26,x30,x17
    80002510:	29286013          	ori	x0,x16,658
    80002514:	0398dbb3          	divu	x23,x17,x25
    80002518:	3d36049b          	addiw	x9,x12,979 # 4d9fc8ab <_start-0x32603755>
    8000251c:	03e6f73b          	remuw	x14,x13,x30
    80002520:	40b58f3b          	subw	x30,x11,x11
    80002524:	02a6d7bb          	divuw	x15,x13,x10
    80002528:	006c199b          	slliw	x19,x24,0x6
    8000252c:	02a14eb3          	div	x29,x2,x10
    80002530:	f9c04fb7          	lui	x31,0xf9c04
    80002534:	02810e3b          	mulw	x28,x2,x8
    80002538:	51e43193          	sltiu	x3,x8,1310
    8000253c:	0315803b          	mulw	x0,x11,x17
    80002540:	18c8b693          	sltiu	x13,x17,396
    80002544:	0387c4bb          	divw	x9,x15,x24
    80002548:	5700e113          	ori	x2,x1,1392
    8000254c:	038f8abb          	mulw	x21,x31,x24
    80002550:	00ea1017          	auipc	x0,0xea1
    80002554:	0304c73b          	divw	x14,x9,x16
    80002558:	00a8deb3          	srl	x29,x17,x10
    8000255c:	0270a6b3          	mulhsu	x13,x1,x7
    80002560:	008b9d13          	slli	x26,x23,0x8
    80002564:	029b713b          	remuw	x2,x22,x9
    80002568:	208c7e13          	andi	x28,x24,520
    8000256c:	02726233          	rem	x4,x4,x7
    80002570:	31f43d93          	sltiu	x27,x8,799
    80002574:	022f063b          	mulw	x12,x30,x2
    80002578:	017e6bb3          	or	x23,x28,x23
    8000257c:	026c4d33          	div	x26,x24,x6
    80002580:	01de6433          	or	x8,x28,x29
    80002584:	03df9333          	mulh	x6,x31,x29
    80002588:	41ec5e33          	sra	x28,x24,x30
    8000258c:	034174b3          	remu	x9,x2,x20
    80002590:	9c97ea37          	lui	x20,0x9c97e
    80002594:	026fd2bb          	divuw	x5,x31,x6
    80002598:	43bcdb93          	srai	x23,x25,0x3b
    8000259c:	035cfd3b          	remuw	x26,x25,x21
    800025a0:	01da3633          	sltu	x12,x20,x29
    800025a4:	0396f3bb          	remuw	x7,x13,x25
    800025a8:	27ad869b          	addiw	x13,x27,634 # 7650a2d2 <_start-0x9af5d2e>
    800025ac:	03237133          	remu	x2,x6,x18
    800025b0:	d598bd17          	auipc	x26,0xd598b
    800025b4:	020cc333          	div	x6,x25,x0
    800025b8:	0030a533          	slt	x10,x1,x3
    800025bc:	021ccb3b          	divw	x22,x25,x1
    800025c0:	df73cf17          	auipc	x30,0xdf73c
    800025c4:	03facfbb          	divw	x31,x21,x31
    800025c8:	1942e337          	lui	x6,0x1942e
    800025cc:	029ed6b3          	divu	x13,x29,x9
    800025d0:	47d0de17          	auipc	x28,0x47d0d
    800025d4:	0391d233          	divu	x4,x3,x25
    800025d8:	b3bd04b7          	lui	x9,0xb3bd0
    800025dc:	02cf61b3          	rem	x3,x30,x12
    800025e0:	0137ceb3          	xor	x29,x15,x19
    800025e4:	03f6c533          	div	x10,x13,x31
    800025e8:	3042009b          	addiw	x1,x4,772 # ffffffffb1e4262c <_start+0xffffffff31e4262c>
    800025ec:	03e671b3          	remu	x3,x12,x30
    800025f0:	29b8ee13          	ori	x28,x17,667
    800025f4:	03346b33          	rem	x22,x8,x19
    800025f8:	010337b3          	sltu	x15,x6,x16
    800025fc:	0308623b          	remw	x4,x16,x16
    80002600:	415c5633          	sra	x12,x24,x21
    80002604:	039dd9bb          	divuw	x19,x27,x25
    80002608:	4f114313          	xori	x6,x2,1265
    8000260c:	036768b3          	rem	x17,x14,x22
    80002610:	40ba80bb          	subw	x1,x21,x11
    80002614:	037523b3          	mulhsu	x7,x10,x23
    80002618:	01e34ab3          	xor	x21,x6,x30
    8000261c:	024efdb3          	remu	x27,x29,x4
    80002620:	414ed633          	sra	x12,x29,x20
    80002624:	036943bb          	divw	x7,x18,x22
    80002628:	414205bb          	subw	x11,x4,x20
    8000262c:	031b0e3b          	mulw	x28,x22,x17
    80002630:	40ee8733          	sub	x14,x29,x14
    80002634:	03484533          	div	x10,x16,x20
    80002638:	00bb5dbb          	srlw	x27,x22,x11
    8000263c:	03e1e833          	rem	x16,x3,x30
    80002640:	0167d893          	srli	x17,x15,0x16
    80002644:	025cf33b          	remuw	x6,x25,x5
    80002648:	419e8bb3          	sub	x23,x29,x25
    8000264c:	03c2563b          	divuw	x12,x4,x28
    80002650:	016a32b3          	sltu	x5,x20,x22
    80002654:	0284083b          	mulw	x16,x8,x8
    80002658:	41fb893b          	subw	x18,x23,x31
    8000265c:	033b20b3          	mulhsu	x1,x22,x19
    80002660:	3058a997          	auipc	x19,0x3058a
    80002664:	0298703b          	remuw	x0,x16,x9
    80002668:	808e7fb7          	lui	x31,0x808e7
    8000266c:	032e7133          	remu	x2,x28,x18
    80002670:	ac487a17          	auipc	x20,0xac487
    80002674:	02e85bbb          	divuw	x23,x16,x14
    80002678:	01f0fab3          	and	x21,x1,x31
    8000267c:	02639133          	mulh	x2,x7,x6
    80002680:	4f9eeb13          	ori	x22,x29,1273
    80002684:	026f593b          	divuw	x18,x30,x6
    80002688:	4114043b          	subw	x8,x8,x17
    8000268c:	02cd9033          	mulh	x0,x27,x12
    80002690:	78273593          	sltiu	x11,x14,1922
    80002694:	03fc02b3          	mul	x5,x24,x31
    80002698:	016d8e3b          	addw	x28,x27,x22
    8000269c:	02e21533          	mulh	x10,x4,x14
    800026a0:	41ebd7b3          	sra	x15,x23,x30
    800026a4:	0395f8b3          	remu	x17,x11,x25
    800026a8:	00cfc3b3          	xor	x7,x31,x12
    800026ac:	0352db33          	divu	x22,x5,x21
    800026b0:	a743e597          	auipc	x11,0xa743e
    800026b4:	02fee9bb          	remw	x19,x29,x15
    800026b8:	02615f93          	srli	x31,x2,0x26
    800026bc:	03806333          	rem	x6,x0,x24
    800026c0:	00a417bb          	sllw	x15,x8,x10
    800026c4:	03b00bb3          	mul	x23,x0,x27
    800026c8:	1f931f37          	lui	x30,0x1f931
    800026cc:	02a8c3bb          	divw	x7,x17,x10
    800026d0:	2b1ead97          	auipc	x27,0x2b1ea
    800026d4:	03ff8cbb          	mulw	x25,x31,x31
    800026d8:	004054bb          	srlw	x9,x0,x4
    800026dc:	03f10e33          	mul	x28,x2,x31
    800026e0:	01b10fbb          	addw	x31,x2,x27
    800026e4:	02444c3b          	divw	x24,x8,x4
    800026e8:	031e89b7          	lui	x19,0x31e8
    800026ec:	02d568b3          	rem	x17,x10,x13
    800026f0:	40e60bbb          	subw	x23,x12,x14
    800026f4:	020851bb          	divuw	x3,x16,x0
    800026f8:	3a353c17          	auipc	x24,0x3a353
    800026fc:	02b85133          	divu	x2,x16,x11
    80002700:	40570fbb          	subw	x31,x14,x5
    80002704:	02600a3b          	mulw	x20,x0,x6
    80002708:	1115f617          	auipc	x12,0x1115f
    8000270c:	025a8cb3          	mul	x25,x21,x5
    80002710:	ea1c6e37          	lui	x28,0xea1c6
    80002714:	03584a33          	div	x20,x16,x21
    80002718:	01548d3b          	addw	x26,x9,x21
    8000271c:	02f295b3          	mulh	x11,x5,x15
    80002720:	01be579b          	srliw	x15,x28,0x1b
    80002724:	02034633          	div	x12,x6,x0
    80002728:	3b22ab37          	lui	x22,0x3b22a
    8000272c:	03e6be33          	mulhu	x28,x13,x30
    80002730:	d6a6d037          	lui	x0,0xd6a6d
    80002734:	02ca7dbb          	remuw	x27,x20,x12
    80002738:	01f9a333          	slt	x6,x19,x31
    8000273c:	03d465b3          	rem	x11,x8,x29
    80002740:	0166d4b3          	srl	x9,x13,x22
    80002744:	0367c6bb          	divw	x13,x15,x22
    80002748:	419f5e33          	sra	x28,x30,x25
    8000274c:	03acc7bb          	divw	x15,x25,x26
    80002750:	01a09313          	slli	x6,x1,0x1a
    80002754:	039ffbb3          	remu	x23,x31,x25
    80002758:	7fdcc9b7          	lui	x19,0x7fdcc
    8000275c:	03ecfdb3          	remu	x27,x25,x30
    80002760:	003d23b3          	slt	x7,x26,x3
    80002764:	029ca233          	mulhsu	x4,x25,x9
    80002768:	15754d37          	lui	x26,0x15754
    8000276c:	038a4bbb          	divw	x23,x20,x24
    80002770:	40f6833b          	subw	x6,x13,x15
    80002774:	02c784b3          	mul	x9,x15,x12
    80002778:	01577f33          	and	x30,x14,x21
    8000277c:	02f16933          	rem	x18,x2,x15
    80002780:	09500397          	auipc	x7,0x9500
    80002784:	03cae533          	rem	x10,x21,x28
    80002788:	a9da1717          	auipc	x14,0xa9da1
    8000278c:	03cb66bb          	remw	x13,x22,x28
    80002790:	749af493          	andi	x9,x21,1865
    80002794:	026fa9b3          	mulhsu	x19,x31,x6
    80002798:	47a7e837          	lui	x16,0x47a7e
    8000279c:	02c2c1b3          	div	x3,x5,x12
    800027a0:	401ad8b3          	sra	x17,x21,x1
    800027a4:	03830b3b          	mulw	x22,x6,x24
    800027a8:	40938bbb          	subw	x23,x7,x9
    800027ac:	033a8fb3          	mul	x31,x21,x19
    800027b0:	a333bab7          	lui	x21,0xa333b
    800027b4:	026a51b3          	divu	x3,x20,x6
    800027b8:	4310d693          	srai	x13,x1,0x31
    800027bc:	02856a3b          	remw	x20,x10,x8
    800027c0:	41a65213          	srai	x4,x12,0x1a
    800027c4:	0373eebb          	remw	x29,x7,x23
    800027c8:	01c758bb          	srlw	x17,x14,x28
    800027cc:	03a7533b          	divuw	x6,x14,x26
    800027d0:	01e484b3          	add	x9,x9,x30
    800027d4:	02b81033          	mulh	x0,x16,x11
    800027d8:	d677d117          	auipc	x2,0xd677d
    800027dc:	0361ffbb          	remuw	x31,x3,x22
    800027e0:	23b0ca93          	xori	x21,x1,571
    800027e4:	031e13b3          	mulh	x7,x28,x17
    800027e8:	41870f3b          	subw	x30,x14,x24
    800027ec:	0361d1b3          	divu	x3,x3,x22
    800027f0:	2c8b7113          	andi	x2,x22,712
    800027f4:	029da9b3          	mulhsu	x19,x27,x9
    800027f8:	016b2933          	slt	x18,x22,x22
    800027fc:	031a9733          	mulh	x14,x21,x17
    80002800:	42255c93          	srai	x25,x10,0x22
    80002804:	0237863b          	mulw	x12,x15,x3
    80002808:	00fd8b33          	add	x22,x27,x15
    8000280c:	029e15b3          	mulh	x11,x28,x9
    80002810:	41efd0b3          	sra	x1,x31,x30
    80002814:	024306b3          	mul	x13,x6,x4
    80002818:	078ef993          	andi	x19,x29,120
    8000281c:	028a75bb          	remuw	x11,x20,x8
    80002820:	01e16533          	or	x10,x2,x30
    80002824:	02115dbb          	divuw	x27,x2,x1
    80002828:	66077893          	andi	x17,x14,1632
    8000282c:	036675b3          	remu	x11,x12,x22
    80002830:	4057d21b          	sraiw	x4,x15,0x5
    80002834:	02f2863b          	mulw	x12,x5,x15
    80002838:	d079c8b7          	lui	x17,0xd079c
    8000283c:	0306c33b          	divw	x6,x13,x16
    80002840:	06a216b7          	lui	x13,0x6a21
    80002844:	03b45abb          	divuw	x21,x8,x27
    80002848:	41ef8433          	sub	x8,x31,x30
    8000284c:	02f29b33          	mulh	x22,x5,x15
    80002850:	9a354fb7          	lui	x31,0x9a354
    80002854:	023a4bbb          	divw	x23,x20,x3
    80002858:	007a5d93          	srli	x27,x20,0x7
    8000285c:	03620f33          	mul	x30,x4,x22
    80002860:	416d50b3          	sra	x1,x26,x22
    80002864:	02e3f2b3          	remu	x5,x7,x14
    80002868:	402b5f9b          	sraiw	x31,x22,0x2
    8000286c:	0389b3b3          	mulhu	x7,x19,x24
    80002870:	ffc24113          	xori	x2,x4,-4
    80002874:	036d3733          	mulhu	x14,x26,x22
    80002878:	418e5a33          	sra	x20,x28,x24
    8000287c:	031d7d3b          	remuw	x26,x26,x17
    80002880:	00fc1033          	sll	x0,x24,x15
    80002884:	03c486bb          	mulw	x13,x9,x28
    80002888:	40b85f1b          	sraiw	x30,x16,0xb
    8000288c:	0233feb3          	remu	x29,x7,x3
    80002890:	03155013          	srli	x0,x10,0x31
    80002894:	02db1db3          	mulh	x27,x22,x13
    80002898:	036c1a13          	slli	x20,x24,0x36
    8000289c:	03274333          	div	x6,x14,x18
    800028a0:	d4de1e37          	lui	x28,0xd4de1
    800028a4:	02c16cbb          	remw	x25,x2,x12
    800028a8:	01090d33          	add	x26,x18,x16
    800028ac:	03264bb3          	div	x23,x12,x18
    800028b0:	f40d2597          	auipc	x11,0xf40d2
    800028b4:	020388bb          	mulw	x17,x7,x0
    800028b8:	7eddaeb7          	lui	x29,0x7edda
    800028bc:	02e44fb3          	div	x31,x8,x14
    800028c0:	40dd6497          	auipc	x9,0x40dd6
    800028c4:	034203b3          	mul	x7,x4,x20
    800028c8:	fd70e9b7          	lui	x19,0xfd70e
    800028cc:	038b70b3          	remu	x1,x22,x24
    800028d0:	00012f33          	slt	x30,x2,x0
    800028d4:	024aecbb          	remw	x25,x21,x4
    800028d8:	0039d43b          	srlw	x8,x19,x3
    800028dc:	02e203bb          	mulw	x7,x4,x14
    800028e0:	01bd5b33          	srl	x22,x26,x27
    800028e4:	024ece33          	div	x28,x29,x4
    800028e8:	0144d333          	srl	x6,x9,x20
    800028ec:	02f9febb          	remuw	x29,x19,x15
    800028f0:	82984217          	auipc	x4,0x82984
    800028f4:	02fc39b3          	mulhu	x19,x24,x15
    800028f8:	08dbce13          	xori	x28,x23,141
    800028fc:	03e28d3b          	mulw	x26,x5,x30
    80002900:	873b1397          	auipc	x7,0x873b1
    80002904:	03bf743b          	remuw	x8,x30,x27
    80002908:	018a8933          	add	x18,x21,x24
    8000290c:	034518b3          	mulh	x17,x10,x20
    80002910:	6a168613          	addi	x12,x13,1697 # 6a216a1 <_start-0x795de95f>
    80002914:	02e5fa33          	remu	x20,x11,x14
    80002918:	41ae5dbb          	sraw	x27,x28,x26
    8000291c:	0324743b          	remuw	x8,x8,x18
    80002920:	94c02997          	auipc	x19,0x94c02
    80002924:	020e8cb3          	mul	x25,x29,x0
    80002928:	b55276b7          	lui	x13,0xb5527
    8000292c:	030e483b          	divw	x16,x28,x16
    80002930:	004e09bb          	addw	x19,x28,x4
    80002934:	03562033          	mulhsu	x0,x12,x21
    80002938:	3202ad93          	slti	x27,x5,800
    8000293c:	0357c4b3          	div	x9,x15,x21
    80002940:	0025f433          	and	x8,x11,x2
    80002944:	027e023b          	mulw	x4,x28,x7
    80002948:	01d68fbb          	addw	x31,x13,x29
    8000294c:	027a7bbb          	remuw	x23,x20,x7
    80002950:	fee75ab7          	lui	x21,0xfee75
    80002954:	02d64333          	div	x6,x12,x13
    80002958:	00969093          	slli	x1,x13,0x9
    8000295c:	028e7eb3          	remu	x29,x28,x8
    80002960:	01c05633          	srl	x12,x0,x28
    80002964:	03f92833          	mulhsu	x16,x18,x31
    80002968:	01272bb3          	slt	x23,x14,x18
    8000296c:	03c20233          	mul	x4,x4,x28
    80002970:	00515d93          	srli	x27,x2,0x5
    80002974:	02001933          	mulh	x18,x0,x0
    80002978:	00c10bbb          	addw	x23,x2,x12
    8000297c:	03178333          	mul	x6,x15,x17
    80002980:	4dce039b          	addiw	x7,x28,1244 # ffffffffd4de14dc <_start+0xffffffff54de14dc>
    80002984:	0314c033          	div	x0,x9,x17
    80002988:	01f54db3          	xor	x27,x10,x31
    8000298c:	02215b33          	divu	x22,x2,x2
    80002990:	00d925b3          	slt	x11,x18,x13
    80002994:	020880b3          	mul	x1,x17,x0
    80002998:	43e45193          	srai	x3,x8,0x3e
    8000299c:	034a5e3b          	divuw	x28,x20,x20
    800029a0:	0104e133          	or	x2,x9,x16
    800029a4:	021d0333          	mul	x6,x26,x1
    800029a8:	03c4df93          	srli	x31,x9,0x3c
    800029ac:	038e9bb3          	mulh	x23,x29,x24
    800029b0:	00e90b3b          	addw	x22,x18,x14
    800029b4:	03a7593b          	divuw	x18,x14,x26
    800029b8:	008163b3          	or	x7,x2,x8
    800029bc:	02d866bb          	remw	x13,x16,x13
    800029c0:	00acc533          	xor	x10,x25,x10
    800029c4:	026044bb          	divw	x9,x0,x6
    800029c8:	15704893          	xori	x17,x0,343
    800029cc:	022fe633          	rem	x12,x31,x2
    800029d0:	bb722cb7          	lui	x25,0xbb722
    800029d4:	02187bb3          	remu	x23,x16,x1
    800029d8:	588a6317          	auipc	x6,0x588a6
    800029dc:	02994ebb          	divw	x29,x18,x9
    800029e0:	3608adb7          	lui	x27,0x3608a
    800029e4:	03f8e6b3          	rem	x13,x17,x31
    800029e8:	410ad59b          	sraiw	x11,x21,0x10
    800029ec:	030847b3          	div	x15,x16,x16
    800029f0:	d5f65c97          	auipc	x25,0xd5f65
    800029f4:	023e4fb3          	div	x31,x28,x3
    800029f8:	41af5f1b          	sraiw	x30,x30,0x1a
    800029fc:	020dfb3b          	remuw	x22,x27,x0
    80002a00:	99bc1637          	lui	x12,0x99bc1
    80002a04:	03ae0c33          	mul	x24,x28,x26
    80002a08:	06a74037          	lui	x0,0x6a74
    80002a0c:	0233b6b3          	mulhu	x13,x7,x3
    80002a10:	2e2b0393          	addi	x7,x22,738 # 3b22a2e2 <_start-0x44dd5d1e>
    80002a14:	02aa5a33          	divu	x20,x20,x10
    80002a18:	fc914cb7          	lui	x25,0xfc914
    80002a1c:	02efe23b          	remw	x4,x31,x14
    80002a20:	01330633          	add	x12,x6,x19
    80002a24:	020075b3          	remu	x11,x0,x0
    80002a28:	5a6d79b7          	lui	x19,0x5a6d7
    80002a2c:	031b673b          	remw	x14,x22,x17
    80002a30:	007358bb          	srlw	x17,x6,x7
    80002a34:	02bad833          	divu	x16,x21,x11
    80002a38:	40d489bb          	subw	x19,x9,x13
    80002a3c:	0367c4b3          	div	x9,x15,x22
    80002a40:	0000dc9b          	srliw	x25,x1,0x0
    80002a44:	0316f43b          	remuw	x8,x13,x17
    80002a48:	01635733          	srl	x14,x6,x22
    80002a4c:	0346e0bb          	remw	x1,x13,x20
    80002a50:	018c5033          	srl	x0,x24,x24
    80002a54:	029ed933          	divu	x18,x29,x9
    80002a58:	1fa1fb97          	auipc	x23,0x1fa1f
    80002a5c:	02f4613b          	remw	x2,x8,x15
    80002a60:	8dba0d17          	auipc	x26,0x8dba0
    80002a64:	023eca33          	div	x20,x29,x3
    80002a68:	19af6193          	ori	x3,x30,410
    80002a6c:	039f3933          	mulhu	x18,x30,x25
    80002a70:	0103043b          	addw	x8,x6,x16
    80002a74:	024df7bb          	remuw	x15,x27,x4
    80002a78:	4eb3d137          	lui	x2,0x4eb3d
    80002a7c:	024e1f33          	mulh	x30,x28,x4
    80002a80:	5943c697          	auipc	x13,0x5943c
    80002a84:	033058b3          	divu	x17,x0,x19
    80002a88:	017564b3          	or	x9,x10,x23
    80002a8c:	027bcebb          	divw	x29,x23,x7
    80002a90:	025a1913          	slli	x18,x20,0x25
    80002a94:	02df41b3          	div	x3,x30,x13
    80002a98:	00cf1b3b          	sllw	x22,x30,x12
    80002a9c:	03fe9d33          	mulh	x26,x29,x31
    80002aa0:	dcc3b397          	auipc	x7,0xdcc3b
    80002aa4:	02265dbb          	divuw	x27,x12,x2
    80002aa8:	001b981b          	slliw	x16,x23,0x1
    80002aac:	036eb133          	mulhu	x2,x29,x22
    80002ab0:	8115da37          	lui	x20,0x8115d
    80002ab4:	03d4e0b3          	rem	x1,x9,x29
    80002ab8:	018adc9b          	srliw	x25,x21,0x18
    80002abc:	02763933          	mulhu	x18,x12,x7
    80002ac0:	0309d193          	srli	x3,x19,0x30
    80002ac4:	03126e3b          	remw	x28,x4,x17
    80002ac8:	43925f13          	srai	x30,x4,0x39
    80002acc:	038c3333          	mulhu	x6,x24,x24
    80002ad0:	02235a37          	lui	x20,0x2235
    80002ad4:	02e56c3b          	remw	x24,x10,x14
    80002ad8:	25bb33b7          	lui	x7,0x25bb3
    80002adc:	025f783b          	remuw	x16,x30,x5
    80002ae0:	01ce67b3          	or	x15,x28,x28
    80002ae4:	0208ed3b          	remw	x26,x17,x0
    80002ae8:	863aef37          	lui	x30,0x863ae
    80002aec:	02c9bfb3          	mulhu	x31,x19,x12
    80002af0:	6601a193          	slti	x3,x3,1632
    80002af4:	027c6c3b          	remw	x24,x24,x7
    80002af8:	b9b55237          	lui	x4,0xb9b55
    80002afc:	0344f93b          	remuw	x18,x9,x20
    80002b00:	01109f13          	slli	x30,x1,0x11
    80002b04:	022c12b3          	mulh	x5,x24,x2
    80002b08:	546db397          	auipc	x7,0x546db
    80002b0c:	02abec3b          	remw	x24,x23,x10
    80002b10:	01479b9b          	slliw	x23,x15,0x14
    80002b14:	02bae53b          	remw	x10,x21,x11
    80002b18:	01f1bdb3          	sltu	x27,x3,x31
    80002b1c:	0263dfbb          	divuw	x31,x7,x6
    80002b20:	276f3217          	auipc	x4,0x276f3
    80002b24:	02a4643b          	remw	x8,x8,x10
    80002b28:	40f5d7b3          	sra	x15,x11,x15
    80002b2c:	021b8e33          	mul	x28,x23,x1
    80002b30:	0d547497          	auipc	x9,0xd547
    80002b34:	0201f6bb          	remuw	x13,x3,x0
    80002b38:	09e5001b          	addiw	x0,x10,158 # ffffffffac6f509e <_start+0xffffffff2c6f509e>
    80002b3c:	036a07b3          	mul	x15,x20,x22
    80002b40:	004912bb          	sllw	x5,x18,x4
    80002b44:	0351febb          	remuw	x29,x3,x21
    80002b48:	01e41393          	slli	x7,x8,0x1e
    80002b4c:	0231703b          	remuw	x0,x2,x3
    80002b50:	416d5433          	sra	x8,x26,x22
    80002b54:	03f4fe3b          	remuw	x28,x9,x31
    80002b58:	adb95997          	auipc	x19,0xadb95
    80002b5c:	037ce63b          	remw	x12,x25,x23
    80002b60:	00d71033          	sll	x0,x14,x13
    80002b64:	02f8eab3          	rem	x21,x17,x15
    80002b68:	6f57b0b7          	lui	x1,0x6f57b
    80002b6c:	02e7743b          	remuw	x8,x14,x14
    80002b70:	01fddf1b          	srliw	x30,x27,0x1f
    80002b74:	036bf53b          	remuw	x10,x23,x22
    80002b78:	00f0bdb3          	sltu	x27,x1,x15
    80002b7c:	03f375bb          	remuw	x11,x6,x31
    80002b80:	00e29613          	slli	x12,x5,0xe
    80002b84:	02acd3bb          	divuw	x7,x25,x10
    80002b88:	5d96a697          	auipc	x13,0x5d96a
    80002b8c:	028abdb3          	mulhu	x27,x21,x8
    80002b90:	7ed3f737          	lui	x14,0x7ed3f
    80002b94:	0204ed3b          	remw	x26,x9,x0
    80002b98:	5135849b          	addiw	x9,x11,1299 # 740d4dc3 <_start-0xbf2b23d>
    80002b9c:	02fa05bb          	mulw	x11,x20,x15
    80002ba0:	40d2d83b          	sraw	x16,x5,x13
    80002ba4:	038693b3          	mulh	x7,x13,x24
    80002ba8:	13f41e37          	lui	x28,0x13f41
    80002bac:	038ed933          	divu	x18,x29,x24
    80002bb0:	409f0633          	sub	x12,x30,x9
    80002bb4:	02204b3b          	divw	x22,x0,x2
    80002bb8:	8d4aa7b7          	lui	x15,0x8d4aa
    80002bbc:	03314eb3          	div	x29,x2,x19
    80002bc0:	1d49821b          	addiw	x4,x19,468 # 2db97d2c <_start-0x524682d4>
    80002bc4:	035419b3          	mulh	x19,x8,x21
    80002bc8:	54bfb913          	sltiu	x18,x31,1355
    80002bcc:	0221ef3b          	remw	x30,x3,x2
    80002bd0:	40be5a1b          	sraiw	x20,x28,0xb
    80002bd4:	028275bb          	remuw	x11,x4,x8
    80002bd8:	008c2b33          	slt	x22,x24,x8
    80002bdc:	032f3cb3          	mulhu	x25,x30,x18
    80002be0:	30a66313          	ori	x6,x12,778
    80002be4:	0295e833          	rem	x16,x11,x9
    80002be8:	42820e1b          	addiw	x28,x4,1064 # ffffffffa76f5f48 <_start+0xffffffff276f5f48>
    80002bec:	02afb533          	mulhu	x10,x31,x10
    80002bf0:	14c24593          	xori	x11,x4,332
    80002bf4:	03d618b3          	mulh	x17,x12,x29
    80002bf8:	41838e33          	sub	x28,x7,x24
    80002bfc:	0212d4bb          	divuw	x9,x5,x1
    80002c00:	285e8037          	lui	x0,0x285e8
    80002c04:	02cbc533          	div	x10,x23,x12
    80002c08:	3a09f297          	auipc	x5,0x3a09f
    80002c0c:	03184ebb          	divw	x29,x16,x17
    80002c10:	f3b42a17          	auipc	x20,0xf3b42
    80002c14:	03879fb3          	mulh	x31,x15,x24
    80002c18:	35be36b7          	lui	x13,0x35be3
    80002c1c:	025447b3          	div	x15,x8,x5
    80002c20:	d0ed0a37          	lui	x20,0xd0ed0
    80002c24:	0322b233          	mulhu	x4,x5,x18
    80002c28:	5c73cf93          	xori	x31,x7,1479
    80002c2c:	03b54db3          	div	x27,x10,x27
    80002c30:	15332897          	auipc	x17,0x15332
    80002c34:	02d4d433          	divu	x8,x9,x13
    80002c38:	000a3833          	sltu	x16,x20,x0
    80002c3c:	02604733          	div	x14,x0,x6
    80002c40:	40a3d133          	sra	x2,x7,x10
    80002c44:	028bd9bb          	divuw	x19,x23,x8
    80002c48:	01ca9193          	slli	x3,x21,0x1c
    80002c4c:	025c1533          	mulh	x10,x24,x5
    80002c50:	40ec8c3b          	subw	x24,x25,x14
    80002c54:	02011833          	mulh	x16,x2,x0
    80002c58:	fe84a637          	lui	x12,0xfe84a
    80002c5c:	02b4b333          	mulhu	x6,x9,x11
    80002c60:	41f2521b          	sraiw	x4,x4,0x1f
    80002c64:	027fb933          	mulhu	x18,x31,x7
    80002c68:	029c7513          	andi	x10,x24,41
    80002c6c:	037ea4b3          	mulhsu	x9,x29,x23
    80002c70:	00f9981b          	slliw	x16,x19,0xf
    80002c74:	0313ed33          	rem	x26,x7,x17
    80002c78:	00cbb0b3          	sltu	x1,x23,x12
    80002c7c:	03449733          	mulh	x14,x9,x20
    80002c80:	40c88b33          	sub	x22,x17,x12
    80002c84:	023331b3          	mulhu	x3,x6,x3
    80002c88:	02959213          	slli	x4,x11,0x29
    80002c8c:	03f39c33          	mulh	x24,x7,x31
    80002c90:	39bb5917          	auipc	x18,0x39bb5
    80002c94:	02e582bb          	mulw	x5,x11,x14
    80002c98:	004ccfb3          	xor	x31,x25,x4
    80002c9c:	03a505b3          	mul	x11,x10,x26
    80002ca0:	6ec54f13          	xori	x30,x10,1772
    80002ca4:	032408b3          	mul	x17,x8,x18
    80002ca8:	33a00b1b          	addiw	x22,x0,826
    80002cac:	02d9ac33          	mulhsu	x24,x19,x13
    80002cb0:	668db713          	sltiu	x14,x27,1640
    80002cb4:	03c7f8b3          	remu	x17,x15,x28
    80002cb8:	2d64c817          	auipc	x16,0x2d64c
    80002cbc:	0376c133          	div	x2,x13,x23
    80002cc0:	405bdd1b          	sraiw	x26,x23,0x5
    80002cc4:	023f1633          	mulh	x12,x30,x3
    80002cc8:	d5419f17          	auipc	x30,0xd5419
    80002ccc:	030db533          	mulhu	x10,x27,x16
    80002cd0:	4ce27913          	andi	x18,x4,1230
    80002cd4:	038cca33          	div	x20,x25,x24
    80002cd8:	298f3093          	sltiu	x1,x30,664
    80002cdc:	02d584bb          	mulw	x9,x11,x13
    80002ce0:	008cf733          	and	x14,x25,x8
    80002ce4:	03c93633          	mulhu	x12,x18,x28
    80002ce8:	0002d5bb          	srlw	x11,x5,x0
    80002cec:	03b2743b          	remuw	x8,x4,x27
    80002cf0:	cf6c3fb7          	lui	x31,0xcf6c3
    80002cf4:	02f1debb          	divuw	x29,x3,x15
    80002cf8:	d3f7b717          	auipc	x14,0xd3f7b
    80002cfc:	02601db3          	mulh	x27,x0,x6
    80002d00:	439e63b7          	lui	x7,0x439e6
    80002d04:	0256afb3          	mulhsu	x31,x13,x5
    80002d08:	005c1f13          	slli	x30,x24,0x5
    80002d0c:	021ea033          	mulhsu	x0,x29,x1
    80002d10:	4094d2b3          	sra	x5,x9,x9
    80002d14:	02facd33          	div	x26,x21,x15
    80002d18:	4b80a193          	slti	x3,x1,1208
    80002d1c:	037939b3          	mulhu	x19,x18,x23
    80002d20:	004c159b          	slliw	x11,x24,0x4
    80002d24:	0364063b          	mulw	x12,x8,x22
    80002d28:	41188833          	sub	x16,x17,x17
    80002d2c:	039a8fbb          	mulw	x31,x21,x25
    80002d30:	014a17b3          	sll	x15,x20,x20
    80002d34:	03ad73b3          	remu	x7,x26,x26
    80002d38:	013991bb          	sllw	x3,x19,x19
    80002d3c:	03db8b33          	mul	x22,x23,x29
    80002d40:	676a8793          	addi	x15,x21,1654 # fffffffffee75676 <_start+0xffffffff7ee75676>
    80002d44:	02b073b3          	remu	x7,x0,x11
    80002d48:	01aa1c13          	slli	x24,x20,0x1a
    80002d4c:	03da78bb          	remuw	x17,x20,x29
    80002d50:	66f4819b          	addiw	x3,x9,1647 # ffffffff8d54a19f <_start+0xffffffff0d54a19f>
    80002d54:	02752cb3          	mulhsu	x25,x10,x7
    80002d58:	006d0d33          	add	x26,x26,x6
    80002d5c:	03746933          	rem	x18,x8,x23
    80002d60:	49695b37          	lui	x22,0x49695
    80002d64:	02366733          	rem	x14,x12,x3
    80002d68:	8b666097          	auipc	x1,0x8b666
    80002d6c:	0346b2b3          	mulhu	x5,x13,x20
    80002d70:	009dc633          	xor	x12,x27,x9
    80002d74:	02f7013b          	mulw	x2,x14,x15
    80002d78:	25aa44b7          	lui	x9,0x25aa4
    80002d7c:	03235c33          	divu	x24,x6,x18
    80002d80:	013cb233          	sltu	x4,x25,x19
    80002d84:	031ff1bb          	remuw	x3,x31,x17
    80002d88:	000b08bb          	addw	x17,x22,x0
    80002d8c:	0279af33          	mulhsu	x30,x19,x7
    80002d90:	ff94ac37          	lui	x24,0xff94a
    80002d94:	03f4a6b3          	mulhsu	x13,x9,x31
    80002d98:	00578db3          	add	x27,x15,x5
    80002d9c:	02283f33          	mulhu	x30,x16,x2
    80002da0:	00df9993          	slli	x19,x31,0xd
    80002da4:	0396beb3          	mulhu	x29,x13,x25
    80002da8:	9acd1a97          	auipc	x21,0x9acd1
    80002dac:	039101bb          	mulw	x3,x2,x25
    80002db0:	c2719c17          	auipc	x24,0xc2719
    80002db4:	022632b3          	mulhu	x5,x12,x2
    80002db8:	38ccec93          	ori	x25,x25,908
    80002dbc:	024e5133          	divu	x2,x28,x4
    80002dc0:	0017e933          	or	x18,x15,x1
    80002dc4:	03edc033          	div	x0,x27,x30
    80002dc8:	4047db1b          	sraiw	x22,x15,0x4
    80002dcc:	0339e8b3          	rem	x17,x19,x19
    80002dd0:	0071da9b          	srliw	x21,x3,0x7
    80002dd4:	02dcb133          	mulhu	x2,x25,x13
    80002dd8:	014d1a33          	sll	x20,x26,x20
    80002ddc:	03f0febb          	remuw	x29,x1,x31
    80002de0:	c7cab997          	auipc	x19,0xc7cab
    80002de4:	0317d03b          	divuw	x0,x15,x17
    80002de8:	1c6a4817          	auipc	x16,0x1c6a4
    80002dec:	021e4f33          	div	x30,x28,x1
    80002df0:	5a7e2417          	auipc	x8,0x5a7e2
    80002df4:	0333d53b          	divuw	x10,x7,x19
    80002df8:	00e31f9b          	slliw	x31,x6,0xe
    80002dfc:	03c7feb3          	remu	x29,x15,x28
    80002e00:	2a520893          	addi	x17,x4,677 # 2a5 <_start-0x7ffffd5b>
    80002e04:	025d1d33          	mulh	x26,x26,x5
    80002e08:	f4910737          	lui	x14,0xf4910
    80002e0c:	029133b3          	mulhu	x7,x2,x9
    80002e10:	403add9b          	sraiw	x27,x21,0x3
    80002e14:	02af64b3          	rem	x9,x30,x10
    80002e18:	01353eb3          	sltu	x29,x10,x19
    80002e1c:	030b4fbb          	divw	x31,x22,x16
    80002e20:	ac440917          	auipc	x18,0xac440
    80002e24:	038e6b33          	rem	x22,x28,x24
    80002e28:	41c98cb3          	sub	x25,x19,x28
    80002e2c:	02ff1eb3          	mulh	x29,x30,x15
    80002e30:	1045b513          	sltiu	x10,x11,260
    80002e34:	03846bb3          	rem	x23,x8,x24
    80002e38:	9bcf54b7          	lui	x9,0x9bcf5
    80002e3c:	0320cebb          	divw	x29,x1,x18
    80002e40:	623f1837          	lui	x16,0x623f1
    80002e44:	021beb33          	rem	x22,x23,x1
    80002e48:	4134d333          	sra	x6,x9,x19
    80002e4c:	037d4133          	div	x2,x26,x23
    80002e50:	0193ad33          	slt	x26,x7,x25
    80002e54:	02c1c53b          	divw	x10,x3,x12
    80002e58:	5667b313          	sltiu	x6,x15,1382
    80002e5c:	02415033          	divu	x0,x2,x4
    80002e60:	00ecd733          	srl	x14,x25,x14
    80002e64:	0396e0b3          	rem	x1,x13,x25
    80002e68:	56368a9b          	addiw	x21,x13,1379 # 35be3563 <_start-0x4a41ca9d>
    80002e6c:	03b22833          	mulhsu	x16,x4,x27
    80002e70:	018d1cbb          	sllw	x25,x26,x24
    80002e74:	02eec93b          	divw	x18,x29,x14
    80002e78:	01e6571b          	srliw	x14,x12,0x1e
    80002e7c:	03af04bb          	mulw	x9,x30,x26
    80002e80:	0068dbb3          	srl	x23,x17,x6
    80002e84:	031065b3          	rem	x11,x0,x17
    80002e88:	9684eab7          	lui	x21,0x9684e
    80002e8c:	0233753b          	remuw	x10,x6,x3
    80002e90:	686a3d13          	sltiu	x26,x20,1670
    80002e94:	039d8b33          	mul	x22,x27,x25
    80002e98:	89d05c97          	auipc	x25,0x89d05
    80002e9c:	02fa5eb3          	divu	x29,x20,x15
    80002ea0:	5dc00d13          	addi	x26,x0,1500
    80002ea4:	0356d43b          	divuw	x8,x13,x21
    80002ea8:	0133e6b3          	or	x13,x7,x19
    80002eac:	023a613b          	remw	x2,x20,x3
    80002eb0:	000affb3          	and	x31,x21,x0
    80002eb4:	03856e33          	rem	x28,x10,x24
    80002eb8:	b8dee317          	auipc	x6,0xb8dee
    80002ebc:	0379ea33          	rem	x20,x19,x23
    80002ec0:	41bcdd9b          	sraiw	x27,x25,0x1b
    80002ec4:	0235d4b3          	divu	x9,x11,x3
    80002ec8:	007f47b3          	xor	x15,x30,x7
    80002ecc:	038831b3          	mulhu	x3,x16,x24
    80002ed0:	2e1b0c13          	addi	x24,x22,737 # 496952e1 <_start-0x3696ad1f>
    80002ed4:	021d5e33          	divu	x28,x26,x1
    80002ed8:	00237433          	and	x8,x6,x2
    80002edc:	03058cbb          	mulw	x25,x11,x16
    80002ee0:	40b989b3          	sub	x19,x19,x11
    80002ee4:	02bf00b3          	mul	x1,x30,x11
    80002ee8:	5fa82713          	slti	x14,x16,1530
    80002eec:	0364c63b          	divw	x12,x9,x22
    80002ef0:	00811e33          	sll	x28,x2,x8
    80002ef4:	0373543b          	divuw	x8,x6,x23
    80002ef8:	419059b3          	sra	x19,x0,x25
    80002efc:	037858bb          	divuw	x17,x16,x23
    80002f00:	4000591b          	sraiw	x18,x0,0x0
    80002f04:	02bb92b3          	mulh	x5,x23,x11
    80002f08:	30374e17          	auipc	x28,0x30374
    80002f0c:	0266febb          	remuw	x29,x13,x6
    80002f10:	018d9fbb          	sllw	x31,x27,x24
    80002f14:	02576d3b          	remw	x26,x14,x5
    80002f18:	21d09297          	auipc	x5,0x21d09
    80002f1c:	020efe33          	remu	x28,x29,x0
    80002f20:	280d7e97          	auipc	x29,0x280d7
    80002f24:	03e78cb3          	mul	x25,x15,x30
    80002f28:	0121d13b          	srlw	x2,x3,x18
    80002f2c:	02fb2f33          	mulhsu	x30,x22,x15
    80002f30:	0070d99b          	srliw	x19,x1,0x7
    80002f34:	02b60733          	mul	x14,x12,x11
    80002f38:	18d87693          	andi	x13,x16,397
    80002f3c:	03e18333          	mul	x6,x3,x30
    80002f40:	03595013          	srli	x0,x18,0x35
    80002f44:	037b02bb          	mulw	x5,x22,x23
    80002f48:	019cd39b          	srliw	x7,x25,0x19
    80002f4c:	03499233          	mulh	x4,x19,x20
    80002f50:	001b551b          	srliw	x10,x22,0x1
    80002f54:	03be9c33          	mulh	x24,x29,x27
    80002f58:	525b0d93          	addi	x27,x22,1317
    80002f5c:	02b1b633          	mulhu	x12,x3,x11
    80002f60:	0b59f393          	andi	x7,x19,181
    80002f64:	0319d93b          	divuw	x18,x19,x17
    80002f68:	529c021b          	addiw	x4,x24,1321 # 4271c2d9 <_start-0x3d8e3d27>
    80002f6c:	0269f2b3          	remu	x5,x19,x6
    80002f70:	16a42317          	auipc	x6,0x16a42
    80002f74:	02bce43b          	remw	x8,x25,x11
    80002f78:	8896a517          	auipc	x10,0x8896a
    80002f7c:	0376483b          	divw	x16,x12,x23
    80002f80:	f3fffd37          	lui	x26,0xf3fff
    80002f84:	024e74bb          	remuw	x9,x28,x4
    80002f88:	000f7333          	and	x6,x30,x0
    80002f8c:	0395fdb3          	remu	x27,x11,x25
    80002f90:	bd7521b7          	lui	x3,0xbd752
    80002f94:	03e4ee3b          	remw	x28,x9,x30
    80002f98:	00d45933          	srl	x18,x8,x13
    80002f9c:	02dd3b33          	mulhu	x22,x26,x13
    80002fa0:	18243f13          	sltiu	x30,x8,386
    80002fa4:	03d8c2b3          	div	x5,x17,x29
    80002fa8:	732e8c9b          	addiw	x25,x29,1842 # ffffffffa80da652 <_start+0xffffffff280da652>
    80002fac:	028766b3          	rem	x13,x14,x8
    80002fb0:	002e5ebb          	srlw	x29,x28,x2
    80002fb4:	02efe13b          	remw	x2,x31,x14
    80002fb8:	d4b07897          	auipc	x17,0xd4b07
    80002fbc:	02d6773b          	remuw	x14,x12,x13
    80002fc0:	10932417          	auipc	x8,0x10932
    80002fc4:	03359533          	mulh	x10,x11,x19
    80002fc8:	7c167593          	andi	x11,x12,1985
    80002fcc:	024a9b33          	mulh	x22,x21,x4
    80002fd0:	63818c9b          	addiw	x25,x3,1592 # ffffffffbd752638 <_start+0xffffffff3d752638>
    80002fd4:	0274b033          	mulhu	x0,x9,x7
    80002fd8:	c5db8d37          	lui	x26,0xc5db8
    80002fdc:	03b1e4b3          	rem	x9,x3,x27
    80002fe0:	01358433          	add	x8,x11,x19
    80002fe4:	038e8133          	mul	x2,x29,x24
    80002fe8:	005e95b3          	sll	x11,x29,x5
    80002fec:	02c4b3b3          	mulhu	x7,x9,x12
    80002ff0:	377faf13          	slti	x30,x31,887
    80002ff4:	03107133          	remu	x2,x0,x17
    80002ff8:	41bed69b          	sraiw	x13,x29,0x1b
    80002ffc:	03f5eb33          	rem	x22,x11,x31
    80003000:	03dc7ab7          	lui	x21,0x3dc7
    80003004:	02eef33b          	remuw	x6,x29,x14
    80003008:	41115b9b          	sraiw	x23,x2,0x11
    8000300c:	03cf0e3b          	mulw	x28,x30,x28
    80003010:	764f851b          	addiw	x10,x31,1892 # ffffffffcf6c3764 <_start+0xffffffff4f6c3764>
    80003014:	026c56bb          	divuw	x13,x24,x6
    80003018:	d0ed11b7          	lui	x3,0xd0ed1
    8000301c:	02ce8133          	mul	x2,x29,x12
    80003020:	549e2c17          	auipc	x24,0x549e2
    80003024:	02902ab3          	mulhsu	x21,x0,x9
    80003028:	403bdb33          	sra	x22,x23,x3
    8000302c:	0253c0b3          	div	x1,x7,x5
    80003030:	aa6faf17          	auipc	x30,0xaa6fa
    80003034:	0348523b          	divuw	x4,x16,x20
    80003038:	01eb171b          	slliw	x14,x22,0x1e
    8000303c:	03c0eabb          	remw	x21,x1,x28
    80003040:	67acb893          	sltiu	x17,x25,1658
    80003044:	02647dbb          	remuw	x27,x8,x6
    80003048:	402284bb          	subw	x9,x5,x2
    8000304c:	036e17b3          	mulh	x15,x28,x22
    80003050:	1f02ec13          	ori	x24,x5,496
    80003054:	0393e233          	rem	x4,x7,x25
    80003058:	01439293          	slli	x5,x7,0x14
    8000305c:	035a76b3          	remu	x13,x20,x21
    80003060:	615c8d93          	addi	x27,x25,1557 # 9d084ad <_start-0x762f7b53>
    80003064:	03e78f33          	mul	x30,x15,x30
    80003068:	2d704517          	auipc	x10,0x2d704
    8000306c:	03ac3633          	mulhu	x12,x24,x26
    80003070:	41b086b3          	sub	x13,x1,x27
    80003074:	038bb9b3          	mulhu	x19,x23,x24
    80003078:	21cd1b37          	lui	x22,0x21cd1
    8000307c:	029a813b          	mulw	x2,x21,x9
    80003080:	032a1013          	slli	x0,x20,0x32
    80003084:	02d2eeb3          	rem	x29,x5,x13
    80003088:	01fd9f1b          	slliw	x30,x27,0x1f
    8000308c:	026d7dbb          	remuw	x27,x26,x6
    80003090:	21a8a313          	slti	x6,x17,538
    80003094:	02f984bb          	mulw	x9,x19,x15
    80003098:	1d98b713          	sltiu	x14,x17,473
    8000309c:	03e54eb3          	div	x29,x10,x30
    800030a0:	016157b3          	srl	x15,x2,x22
    800030a4:	032dd9bb          	divuw	x19,x27,x18
    800030a8:	30004a97          	auipc	x21,0x30004
    800030ac:	029b9233          	mulh	x4,x23,x9
    800030b0:	018e5f93          	srli	x31,x28,0x18
    800030b4:	0343b833          	mulhu	x16,x7,x20
    800030b8:	3f374493          	xori	x9,x14,1011
    800030bc:	027d09bb          	mulw	x19,x26,x7
    800030c0:	46ff2b17          	auipc	x22,0x46ff2
    800030c4:	030c5dbb          	divuw	x27,x24,x16
    800030c8:	11e50a93          	addi	x21,x10,286 # ad707186 <_start+0x2d707186>
    800030cc:	025657bb          	divuw	x15,x12,x5
    800030d0:	e1a380b7          	lui	x1,0xe1a38
    800030d4:	03e4643b          	remw	x8,x8,x30
    800030d8:	01fcbeb3          	sltu	x29,x25,x31
    800030dc:	0384dd3b          	divuw	x26,x9,x24
    800030e0:	7be55f37          	lui	x30,0x7be55
    800030e4:	026cfdb3          	remu	x27,x25,x6
    800030e8:	010b18bb          	sllw	x17,x22,x16
    800030ec:	03566bbb          	remw	x23,x12,x21
    800030f0:	00f855bb          	srlw	x11,x16,x15
    800030f4:	030e10b3          	mulh	x1,x28,x16
    800030f8:	41d3d21b          	sraiw	x4,x7,0x1d
    800030fc:	025c2633          	mulhsu	x12,x24,x5
    80003100:	418c5cb3          	sra	x25,x24,x24
    80003104:	021d09bb          	mulw	x19,x26,x1
    80003108:	004400bb          	addw	x1,x8,x4
    8000310c:	023f5a3b          	divuw	x20,x30,x3
    80003110:	01168dbb          	addw	x27,x13,x17
    80003114:	033af9b3          	remu	x19,x21,x19
    80003118:	f20ba1b7          	lui	x3,0xf20ba
    8000311c:	03c3dcb3          	divu	x25,x7,x28
    80003120:	5f78ae93          	slti	x29,x17,1527
    80003124:	03c389bb          	mulw	x19,x7,x28
    80003128:	01c68fbb          	addw	x31,x13,x28
    8000312c:	02c47533          	remu	x10,x8,x12
    80003130:	002cad33          	slt	x26,x25,x2
    80003134:	03896f33          	rem	x30,x18,x24
    80003138:	41831337          	lui	x6,0x41831
    8000313c:	03562ab3          	mulhsu	x21,x12,x21
    80003140:	e8d68d17          	auipc	x26,0xe8d68
    80003144:	021dc533          	div	x10,x27,x1
    80003148:	7cf47617          	auipc	x12,0x7cf47
    8000314c:	024b5033          	divu	x0,x22,x4
    80003150:	2a882713          	slti	x14,x16,680
    80003154:	02f1e3bb          	remw	x7,x3,x15
    80003158:	00da853b          	addw	x10,x21,x13
    8000315c:	02ff72bb          	remuw	x5,x30,x15
    80003160:	400edd3b          	sraw	x26,x29,x0
    80003164:	039ecc3b          	divw	x24,x29,x25
    80003168:	4021df1b          	sraiw	x30,x3,0x2
    8000316c:	0303f033          	remu	x0,x7,x16
    80003170:	015fd79b          	srliw	x15,x31,0x15
    80003174:	03d9d733          	divu	x14,x19,x29
    80003178:	75bede17          	auipc	x28,0x75bed
    8000317c:	03a49433          	mulh	x8,x9,x26
    80003180:	4060523b          	sraw	x4,x0,x6
    80003184:	02b67ebb          	remuw	x29,x12,x11
    80003188:	01f322b3          	slt	x5,x6,x31
    8000318c:	032f1cb3          	mulh	x25,x30,x18
    80003190:	0119de33          	srl	x28,x19,x17
    80003194:	02d2713b          	remuw	x2,x4,x13
    80003198:	ea6f3097          	auipc	x1,0xea6f3
    8000319c:	02ba5ebb          	divuw	x29,x20,x11
    800031a0:	685383b7          	lui	x7,0x68538
    800031a4:	035706bb          	mulw	x13,x14,x21
    800031a8:	01f94c33          	xor	x24,x18,x31
    800031ac:	02c57dbb          	remuw	x27,x10,x12
    800031b0:	01175f3b          	srlw	x30,x14,x17
    800031b4:	0286fe3b          	remuw	x28,x13,x8
    800031b8:	11c1d6b7          	lui	x13,0x11c1d
    800031bc:	0377c9b3          	div	x19,x15,x23
    800031c0:	3b17c237          	lui	x4,0x3b17c
    800031c4:	03cde43b          	remw	x8,x27,x28
    800031c8:	8444ffb7          	lui	x31,0x8444f
    800031cc:	038f493b          	divw	x18,x30,x24
    800031d0:	9e5464b7          	lui	x9,0x9e546
    800031d4:	02c8b3b3          	mulhu	x7,x17,x12
    800031d8:	01a0943b          	sllw	x8,x1,x26
    800031dc:	0366463b          	divw	x12,x12,x22
    800031e0:	cb40ba17          	auipc	x20,0xcb40b
    800031e4:	0201e6b3          	rem	x13,x3,x0
    800031e8:	003e45b3          	xor	x11,x28,x3
    800031ec:	02615ebb          	divuw	x29,x2,x6
    800031f0:	faa2ba97          	auipc	x21,0xfaa2b
    800031f4:	02070b33          	mul	x22,x14,x0
    800031f8:	0187013b          	addw	x2,x14,x24
    800031fc:	02f5c3b3          	div	x7,x11,x15
    80003200:	824f9017          	auipc	x0,0x824f9
    80003204:	0322deb3          	divu	x29,x5,x18
    80003208:	664f6d17          	auipc	x26,0x664f6
    8000320c:	023a443b          	divw	x8,x20,x3
    80003210:	00adf493          	andi	x9,x27,10
    80003214:	03e7b8b3          	mulhu	x17,x15,x30
    80003218:	44f97997          	auipc	x19,0x44f97
    8000321c:	02227db3          	remu	x27,x4,x2
    80003220:	008a3c33          	sltu	x24,x20,x8
    80003224:	02bce33b          	remw	x6,x25,x11
    80003228:	d2c32117          	auipc	x2,0xd2c32
    8000322c:	03d901bb          	mulw	x3,x18,x29
    80003230:	4085853b          	subw	x10,x11,x8
    80003234:	0253a4b3          	mulhsu	x9,x7,x5
    80003238:	1850e593          	ori	x11,x1,389
    8000323c:	0366783b          	remuw	x16,x12,x22
    80003240:	003d963b          	sllw	x12,x27,x3
    80003244:	022d1733          	mulh	x14,x26,x2
    80003248:	01804c33          	xor	x24,x0,x24
    8000324c:	0253fab3          	remu	x21,x7,x5
    80003250:	c72c3497          	auipc	x9,0xc72c3
    80003254:	02416833          	rem	x16,x2,x4
    80003258:	3b42ff37          	lui	x30,0x3b42f
    8000325c:	02ac77b3          	remu	x15,x24,x10
    80003260:	78822997          	auipc	x19,0x78822
    80003264:	0302f43b          	remuw	x8,x5,x16
    80003268:	015f9193          	slli	x3,x31,0x15
    8000326c:	03103c33          	mulhu	x24,x0,x17
    80003270:	eb5f4697          	auipc	x13,0xeb5f4
    80003274:	029b75bb          	remuw	x11,x22,x9
    80003278:	015dd09b          	srliw	x1,x27,0x15
    8000327c:	03131f33          	mulh	x30,x6,x17
    80003280:	dfa7bab7          	lui	x21,0xdfa7b
    80003284:	037dfcb3          	remu	x25,x27,x23
    80003288:	0097921b          	slliw	x4,x15,0x9
    8000328c:	02971f33          	mulh	x30,x14,x9
    80003290:	a8028e37          	lui	x28,0xa8028
    80003294:	0310873b          	mulw	x14,x1,x17
    80003298:	041b4d97          	auipc	x27,0x41b4
    8000329c:	028f423b          	divw	x4,x30,x8
    800032a0:	00afccb3          	xor	x25,x31,x10
    800032a4:	030a77b3          	remu	x15,x20,x16
    800032a8:	3e40b8b7          	lui	x17,0x3e40b
    800032ac:	0211a2b3          	mulhsu	x5,x3,x1
    800032b0:	03039093          	slli	x1,x7,0x30
    800032b4:	0331e43b          	remw	x8,x3,x19
    800032b8:	33c9ea13          	ori	x20,x19,828
    800032bc:	03c74d3b          	divw	x26,x14,x28
    800032c0:	01fccfb3          	xor	x31,x25,x31
    800032c4:	03319ab3          	mulh	x21,x3,x19
    800032c8:	9fc48db7          	lui	x27,0x9fc48
    800032cc:	03a1c03b          	divw	x0,x3,x26
    800032d0:	d25c1617          	auipc	x12,0xd25c1
    800032d4:	03238133          	mul	x2,x7,x18
    800032d8:	413ed193          	srai	x3,x29,0x13
    800032dc:	020456b3          	divu	x13,x8,x0
    800032e0:	0065543b          	srlw	x8,x10,x6
    800032e4:	024712b3          	mulh	x5,x14,x4
    800032e8:	12db0b93          	addi	x23,x22,301 # c6ff51ed <_start+0x46ff51ed>
    800032ec:	02aecd33          	div	x26,x29,x10
    800032f0:	49330597          	auipc	x11,0x49330
    800032f4:	031a51b3          	divu	x3,x20,x17
    800032f8:	2e3b4993          	xori	x19,x22,739
    800032fc:	035f2e33          	mulhsu	x28,x30,x21
    80003300:	40555ebb          	sraw	x29,x10,x5
    80003304:	034c24b3          	mulhsu	x9,x24,x20
    80003308:	2b034d93          	xori	x27,x6,688
    8000330c:	039aebb3          	rem	x23,x21,x25
    80003310:	702ed917          	auipc	x18,0x702ed
    80003314:	03f20233          	mul	x4,x4,x31
    80003318:	01d0169b          	slliw	x13,x0,0x1d
    8000331c:	039197b3          	mulh	x15,x3,x25
    80003320:	010650b3          	srl	x1,x12,x16
    80003324:	03423233          	mulhu	x4,x4,x20
    80003328:	dc812337          	lui	x6,0xdc812
    8000332c:	0345fd33          	remu	x26,x11,x20
    80003330:	015ed0bb          	srlw	x1,x29,x21
    80003334:	02cad733          	divu	x14,x21,x12
    80003338:	67b9f613          	andi	x12,x19,1659
    8000333c:	03c8f3b3          	remu	x7,x17,x28
    80003340:	00f78b3b          	addw	x22,x15,x15
    80003344:	02873233          	mulhu	x4,x14,x8
    80003348:	022e4593          	xori	x11,x28,34
    8000334c:	033e07b3          	mul	x15,x28,x19
    80003350:	af30cd37          	lui	x26,0xaf30c
    80003354:	03548b33          	mul	x22,x9,x21
    80003358:	1583cf13          	xori	x30,x7,344
    8000335c:	031a543b          	divuw	x8,x20,x17
    80003360:	40315e9b          	sraiw	x29,x2,0x3
    80003364:	0376a533          	mulhsu	x10,x13,x23
    80003368:	00581393          	slli	x7,x16,0x5
    8000336c:	036972bb          	remuw	x5,x18,x22
    80003370:	015b163b          	sllw	x12,x22,x21
    80003374:	02a37bbb          	remuw	x23,x6,x10
    80003378:	5e598e93          	addi	x29,x19,1509 # f8825845 <_start+0x78825845>
    8000337c:	0211f033          	remu	x0,x3,x1
    80003380:	01e255b3          	srl	x11,x4,x30
    80003384:	02e886bb          	mulw	x13,x17,x14
    80003388:	c30e1497          	auipc	x9,0xc30e1
    8000338c:	03203ab3          	mulhu	x21,x0,x18
    80003390:	0134171b          	slliw	x14,x8,0x13
    80003394:	03e40f3b          	mulw	x30,x8,x30
    80003398:	01161233          	sll	x4,x12,x17
    8000339c:	021a613b          	remw	x2,x20,x1
    800033a0:	00b8d6bb          	srlw	x13,x17,x11
    800033a4:	0348b2b3          	mulhu	x5,x17,x20
    800033a8:	009a1b1b          	slliw	x22,x20,0x9
    800033ac:	03a62e33          	mulhsu	x28,x12,x26
    800033b0:	f5cc4837          	lui	x16,0xf5cc4
    800033b4:	03513d33          	mulhu	x26,x2,x21
    800033b8:	69ad839b          	addiw	x7,x27,1690 # ffffffff9fc4869a <_start+0xffffffff1fc4869a>
    800033bc:	03e25c3b          	divuw	x24,x4,x30
    800033c0:	ccd52ab7          	lui	x21,0xccd52
    800033c4:	034fa333          	mulhsu	x6,x31,x20
    800033c8:	40168e33          	sub	x28,x13,x1
    800033cc:	025009bb          	mulw	x19,x0,x5
    800033d0:	01252533          	slt	x10,x10,x18
    800033d4:	0361883b          	mulw	x16,x3,x22
    800033d8:	01630033          	add	x0,x6,x22
    800033dc:	03b35133          	divu	x2,x6,x27
    800033e0:	01ec1abb          	sllw	x21,x24,x30
    800033e4:	03927b33          	remu	x22,x4,x25
    800033e8:	019885bb          	addw	x11,x17,x25
    800033ec:	03d5563b          	divuw	x12,x10,x29
    800033f0:	0106fab3          	and	x21,x13,x16
    800033f4:	038f833b          	mulw	x6,x31,x24
    800033f8:	bb0f45b7          	lui	x11,0xbb0f4
    800033fc:	0371d7bb          	divuw	x15,x3,x23
    80003400:	41dcddbb          	sraw	x27,x25,x29
    80003404:	02437cbb          	remuw	x25,x6,x4
    80003408:	018fa933          	slt	x18,x31,x24
    8000340c:	031d74b3          	remu	x9,x26,x17
    80003410:	12bc5e37          	lui	x28,0x12bc5
    80003414:	03bd3c33          	mulhu	x24,x26,x27
    80003418:	e93ac117          	auipc	x2,0xe93ac
    8000341c:	031d2733          	mulhsu	x14,x26,x17
    80003420:	2ac94193          	xori	x3,x18,684
    80003424:	03b79533          	mulh	x10,x15,x27
    80003428:	0029e9b3          	or	x19,x19,x2
    8000342c:	03825e33          	divu	x28,x4,x24
    80003430:	26028d1b          	addiw	x26,x5,608 # ffffffffa1d0c178 <_start+0xffffffff21d0c178>
    80003434:	024e8233          	mul	x4,x29,x4
    80003438:	0903e313          	ori	x6,x7,144
    8000343c:	02c643bb          	divw	x7,x12,x12
    80003440:	a2555db7          	lui	x27,0xa2555
    80003444:	03f58ebb          	mulw	x29,x11,x31
    80003448:	00f79b13          	slli	x22,x15,0xf
    8000344c:	039ca433          	mulhsu	x8,x25,x25
    80003450:	017ade1b          	srliw	x28,x21,0x17
    80003454:	0213f533          	remu	x10,x7,x1
    80003458:	047bec97          	auipc	x25,0x47be
    8000345c:	0358c333          	div	x6,x17,x21
    80003460:	3a76841b          	addiw	x8,x13,935 # 6b5f7617 <_start-0x14a089e9>
    80003464:	02c12533          	mulhsu	x10,x2,x12
    80003468:	13ea8b9b          	addiw	x23,x21,318 # ffffffffccd5213e <_start+0xffffffff4cd5213e>
    8000346c:	036c9133          	mulh	x2,x25,x22
    80003470:	40e38a33          	sub	x20,x7,x14
    80003474:	03863933          	mulhu	x18,x12,x24
    80003478:	538e2b13          	slti	x22,x28,1336
    8000347c:	02da853b          	mulw	x10,x21,x13
    80003480:	401783bb          	subw	x7,x15,x1
    80003484:	03ed1f33          	mulh	x30,x26,x30
    80003488:	56ee8813          	addi	x16,x29,1390
    8000348c:	023dddbb          	divuw	x27,x27,x3
    80003490:	01ab71b3          	and	x3,x22,x26
    80003494:	027b92b3          	mulh	x5,x23,x7
    80003498:	43eb5093          	srai	x1,x22,0x3e
    8000349c:	029e733b          	remuw	x6,x28,x9
    800034a0:	012ad513          	srli	x10,x21,0x12
    800034a4:	029ce43b          	remw	x8,x25,x9
    800034a8:	00d29e1b          	slliw	x28,x5,0xd
    800034ac:	030293b3          	mulh	x7,x5,x16
    800034b0:	01399c9b          	slliw	x25,x19,0x13
    800034b4:	024f7633          	remu	x12,x30,x4
    800034b8:	4a74b493          	sltiu	x9,x9,1191
    800034bc:	027f053b          	mulw	x10,x30,x7
    800034c0:	7250b013          	sltiu	x0,x1,1829
    800034c4:	037c2933          	mulhsu	x18,x24,x23
    800034c8:	00d64233          	xor	x4,x12,x13
    800034cc:	02a1e433          	rem	x8,x3,x10
    800034d0:	7cce3a13          	sltiu	x20,x28,1996
    800034d4:	030a9833          	mulh	x16,x21,x16
    800034d8:	00c6f0b3          	and	x1,x13,x12
    800034dc:	027404b3          	mul	x9,x8,x7
    800034e0:	005451b3          	srl	x3,x8,x5
    800034e4:	037f6e33          	rem	x28,x30,x23
    800034e8:	c2b56137          	lui	x2,0xc2b56
    800034ec:	02a9ca33          	div	x20,x19,x10
    800034f0:	01999ebb          	sllw	x29,x19,x25
    800034f4:	03095abb          	divuw	x21,x18,x16
    800034f8:	58c93c97          	auipc	x25,0x58c93
    800034fc:	03f7e3bb          	remw	x7,x15,x31
    80003500:	4fbe2c13          	slti	x24,x28,1275
    80003504:	03e1e2bb          	remw	x5,x3,x30
    80003508:	f4c0ceb7          	lui	x29,0xf4c0c
    8000350c:	0266ae33          	mulhsu	x28,x13,x6
    80003510:	00888c33          	add	x24,x17,x8
    80003514:	033102bb          	mulw	x5,x2,x19
    80003518:	a93f6337          	lui	x6,0xa93f6
    8000351c:	0297c6b3          	div	x13,x15,x9
    80003520:	d814adb7          	lui	x27,0xd814a
    80003524:	02541c33          	mulh	x24,x8,x5
    80003528:	4024d513          	srai	x10,x9,0x2
    8000352c:	03c75a3b          	divuw	x20,x14,x28
    80003530:	76bd6593          	ori	x11,x26,1899
    80003534:	0323ab33          	mulhsu	x22,x7,x18
    80003538:	6c8fab93          	slti	x23,x31,1736
    8000353c:	03ac8433          	mul	x8,x25,x26
    80003540:	f4532037          	lui	x0,0xf4532
    80003544:	03676c3b          	remw	x24,x14,x22
    80003548:	419784bb          	subw	x9,x15,x25
    8000354c:	02f2c6bb          	divw	x13,x5,x15
    80003550:	24d3f617          	auipc	x12,0x24d3f
    80003554:	03dd52b3          	divu	x5,x26,x29
    80003558:	00e71f1b          	slliw	x30,x14,0xe
    8000355c:	0230d73b          	divuw	x14,x1,x3
    80003560:	00d26db3          	or	x27,x4,x13
    80003564:	0301a333          	mulhsu	x6,x3,x16
    80003568:	40d3d433          	sra	x8,x7,x13
    8000356c:	03272033          	mulhsu	x0,x14,x18
    80003570:	17208b9b          	addiw	x23,x1,370 # 6a6f630a <_start-0x15909cf6>
    80003574:	03437d33          	remu	x26,x6,x20
    80003578:	01bc5ebb          	srlw	x29,x24,x27
    8000357c:	025ff033          	remu	x0,x31,x5
    80003580:	89391c97          	auipc	x25,0x89391
    80003584:	02c38c3b          	mulw	x24,x7,x12
    80003588:	01c8d73b          	srlw	x14,x17,x28
    8000358c:	033d1133          	mulh	x2,x26,x19
    80003590:	40cb07b3          	sub	x15,x22,x12
    80003594:	021409bb          	mulw	x19,x8,x1
    80003598:	03cdd693          	srli	x13,x27,0x3c
    8000359c:	03e48ebb          	mulw	x29,x9,x30
    800035a0:	01a2fb33          	and	x22,x5,x26
    800035a4:	021cabb3          	mulhsu	x23,x25,x1
    800035a8:	005c4d33          	xor	x26,x24,x5
    800035ac:	032540b3          	div	x1,x10,x18
    800035b0:	12b85317          	auipc	x6,0x12b85
    800035b4:	0351a7b3          	mulhsu	x15,x3,x21
    800035b8:	ae4ffa97          	auipc	x21,0xae4ff
    800035bc:	025f0cbb          	mulw	x25,x30,x5
    800035c0:	2ce80e93          	addi	x29,x16,718 # fffffffff5cc42ce <_start+0xffffffff75cc42ce>
    800035c4:	03703db3          	mulhu	x27,x0,x23
    800035c8:	01a7833b          	addw	x6,x15,x26
    800035cc:	02a889bb          	mulw	x19,x17,x10
    800035d0:	007113b3          	sll	x7,x2,x7
    800035d4:	03e24433          	div	x8,x4,x30
    800035d8:	01118533          	add	x10,x3,x17
    800035dc:	02daeb33          	rem	x22,x21,x13
    800035e0:	01c31c33          	sll	x24,x6,x28
    800035e4:	03fd88b3          	mul	x17,x27,x31
    800035e8:	4034543b          	sraw	x8,x8,x3
    800035ec:	0206ccb3          	div	x25,x13,x0
    800035f0:	002f16bb          	sllw	x13,x30,x2
    800035f4:	0243a3b3          	mulhsu	x7,x7,x4
    800035f8:	ce284417          	auipc	x8,0xce284
    800035fc:	02e6783b          	remuw	x16,x12,x14
    80003600:	0175959b          	slliw	x11,x11,0x17
    80003604:	03cf2033          	mulhsu	x0,x30,x28
    80003608:	01e41893          	slli	x17,x8,0x1e
    8000360c:	02525ab3          	divu	x21,x4,x5
    80003610:	7734c637          	lui	x12,0x7734c
    80003614:	0273ec33          	rem	x24,x7,x7
    80003618:	1d6fc737          	lui	x14,0x1d6fc
    8000361c:	032fdcb3          	divu	x25,x31,x18
    80003620:	406b559b          	sraiw	x11,x22,0x6
    80003624:	03db4d33          	div	x26,x22,x29
    80003628:	400bda1b          	sraiw	x20,x23,0x0
    8000362c:	02fdc7b3          	div	x15,x27,x15
    80003630:	60560593          	addi	x11,x12,1541 # 7734c605 <_start-0x8cb39fb>
    80003634:	03c711b3          	mulh	x3,x14,x28
    80003638:	40540eb3          	sub	x29,x8,x5
    8000363c:	03f70dbb          	mulw	x27,x14,x31
    80003640:	019c6033          	or	x0,x24,x25
    80003644:	0331c4bb          	divw	x9,x3,x19
    80003648:	283ce513          	ori	x10,x25,643
    8000364c:	028781b3          	mul	x3,x15,x8
    80003650:	707e4793          	xori	x15,x28,1799
    80003654:	02ed0033          	mul	x0,x26,x14
    80003658:	207d5f37          	lui	x30,0x207d5
    8000365c:	033a423b          	divw	x4,x20,x19
    80003660:	ddc9f837          	lui	x16,0xddc9f
    80003664:	02d9d3b3          	divu	x7,x19,x13
    80003668:	02aeb7b7          	lui	x15,0x2aeb
    8000366c:	0339ed33          	rem	x26,x19,x19
    80003670:	00101db3          	sll	x27,x0,x1
    80003674:	035483b3          	mul	x7,x9,x21
    80003678:	37b18513          	addi	x10,x3,891 # fffffffff20ba37b <_start+0xffffffff720ba37b>
    8000367c:	028d6ab3          	rem	x21,x26,x8
    80003680:	ca178897          	auipc	x17,0xca178
    80003684:	02cbcc3b          	divw	x24,x23,x12
    80003688:	00200d33          	add	x26,x0,x2
    8000368c:	03344dbb          	divw	x27,x8,x19
    80003690:	5262ae97          	auipc	x29,0x5262a
    80003694:	029676b3          	remu	x13,x12,x9
    80003698:	4080543b          	sraw	x8,x0,x8
    8000369c:	03a67c3b          	remuw	x24,x12,x26
    800036a0:	59987593          	andi	x11,x16,1433
    800036a4:	02fbf9b3          	remu	x19,x23,x15
    800036a8:	41fddc9b          	sraiw	x25,x27,0x1f
    800036ac:	0254f63b          	remuw	x12,x9,x5
    800036b0:	2af80a1b          	addiw	x20,x16,687 # ffffffffddc9f2af <_start+0xffffffff5dc9f2af>
    800036b4:	03b06f33          	rem	x30,x0,x27
    800036b8:	00728833          	add	x16,x5,x7
    800036bc:	02f703bb          	mulw	x7,x14,x15
    800036c0:	018216b3          	sll	x13,x4,x24
    800036c4:	03316db3          	rem	x27,x2,x19
    800036c8:	42a4d613          	srai	x12,x9,0x2a
    800036cc:	027527b3          	mulhsu	x15,x10,x7
    800036d0:	41600833          	sub	x16,x0,x22
    800036d4:	03d59bb3          	mulh	x23,x11,x29
    800036d8:	197d7613          	andi	x12,x26,407
    800036dc:	039b42bb          	divw	x5,x22,x25
    800036e0:	00e79993          	slli	x19,x15,0xe
    800036e4:	02e36733          	rem	x14,x6,x14
    800036e8:	035a9593          	slli	x11,x21,0x35
    800036ec:	02d3a533          	mulhsu	x10,x7,x13
    800036f0:	41f1833b          	subw	x6,x3,x31
    800036f4:	032036b3          	mulhu	x13,x0,x18
    800036f8:	40fc083b          	subw	x16,x24,x15
    800036fc:	0247893b          	mulw	x18,x15,x4
    80003700:	53ec4417          	auipc	x8,0x53ec4
    80003704:	03aa5abb          	divuw	x21,x20,x26
    80003708:	00429d9b          	slliw	x27,x5,0x4
    8000370c:	025862b3          	rem	x5,x16,x5
    80003710:	622bec93          	ori	x25,x23,1570
    80003714:	03caa333          	mulhsu	x6,x21,x28
    80003718:	1091b413          	sltiu	x8,x3,265
    8000371c:	025846b3          	div	x13,x16,x5
    80003720:	407a88b3          	sub	x17,x21,x7
    80003724:	02efe733          	rem	x14,x31,x14
    80003728:	5fcb099b          	addiw	x19,x22,1532
    8000372c:	030392b3          	mulh	x5,x7,x16
    80003730:	802c5017          	auipc	x0,0x802c5
    80003734:	034ca7b3          	mulhsu	x15,x25,x20
    80003738:	81f5d237          	lui	x4,0x81f5d
    8000373c:	036879b3          	remu	x19,x16,x22
    80003740:	cde26537          	lui	x10,0xcde26
    80003744:	03b5e033          	rem	x0,x11,x27
    80003748:	012f0ab3          	add	x21,x30,x18
    8000374c:	03914433          	div	x8,x2,x25
    80003750:	badf8a37          	lui	x20,0xbadf8
    80003754:	03988db3          	mul	x27,x17,x25
    80003758:	0073cfb3          	xor	x31,x7,x7
    8000375c:	028556bb          	divuw	x13,x10,x8
    80003760:	4dcd4a13          	xori	x20,x26,1244
    80003764:	03539d33          	mulh	x26,x7,x21
    80003768:	a14e2637          	lui	x12,0xa14e2
    8000376c:	029b1433          	mulh	x8,x22,x9
    80003770:	002c8e3b          	addw	x28,x25,x2
    80003774:	034005bb          	mulw	x11,x0,x20
    80003778:	01087b33          	and	x22,x16,x16
    8000377c:	03a79f33          	mulh	x30,x15,x26
    80003780:	47384037          	lui	x0,0x47384
    80003784:	03fe6333          	rem	x6,x28,x31
    80003788:	68370493          	addi	x9,x14,1667 # 1d6fc683 <_start-0x6290397d>
    8000378c:	034d5ebb          	divuw	x29,x26,x20
    80003790:	7f1cfd13          	andi	x26,x25,2033
    80003794:	03e276bb          	remuw	x13,x4,x30
    80003798:	6de30db7          	lui	x27,0x6de30
    8000379c:	0289d63b          	divuw	x12,x19,x8
    800037a0:	00489c93          	slli	x25,x17,0x4
    800037a4:	022857bb          	divuw	x15,x16,x2
    800037a8:	00ba0933          	add	x18,x20,x11
    800037ac:	03c2ec3b          	remw	x24,x5,x28
    800037b0:	ed95ad97          	auipc	x27,0xed95a
    800037b4:	03ce5233          	divu	x4,x28,x28
    800037b8:	4b6faf97          	auipc	x31,0x4b6fa
    800037bc:	02ef0cb3          	mul	x25,x30,x14
    800037c0:	f4167c37          	lui	x24,0xf4167
    800037c4:	024758bb          	divuw	x17,x14,x4
    800037c8:	1c263e13          	sltiu	x28,x12,450
    800037cc:	0279f5bb          	remuw	x11,x19,x7
    800037d0:	7eb1f013          	andi	x0,x3,2027
    800037d4:	03a6e9bb          	remw	x19,x13,x26
    800037d8:	01cf813b          	addw	x2,x31,x28
    800037dc:	02ff0f3b          	mulw	x30,x30,x15
    800037e0:	dd8a3a97          	auipc	x21,0xdd8a3
    800037e4:	02621cb3          	mulh	x25,x4,x6
    800037e8:	3ac07697          	auipc	x13,0x3ac07
    800037ec:	036961b3          	rem	x3,x18,x22
    800037f0:	40ae0fb3          	sub	x31,x28,x10
    800037f4:	026b7bbb          	remuw	x23,x22,x6
    800037f8:	00e2d6bb          	srlw	x13,x5,x14
    800037fc:	0232b4b3          	mulhu	x9,x5,x3
    80003800:	412ad533          	sra	x10,x21,x18
    80003804:	02fdd0bb          	divuw	x1,x27,x15
    80003808:	758f1f37          	lui	x30,0x758f1
    8000380c:	0251a6b3          	mulhsu	x13,x3,x5
    80003810:	0385df93          	srli	x31,x11,0x38
    80003814:	02f4c7b3          	div	x15,x9,x15
    80003818:	42b88113          	addi	x2,x17,1067 # 4a17baab <_start-0x35e84555>
    8000381c:	02aa5f3b          	divuw	x30,x20,x10
    80003820:	baa65bb7          	lui	x23,0xbaa65
    80003824:	02d43ab3          	mulhu	x21,x8,x13
    80003828:	ac3fb597          	auipc	x11,0xac3fb
    8000382c:	036787b3          	mul	x15,x15,x22
    80003830:	41ed7393          	andi	x7,x26,1054
    80003834:	02ec763b          	remuw	x12,x24,x14
    80003838:	009e84bb          	addw	x9,x29,x9
    8000383c:	032c79b3          	remu	x19,x24,x18
    80003840:	40f5ddb3          	sra	x27,x11,x15
    80003844:	03cc9f33          	mulh	x30,x25,x28
    80003848:	0090503b          	srlw	x0,x0,x9
    8000384c:	032a33b3          	mulhu	x7,x20,x18
    80003850:	5638b213          	sltiu	x4,x17,1379
    80003854:	02e76b33          	rem	x22,x14,x14
    80003858:	9b721817          	auipc	x16,0x9b721
    8000385c:	02e0e63b          	remw	x12,x1,x14
    80003860:	36450913          	addi	x18,x10,868 # ffffffffcde26364 <_start+0xffffffff4de26364>
    80003864:	03898c3b          	mulw	x24,x19,x24
    80003868:	013e9693          	slli	x13,x29,0x13
    8000386c:	029bebb3          	rem	x23,x23,x9
    80003870:	30723313          	sltiu	x6,x4,775
    80003874:	03af6ab3          	rem	x21,x30,x26
    80003878:	01beb033          	sltu	x0,x29,x27
    8000387c:	02f89533          	mulh	x10,x17,x15
    80003880:	00537433          	and	x8,x6,x5
    80003884:	03dd5c3b          	divuw	x24,x26,x29
    80003888:	3fc5f693          	andi	x13,x11,1020
    8000388c:	02b0713b          	remuw	x2,x0,x11
    80003890:	34a08b93          	addi	x23,x1,842
    80003894:	02372433          	mulhsu	x8,x14,x3
    80003898:	d0a2dfb7          	lui	x31,0xd0a2d
    8000389c:	031df0bb          	remuw	x1,x27,x17
    800038a0:	22e03893          	sltiu	x17,x0,558
    800038a4:	02ebd5b3          	divu	x11,x23,x14
    800038a8:	a62a2d17          	auipc	x26,0xa62a2
    800038ac:	03855c3b          	divuw	x24,x10,x24
    800038b0:	01390fb3          	add	x31,x18,x19
    800038b4:	02c3833b          	mulw	x6,x7,x12
    800038b8:	0ab0b693          	sltiu	x13,x1,171
    800038bc:	02977a3b          	remuw	x20,x14,x9
    800038c0:	19af5c37          	lui	x24,0x19af5
    800038c4:	0217e733          	rem	x14,x15,x1
    800038c8:	d693a6b7          	lui	x13,0xd693a
    800038cc:	0278e03b          	remw	x0,x17,x7
    800038d0:	005b9f9b          	slliw	x31,x23,0x5
    800038d4:	023cf1bb          	remuw	x3,x25,x3
    800038d8:	15b61cb7          	lui	x25,0x15b61
    800038dc:	02a31933          	mulh	x18,x6,x10
    800038e0:	01d3d413          	srli	x8,x7,0x1d
    800038e4:	02cbdab3          	divu	x21,x23,x12
    800038e8:	417d84b3          	sub	x9,x27,x23
    800038ec:	0238c93b          	divw	x18,x17,x3
    800038f0:	4df3a693          	slti	x13,x7,1247
    800038f4:	031402bb          	mulw	x5,x8,x17
    800038f8:	fddcfcb7          	lui	x25,0xfddcf
    800038fc:	030e4bbb          	divw	x23,x28,x16
    80003900:	4a318e37          	lui	x28,0x4a318
    80003904:	0289d8b3          	divu	x17,x19,x8
    80003908:	2d344013          	xori	x0,x8,723
    8000390c:	02654a3b          	divw	x20,x10,x6
    80003910:	088ff513          	andi	x10,x31,136
    80003914:	03ac9eb3          	mulh	x29,x25,x26
    80003918:	2c2d6037          	lui	x0,0x2c2d6
    8000391c:	0280f9bb          	remuw	x19,x1,x8
    80003920:	2a66009b          	addiw	x1,x12,678 # ffffffffa14e22a6 <_start+0xffffffff214e22a6>
    80003924:	02da82b3          	mul	x5,x21,x13
    80003928:	42a35e13          	srai	x28,x6,0x2a
    8000392c:	022fd4bb          	divuw	x9,x31,x2
    80003930:	4115d033          	sra	x0,x11,x17
    80003934:	022d7133          	remu	x2,x26,x2
    80003938:	d1b6dd17          	auipc	x26,0xd1b6d
    8000393c:	0243fb3b          	remuw	x22,x7,x4
    80003940:	41685393          	srai	x7,x16,0x16
    80003944:	02318ebb          	mulw	x29,x3,x3
    80003948:	4e6ec037          	lui	x0,0x4e6ec
    8000394c:	03853f33          	mulhu	x30,x10,x24
    80003950:	a54d8837          	lui	x16,0xa54d8
    80003954:	023e42b3          	div	x5,x28,x3
    80003958:	fb55d937          	lui	x18,0xfb55d
    8000395c:	0210bdb3          	mulhu	x27,x1,x1
    80003960:	415a013b          	subw	x2,x20,x21
    80003964:	0375f8b3          	remu	x17,x11,x23
    80003968:	0075a633          	slt	x12,x11,x7
    8000396c:	037df0bb          	remuw	x1,x27,x23
    80003970:	4eadc593          	xori	x11,x27,1258
    80003974:	031a543b          	divuw	x8,x20,x17
    80003978:	4d1d7317          	auipc	x6,0x4d1d7
    8000397c:	03627abb          	remuw	x21,x4,x22
    80003980:	c10bbfb7          	lui	x31,0xc10bb
    80003984:	03a7763b          	remuw	x12,x14,x26
    80003988:	ab925d17          	auipc	x26,0xab925
    8000398c:	02d08033          	mul	x0,x1,x13
    80003990:	01dc3733          	sltu	x14,x24,x29
    80003994:	039b593b          	divuw	x18,x22,x25
    80003998:	01944433          	xor	x8,x8,x25
    8000399c:	023cc333          	div	x6,x25,x3
    800039a0:	0108903b          	sllw	x0,x17,x16
    800039a4:	02b7f5bb          	remuw	x11,x15,x11
    800039a8:	b3d8f817          	auipc	x16,0xb3d8f
    800039ac:	02299f33          	mulh	x30,x19,x2
    800039b0:	2fba9d97          	auipc	x27,0x2fba9
    800039b4:	0346cebb          	divw	x29,x13,x20
    800039b8:	963c1b97          	auipc	x23,0x963c1
    800039bc:	03268fbb          	mulw	x31,x13,x18
    800039c0:	141c2793          	slti	x15,x24,321
    800039c4:	025874bb          	remuw	x9,x16,x5
    800039c8:	549bf513          	andi	x10,x23,1353
    800039cc:	036dc5bb          	divw	x11,x27,x22
    800039d0:	2577ca93          	xori	x21,x15,599
    800039d4:	020d31b3          	mulhu	x3,x26,x0
    800039d8:	00511b1b          	slliw	x22,x2,0x5
    800039dc:	03bca833          	mulhsu	x16,x25,x27
    800039e0:	40506eb7          	lui	x29,0x40506
    800039e4:	03f16233          	rem	x4,x2,x31
    800039e8:	40955c33          	sra	x24,x10,x9
    800039ec:	03c849bb          	divw	x19,x16,x28
    800039f0:	007b5b33          	srl	x22,x22,x7
    800039f4:	02391f33          	mulh	x30,x18,x3
    800039f8:	404401bb          	subw	x3,x8,x4
    800039fc:	028703bb          	mulw	x7,x14,x8
    80003a00:	41d25a1b          	sraiw	x20,x4,0x1d
    80003a04:	036b443b          	divw	x8,x22,x22
    80003a08:	409bdb93          	srai	x23,x23,0x9
    80003a0c:	02e9c6bb          	divw	x13,x19,x14
    80003a10:	0f8cf913          	andi	x18,x25,248
    80003a14:	03e0763b          	remuw	x12,x0,x30
    80003a18:	132f3b93          	sltiu	x23,x30,306
    80003a1c:	02d06cbb          	remw	x25,x0,x13
    80003a20:	a31ebf97          	auipc	x31,0xa31eb
    80003a24:	026d423b          	divw	x4,x26,x6
    80003a28:	77468b1b          	addiw	x22,x13,1908 # ffffffffd693a774 <_start+0xffffffff5693a774>
    80003a2c:	03c5cd3b          	divw	x26,x11,x28
    80003a30:	9a6e6c37          	lui	x24,0x9a6e6
    80003a34:	0232d033          	divu	x0,x5,x3
    80003a38:	4149d49b          	sraiw	x9,x19,0x14
    80003a3c:	033d9a33          	mulh	x20,x27,x19
    80003a40:	762fac93          	slti	x25,x31,1890
    80003a44:	030f583b          	divuw	x16,x30,x16
    80003a48:	3d690e93          	addi	x29,x18,982 # fffffffffb55d3d6 <_start+0xffffffff7b55d3d6>
    80003a4c:	027dc533          	div	x10,x27,x7
    80003a50:	66b42197          	auipc	x3,0x66b42
    80003a54:	03e9a933          	mulhsu	x18,x19,x30
    80003a58:	40f10abb          	subw	x21,x2,x15
    80003a5c:	0202f033          	remu	x0,x5,x0
    80003a60:	43ac5213          	srai	x4,x24,0x3a
    80003a64:	02a8463b          	divw	x12,x16,x10
    80003a68:	53b84a93          	xori	x21,x16,1339
    80003a6c:	03d4ca33          	div	x20,x9,x29
    80003a70:	011fae33          	slt	x28,x31,x17
    80003a74:	03f6b6b3          	mulhu	x13,x13,x31
    80003a78:	01bcd43b          	srlw	x8,x25,x27
    80003a7c:	03bb673b          	remw	x14,x22,x27
    80003a80:	003d033b          	addw	x6,x26,x3
    80003a84:	0248e4bb          	remw	x9,x17,x4
    80003a88:	41a4541b          	sraiw	x8,x8,0x1a
    80003a8c:	022803bb          	mulw	x7,x16,x2
    80003a90:	01591793          	slli	x15,x18,0x15
    80003a94:	03f84abb          	divw	x21,x16,x31
    80003a98:	0052cb33          	xor	x22,x5,x5
    80003a9c:	0211e13b          	remw	x2,x3,x1
    80003aa0:	0013f933          	and	x18,x7,x1
    80003aa4:	03ca40b3          	div	x1,x20,x28
    80003aa8:	018cfd33          	and	x26,x25,x24
    80003aac:	0375503b          	divuw	x0,x10,x23
    80003ab0:	413cdc1b          	sraiw	x24,x25,0x13
    80003ab4:	02ee6abb          	remw	x21,x28,x14
    80003ab8:	40a0d4bb          	sraw	x9,x1,x10
    80003abc:	0362b7b3          	mulhu	x15,x5,x22
    80003ac0:	f9ce36b7          	lui	x13,0xf9ce3
    80003ac4:	02159433          	mulh	x8,x11,x1
    80003ac8:	0e800a17          	auipc	x20,0xe800
    80003acc:	030321b3          	mulhsu	x3,x6,x16
    80003ad0:	408cdc9b          	sraiw	x25,x25,0x8
    80003ad4:	02eac8b3          	div	x17,x21,x14
    80003ad8:	09a83493          	sltiu	x9,x16,154
    80003adc:	02a97733          	remu	x14,x18,x10
    80003ae0:	5c03841b          	addiw	x8,x7,1472 # 685385c0 <_start-0x17ac7a40>
    80003ae4:	0349c9bb          	divw	x19,x19,x20
    80003ae8:	412f52b3          	sra	x5,x30,x18
    80003aec:	030b6333          	rem	x6,x22,x16
    80003af0:	40dd563b          	sraw	x12,x26,x13
    80003af4:	03da4a3b          	divw	x20,x20,x29
    80003af8:	01af8d3b          	addw	x26,x31,x26
    80003afc:	0365d9b3          	divu	x19,x11,x22
    80003b00:	207b8fb7          	lui	x31,0x207b8
    80003b04:	037cc03b          	divw	x0,x25,x23
    80003b08:	77a787b7          	lui	x15,0x77a78
    80003b0c:	02ef693b          	remw	x18,x30,x14
    80003b10:	7c561697          	auipc	x13,0x7c561
    80003b14:	030c453b          	divw	x10,x24,x16
    80003b18:	4c2f881b          	addiw	x16,x31,1218 # 207b84c2 <_start-0x5f847b3e>
    80003b1c:	03b89033          	mulh	x0,x17,x27
    80003b20:	40ca8cbb          	subw	x25,x21,x12
    80003b24:	02d0e4bb          	remw	x9,x1,x13
    80003b28:	01991f9b          	slliw	x31,x18,0x19
    80003b2c:	03ca5033          	divu	x0,x20,x28
    80003b30:	29020e17          	auipc	x28,0x29020
    80003b34:	0290893b          	mulw	x18,x1,x9
    80003b38:	41098c33          	sub	x24,x19,x16
    80003b3c:	031d0db3          	mul	x27,x26,x17
    80003b40:	00e5e3b3          	or	x7,x11,x14
    80003b44:	021000bb          	mulw	x1,x0,x1
    80003b48:	cf60b797          	auipc	x15,0xcf60b
    80003b4c:	03cd0bbb          	mulw	x23,x26,x28
    80003b50:	26a46013          	ori	x0,x8,618
    80003b54:	0388f633          	remu	x12,x17,x24
    80003b58:	01a21593          	slli	x11,x4,0x1a
    80003b5c:	03a16cbb          	remw	x25,x2,x26
    80003b60:	010e8d33          	add	x26,x29,x16
    80003b64:	02a1be33          	mulhu	x28,x3,x10
    80003b68:	5ac43793          	sltiu	x15,x8,1452
    80003b6c:	0271f03b          	remuw	x0,x3,x7
    80003b70:	efed9c97          	auipc	x25,0xefed9
    80003b74:	030bcbbb          	divw	x23,x23,x16
    80003b78:	03921f13          	slli	x30,x4,0x39
    80003b7c:	03ddc13b          	divw	x2,x27,x29
    80003b80:	45d78c17          	auipc	x24,0x45d78
    80003b84:	0373733b          	remuw	x6,x6,x23
    80003b88:	69c37e17          	auipc	x28,0x69c37
    80003b8c:	03651733          	mulh	x14,x10,x22
    80003b90:	0e35fb37          	lui	x22,0xe35f
    80003b94:	03adbeb3          	mulhu	x29,x27,x26
    80003b98:	74e58993          	addi	x19,x11,1870 # 2c3fef76 <_start-0x53c0108a>
    80003b9c:	03f5433b          	divw	x6,x10,x31
    80003ba0:	47c26213          	ori	x4,x4,1148
    80003ba4:	02a450bb          	divuw	x1,x8,x10
    80003ba8:	411fee93          	ori	x29,x31,1041
    80003bac:	023d1a33          	mulh	x20,x26,x3
    80003bb0:	ff918917          	auipc	x18,0xff918
    80003bb4:	039cd9b3          	divu	x19,x25,x25
    80003bb8:	53cceab7          	lui	x21,0x53cce
    80003bbc:	037a44bb          	divw	x9,x20,x23
    80003bc0:	0122903b          	sllw	x0,x5,x18
    80003bc4:	032c6e33          	rem	x28,x24,x18
    80003bc8:	01379313          	slli	x6,x15,0x13
    80003bcc:	03424c3b          	divw	x24,x4,x20
    80003bd0:	9b8b3917          	auipc	x18,0x9b8b3
    80003bd4:	03902b33          	mulhsu	x22,x0,x25
    80003bd8:	019a5e9b          	srliw	x29,x20,0x19
    80003bdc:	03956db3          	rem	x27,x10,x25
    80003be0:	3a71f597          	auipc	x11,0x3a71f
    80003be4:	026356b3          	divu	x13,x6,x6
    80003be8:	beaa4f37          	lui	x30,0xbeaa4
    80003bec:	03535933          	divu	x18,x6,x21
    80003bf0:	5fdc7213          	andi	x4,x24,1533
    80003bf4:	03f816b3          	mulh	x13,x16,x31
    80003bf8:	03ff9f13          	slli	x30,x31,0x3f
    80003bfc:	03aaec33          	rem	x24,x21,x26
    80003c00:	5aac6fb7          	lui	x31,0x5aac6
    80003c04:	03c6cdbb          	divw	x27,x13,x28
    80003c08:	37568b9b          	addiw	x23,x13,885 # fffffffffc564e85 <_start+0xffffffff7c564e85>
    80003c0c:	02f5a633          	mulhsu	x12,x11,x15
    80003c10:	40505a3b          	sraw	x20,x0,x5
    80003c14:	0225f933          	remu	x18,x11,x2
    80003c18:	95f5f0b7          	lui	x1,0x95f5f
    80003c1c:	0297613b          	remw	x2,x14,x9
    80003c20:	01b20a3b          	addw	x20,x4,x27
    80003c24:	03c9d233          	divu	x4,x19,x28
    80003c28:	01e950bb          	srlw	x1,x18,x30
    80003c2c:	039761b3          	rem	x3,x14,x25
    80003c30:	009d29b3          	slt	x19,x26,x9
    80003c34:	020c56bb          	divuw	x13,x24,x0
    80003c38:	01a95733          	srl	x14,x18,x26
    80003c3c:	0329683b          	remw	x16,x18,x18
    80003c40:	00131633          	sll	x12,x6,x1
    80003c44:	0290e3bb          	remw	x7,x1,x9
    80003c48:	aa836897          	auipc	x17,0xaa836
    80003c4c:	03e1e733          	rem	x14,x3,x30
    80003c50:	f0719517          	auipc	x10,0xf0719
    80003c54:	02036e3b          	remw	x28,x6,x0
    80003c58:	00d41dbb          	sllw	x27,x8,x13
    80003c5c:	02ea833b          	mulw	x6,x21,x14
    80003c60:	78a6fd13          	andi	x26,x13,1930
    80003c64:	02f6803b          	mulw	x0,x13,x15
    80003c68:	40a0de1b          	sraiw	x28,x1,0xa
    80003c6c:	039a08bb          	mulw	x17,x20,x25
    80003c70:	01241db3          	sll	x27,x8,x18
    80003c74:	0304b7b3          	mulhu	x15,x9,x16
    80003c78:	0033983b          	sllw	x16,x7,x3
    80003c7c:	03993d33          	mulhu	x26,x18,x25
    80003c80:	0065ecb3          	or	x25,x11,x6
    80003c84:	02b9073b          	mulw	x14,x18,x11
    80003c88:	9ab10137          	lui	x2,0x9ab10
    80003c8c:	02d504bb          	mulw	x9,x10,x13
    80003c90:	03be5e93          	srli	x29,x28,0x3b
    80003c94:	03f7cc3b          	divw	x24,x15,x31
    80003c98:	cd676ab7          	lui	x21,0xcd676
    80003c9c:	03f1c43b          	divw	x8,x3,x31
    80003ca0:	8cc6fd37          	lui	x26,0x8cc6f
    80003ca4:	03ebee3b          	remw	x28,x23,x30
    80003ca8:	40710eb3          	sub	x29,x2,x7
    80003cac:	02cc7233          	remu	x4,x24,x12
    80003cb0:	5774f793          	andi	x15,x9,1399
    80003cb4:	0312fd3b          	remuw	x26,x5,x17
    80003cb8:	0492ed93          	ori	x27,x5,73
    80003cbc:	0376443b          	divw	x8,x12,x23
    80003cc0:	41d0d23b          	sraw	x4,x1,x29
    80003cc4:	0337073b          	mulw	x14,x14,x19
    80003cc8:	582f4613          	xori	x12,x30,1410
    80003ccc:	02be67b3          	rem	x15,x28,x11
    80003cd0:	fba38fb7          	lui	x31,0xfba38
    80003cd4:	0344ddb3          	divu	x27,x9,x20
    80003cd8:	07554d37          	lui	x26,0x7554
    80003cdc:	038f0b33          	mul	x22,x30,x24
    80003ce0:	3c9cf0b7          	lui	x1,0x3c9cf
    80003ce4:	03f9f6bb          	remuw	x13,x19,x31
    80003ce8:	41fa531b          	sraiw	x6,x20,0x1f
    80003cec:	02859bb3          	mulh	x23,x11,x8
    80003cf0:	b719bd37          	lui	x26,0xb719b
    80003cf4:	02823933          	mulhu	x18,x4,x8
    80003cf8:	007a8b33          	add	x22,x21,x7
    80003cfc:	03c460b3          	rem	x1,x8,x28
    80003d00:	00c5a833          	slt	x16,x11,x12
    80003d04:	0338e8bb          	remw	x17,x17,x19
    80003d08:	180b6e13          	ori	x28,x22,384
    80003d0c:	037bc0b3          	div	x1,x23,x23
    80003d10:	407fdf93          	srai	x31,x31,0x7
    80003d14:	03898f33          	mul	x30,x19,x24
    80003d18:	02b85593          	srli	x11,x16,0x2b
    80003d1c:	0337f4b3          	remu	x9,x15,x19
    80003d20:	ca1d67b7          	lui	x15,0xca1d6
    80003d24:	03cd0233          	mul	x4,x26,x28
    80003d28:	9420af37          	lui	x30,0x9420a
    80003d2c:	02748a3b          	mulw	x20,x9,x7
    80003d30:	fa4d1617          	auipc	x12,0xfa4d1
    80003d34:	03d962b3          	rem	x5,x18,x29
    80003d38:	41ac8c33          	sub	x24,x25,x26
    80003d3c:	022887bb          	mulw	x15,x17,x2
    80003d40:	00eae4b3          	or	x9,x21,x14
    80003d44:	034731b3          	mulhu	x3,x14,x20
    80003d48:	014b68b3          	or	x17,x22,x20
    80003d4c:	03547f3b          	remuw	x30,x8,x21
    80003d50:	9b6f7c37          	lui	x24,0x9b6f7
    80003d54:	03d5e633          	rem	x12,x11,x29
    80003d58:	850e03b7          	lui	x7,0x850e0
    80003d5c:	03bce333          	rem	x6,x25,x27
    80003d60:	6ee27013          	andi	x0,x4,1774
    80003d64:	0379d0b3          	divu	x1,x19,x23
    80003d68:	41a1d233          	sra	x4,x3,x26
    80003d6c:	02fe65bb          	remw	x11,x28,x15
    80003d70:	e0df4e97          	auipc	x29,0xe0df4
    80003d74:	0201d2bb          	divuw	x5,x3,x0
    80003d78:	007617b3          	sll	x15,x12,x7
    80003d7c:	02c48dbb          	mulw	x27,x9,x12
    80003d80:	410a55bb          	sraw	x11,x20,x16
    80003d84:	02128cbb          	mulw	x25,x5,x1
    80003d88:	a505e397          	auipc	x7,0xa505e
    80003d8c:	03a638b3          	mulhu	x17,x12,x26
    80003d90:	01d0d83b          	srlw	x16,x1,x29
    80003d94:	032adcb3          	divu	x25,x21,x18
    80003d98:	9aa29a97          	auipc	x21,0x9aa29
    80003d9c:	038b79b3          	remu	x19,x22,x24
    80003da0:	45ae0137          	lui	x2,0x45ae0
    80003da4:	03aa44bb          	divw	x9,x20,x26
    80003da8:	2666f197          	auipc	x3,0x2666f
    80003dac:	03fea433          	mulhsu	x8,x29,x31
    80003db0:	01d3833b          	addw	x6,x7,x29
    80003db4:	03d58fbb          	mulw	x31,x11,x29
    80003db8:	2f8b8937          	lui	x18,0x2f8b8
    80003dbc:	02f4ecbb          	remw	x25,x9,x15
    80003dc0:	416850bb          	sraw	x1,x16,x22
    80003dc4:	0372d333          	divu	x6,x5,x23
    80003dc8:	008b5833          	srl	x16,x22,x8
    80003dcc:	0207bcb3          	mulhu	x25,x15,x0
    80003dd0:	0311b493          	sltiu	x9,x3,49
    80003dd4:	0206843b          	mulw	x8,x13,x0
    80003dd8:	30a38293          	addi	x5,x7,778 # 25062092 <_start-0x5af9df6e>
    80003ddc:	03358bb3          	mul	x23,x11,x19
    80003de0:	38413017          	auipc	x0,0x38413
    80003de4:	0346eabb          	remw	x21,x13,x20
    80003de8:	12943a13          	sltiu	x20,x8,297
    80003dec:	02c79bb3          	mulh	x23,x15,x12
    80003df0:	6ae2fb13          	andi	x22,x5,1710
    80003df4:	03e26abb          	remw	x21,x4,x30
    80003df8:	79cd4f13          	xori	x30,x26,1948
    80003dfc:	030b84bb          	mulw	x9,x23,x16
    80003e00:	c6f5c837          	lui	x16,0xc6f5c
    80003e04:	0267053b          	mulw	x10,x14,x6
    80003e08:	002b7db3          	and	x27,x22,x2
    80003e0c:	03d064b3          	rem	x9,x0,x29
    80003e10:	003001b3          	add	x3,x0,x3
    80003e14:	02b02b33          	mulhsu	x22,x0,x11
    80003e18:	23840a93          	addi	x21,x8,568 # d3ec7938 <_start+0x53ec7938>
    80003e1c:	03fcf7bb          	remuw	x15,x25,x31
    80003e20:	4135de1b          	sraiw	x28,x11,0x13
    80003e24:	031cf3b3          	remu	x7,x25,x17
    80003e28:	a7293a97          	auipc	x21,0xa7293
    80003e2c:	028b7133          	remu	x2,x22,x8
    80003e30:	001851bb          	srlw	x3,x16,x1
    80003e34:	025cb533          	mulhu	x10,x25,x5
    80003e38:	cf438997          	auipc	x19,0xcf438
    80003e3c:	0246cab3          	div	x21,x13,x4
    80003e40:	0148bc33          	sltu	x24,x17,x20
    80003e44:	03710b33          	mul	x22,x2,x23
    80003e48:	01a0179b          	slliw	x15,x0,0x1a
    80003e4c:	0353c33b          	divw	x6,x7,x21
    80003e50:	a7435097          	auipc	x1,0xa7435
    80003e54:	03869033          	mulh	x0,x13,x24
    80003e58:	0144999b          	slliw	x19,x9,0x14
    80003e5c:	0324c1b3          	div	x3,x9,x18
    80003e60:	01fc5f9b          	srliw	x31,x24,0x1f
    80003e64:	02979933          	mulh	x18,x15,x9
    80003e68:	00bb59b3          	srl	x19,x22,x11
    80003e6c:	035a4eb3          	div	x29,x20,x21
    80003e70:	536d0713          	addi	x14,x26,1334 # ffffffffb719b536 <_start+0xffffffff3719b536>
    80003e74:	0302e7b3          	rem	x15,x5,x16
    80003e78:	416503b3          	sub	x7,x10,x22
    80003e7c:	039605bb          	mulw	x11,x12,x25
    80003e80:	40ce583b          	sraw	x16,x28,x12
    80003e84:	022a6a3b          	remw	x20,x20,x2
    80003e88:	01e234b3          	sltu	x9,x4,x30
    80003e8c:	03b3dd33          	divu	x26,x7,x27
    80003e90:	8f580b37          	lui	x22,0x8f580
    80003e94:	02bf1233          	mulh	x4,x30,x11
    80003e98:	09696e13          	ori	x28,x18,150
    80003e9c:	03b107b3          	mul	x15,x2,x27
    80003ea0:	07f9fb13          	andi	x22,x19,127
    80003ea4:	03bdfdbb          	remuw	x27,x27,x27
    80003ea8:	f14a3017          	auipc	x0,0xf14a3
    80003eac:	03e1bbb3          	mulhu	x23,x3,x30
    80003eb0:	0070bb33          	sltu	x22,x1,x7
    80003eb4:	026d5633          	divu	x12,x26,x6
    80003eb8:	015d3233          	sltu	x4,x26,x21
    80003ebc:	0300eeb3          	rem	x29,x1,x16
    80003ec0:	51ca881b          	addiw	x16,x21,1308 # 27297344 <_start-0x58d68cbc>
    80003ec4:	02ac8333          	mul	x6,x25,x10
    80003ec8:	43345393          	srai	x7,x8,0x33
    80003ecc:	03662433          	mulhsu	x8,x12,x22
    80003ed0:	bed312b7          	lui	x5,0xbed31
    80003ed4:	023c61b3          	rem	x3,x24,x3
    80003ed8:	41f8873b          	subw	x14,x17,x31
    80003edc:	02460b3b          	mulw	x22,x12,x4
    80003ee0:	e99eedb7          	lui	x27,0xe99ee
    80003ee4:	031ad4b3          	divu	x9,x21,x17
    80003ee8:	6841eb93          	ori	x23,x3,1668
    80003eec:	02289cb3          	mulh	x25,x17,x2
    80003ef0:	0161d2bb          	srlw	x5,x3,x22
    80003ef4:	03bc6fbb          	remw	x31,x24,x27
    80003ef8:	66d43a93          	sltiu	x21,x8,1645
    80003efc:	020cc533          	div	x10,x25,x0
    80003f00:	e9aa5337          	lui	x6,0xe9aa5
    80003f04:	02417033          	remu	x0,x2,x4
    80003f08:	01d80abb          	addw	x21,x16,x29
    80003f0c:	032b43b3          	div	x7,x22,x18
    80003f10:	4136561b          	sraiw	x12,x12,0x13
    80003f14:	03b52db3          	mulhsu	x27,x10,x27
    80003f18:	016c199b          	slliw	x19,x24,0x16
    80003f1c:	025ceb3b          	remw	x22,x25,x5
    80003f20:	01c0179b          	slliw	x15,x0,0x1c
    80003f24:	03b42d33          	mulhsu	x26,x8,x27
    80003f28:	d11bb9b7          	lui	x19,0xd11bb
    80003f2c:	02cb92b3          	mulh	x5,x23,x12
    80003f30:	6903af13          	slti	x30,x7,1680
    80003f34:	029bc233          	div	x4,x23,x9
    80003f38:	41dcdcbb          	sraw	x25,x25,x29
    80003f3c:	03d86fbb          	remw	x31,x16,x29
    80003f40:	40d35e33          	sra	x28,x6,x13
    80003f44:	02c4bd33          	mulhu	x26,x9,x12
    80003f48:	406cd83b          	sraw	x16,x25,x6
    80003f4c:	02e10eb3          	mul	x29,x2,x14
    80003f50:	def41637          	lui	x12,0xdef41
    80003f54:	03358133          	mul	x2,x11,x19
    80003f58:	43b6d393          	srai	x7,x13,0x3b
    80003f5c:	023f3933          	mulhu	x18,x30,x3
    80003f60:	6166fb93          	andi	x23,x13,1558
    80003f64:	03b8f433          	remu	x8,x17,x27
    80003f68:	431f5193          	srai	x3,x30,0x31
    80003f6c:	02dae5b3          	rem	x11,x21,x13
    80003f70:	bade8537          	lui	x10,0xbade8
    80003f74:	022e53b3          	divu	x7,x28,x2
    80003f78:	83911137          	lui	x2,0x83911
    80003f7c:	0300b233          	mulhu	x4,x1,x16
    80003f80:	016d0f3b          	addw	x30,x26,x22
    80003f84:	027963b3          	rem	x7,x18,x7
    80003f88:	f3ebe4b7          	lui	x9,0xf3ebe
    80003f8c:	03310733          	mul	x14,x2,x19
    80003f90:	620d4f13          	xori	x30,x26,1568
    80003f94:	02786cbb          	remw	x25,x16,x7
    80003f98:	53e27213          	andi	x4,x4,1342
    80003f9c:	032ba6b3          	mulhsu	x13,x23,x18
    80003fa0:	a05a9e17          	auipc	x28,0xa05a9
    80003fa4:	02e86333          	rem	x6,x16,x14
    80003fa8:	01dcdf9b          	srliw	x31,x25,0x1d
    80003fac:	0342dab3          	divu	x21,x5,x20
    80003fb0:	4107d09b          	sraiw	x1,x15,0x10
    80003fb4:	02023f33          	mulhu	x30,x4,x0
    80003fb8:	00882e33          	slt	x28,x16,x8
    80003fbc:	0372ba33          	mulhu	x20,x5,x23
    80003fc0:	009b5333          	srl	x6,x22,x9
    80003fc4:	032c6cbb          	remw	x25,x24,x18
    80003fc8:	03ad1093          	slli	x1,x26,0x3a
    80003fcc:	038f7f3b          	remuw	x30,x30,x24
    80003fd0:	2ca75bb7          	lui	x23,0x2ca75
    80003fd4:	02ccfe3b          	remuw	x28,x25,x12
    80003fd8:	006983bb          	addw	x7,x19,x6
    80003fdc:	02278ebb          	mulw	x29,x15,x2
    80003fe0:	50990293          	addi	x5,x18,1289 # 2f8b8509 <_start-0x50747af7>
    80003fe4:	03e788bb          	mulw	x17,x15,x30
    80003fe8:	99e81137          	lui	x2,0x99e81
    80003fec:	02ab6ebb          	remw	x29,x22,x10
    80003ff0:	01c9a2b3          	slt	x5,x19,x28
    80003ff4:	03faaab3          	mulhsu	x21,x21,x31
    80003ff8:	c6bf6917          	auipc	x18,0xc6bf6
    80003ffc:	03b5883b          	mulw	x16,x11,x27
    80004000:	5891ae97          	auipc	x29,0x5891a
    80004004:	03ca76b3          	remu	x13,x20,x28
    80004008:	00221a93          	slli	x21,x4,0x2
    8000400c:	02433b33          	mulhu	x22,x6,x4
    80004010:	01db9c1b          	slliw	x24,x23,0x1d
    80004014:	03b285bb          	mulw	x11,x5,x27
    80004018:	60f70d9b          	addiw	x27,x14,1551
    8000401c:	031fd333          	divu	x6,x31,x17
    80004020:	bc61c3b7          	lui	x7,0xbc61c
    80004024:	033b4a33          	div	x20,x22,x19
    80004028:	18947437          	lui	x8,0x18947
    8000402c:	02d5f633          	remu	x12,x11,x13
    80004030:	4097d23b          	sraw	x4,x15,x9
    80004034:	02636a33          	rem	x20,x6,x6
    80004038:	75096837          	lui	x16,0x75096
    8000403c:	036dd53b          	divuw	x10,x27,x22
    80004040:	01d37233          	and	x4,x6,x29
    80004044:	02239733          	mulh	x14,x7,x2
    80004048:	70a0cd17          	auipc	x26,0x70a0c
    8000404c:	035ec9b3          	div	x19,x29,x21
    80004050:	410002bb          	subw	x5,x0,x16
    80004054:	02270a3b          	mulw	x20,x14,x2
    80004058:	48545c37          	lui	x24,0x48545
    8000405c:	020e6733          	rem	x14,x28,x0
    80004060:	000f5bb3          	srl	x23,x30,x0
    80004064:	03554533          	div	x10,x10,x21
    80004068:	01f10dbb          	addw	x27,x2,x31
    8000406c:	02cf3433          	mulhu	x8,x30,x12
    80004070:	7499c2b7          	lui	x5,0x7499c
    80004074:	03eeafb3          	mulhsu	x31,x29,x30
    80004078:	e4f07797          	auipc	x15,0xe4f07
    8000407c:	02cc20b3          	mulhsu	x1,x24,x12
    80004080:	0603f213          	andi	x4,x7,96
    80004084:	039da5b3          	mulhsu	x11,x27,x25
    80004088:	000b4993          	xori	x19,x22,0
    8000408c:	021bd1bb          	divuw	x3,x23,x1
    80004090:	40b8d01b          	sraiw	x0,x17,0xb
    80004094:	0285a5b3          	mulhsu	x11,x11,x8
    80004098:	b1f11b37          	lui	x22,0xb1f11
    8000409c:	023a8633          	mul	x12,x21,x3
    800040a0:	79547493          	andi	x9,x8,1941
    800040a4:	039922b3          	mulhsu	x5,x18,x25
    800040a8:	3600dd17          	auipc	x26,0x3600d
    800040ac:	02b69833          	mulh	x16,x13,x11
    800040b0:	4ba16593          	ori	x11,x2,1210
    800040b4:	0216d533          	divu	x10,x13,x1
    800040b8:	0a173a93          	sltiu	x21,x14,161
    800040bc:	02f0ceb3          	div	x29,x1,x15
    800040c0:	85c1b737          	lui	x14,0x85c1b
    800040c4:	02535e3b          	divuw	x28,x6,x5
    800040c8:	d53ce537          	lui	x10,0xd53ce
    800040cc:	02f38033          	mul	x0,x7,x15
    800040d0:	7c227637          	lui	x12,0x7c227
    800040d4:	03eddcb3          	divu	x25,x27,x30
    800040d8:	c0934f97          	auipc	x31,0xc0934
    800040dc:	0321c233          	div	x4,x3,x18
    800040e0:	00ee9abb          	sllw	x21,x29,x14
    800040e4:	031506b3          	mul	x13,x10,x17
    800040e8:	00ff911b          	slliw	x2,x31,0xf
    800040ec:	036ca5b3          	mulhsu	x11,x25,x22
    800040f0:	e87f6837          	lui	x16,0xe87f6
    800040f4:	026c623b          	remw	x4,x24,x6
    800040f8:	746c5eb7          	lui	x29,0x746c5
    800040fc:	032459bb          	divuw	x19,x8,x18
    80004100:	01785d1b          	srliw	x26,x16,0x17
    80004104:	028f9bb3          	mulh	x23,x31,x8
    80004108:	0167d2b3          	srl	x5,x15,x22
    8000410c:	033a99b3          	mulh	x19,x21,x19
    80004110:	01c9591b          	srliw	x18,x18,0x1c
    80004114:	03126d3b          	remw	x26,x4,x17
    80004118:	01080dbb          	addw	x27,x16,x16
    8000411c:	02c8d9b3          	divu	x19,x17,x12
    80004120:	3ca7b593          	sltiu	x11,x15,970
    80004124:	031be7b3          	rem	x15,x23,x17
    80004128:	002b5d1b          	srliw	x26,x22,0x2
    8000412c:	02572b33          	mulhsu	x22,x14,x5
    80004130:	005699bb          	sllw	x19,x13,x5
    80004134:	0281663b          	remw	x12,x2,x8
    80004138:	73533c13          	sltiu	x24,x6,1845
    8000413c:	027ba833          	mulhsu	x16,x23,x7
    80004140:	002b531b          	srliw	x6,x22,0x2
    80004144:	0219c0b3          	div	x1,x19,x1
    80004148:	e4686c37          	lui	x24,0xe4686
    8000414c:	024c843b          	mulw	x8,x25,x4
    80004150:	79053397          	auipc	x7,0x79053
    80004154:	02fda1b3          	mulhsu	x3,x27,x15
    80004158:	95371617          	auipc	x12,0x95371
    8000415c:	03e0ae33          	mulhsu	x28,x1,x30
    80004160:	01fa5cb3          	srl	x25,x20,x31
    80004164:	020adbbb          	divuw	x23,x21,x0
    80004168:	00b69133          	sll	x2,x13,x11
    8000416c:	03e0fb33          	remu	x22,x1,x30
    80004170:	57b67697          	auipc	x13,0x57b67
    80004174:	0240b833          	mulhu	x16,x1,x4
    80004178:	0099cbb3          	xor	x23,x19,x9
    8000417c:	03ddfa33          	remu	x20,x27,x29
    80004180:	240ed497          	auipc	x9,0x240ed
    80004184:	03b9d3bb          	divuw	x7,x19,x27
    80004188:	01d719b3          	sll	x19,x14,x29
    8000418c:	02a66d33          	rem	x26,x12,x10
    80004190:	40f7023b          	subw	x4,x14,x15
    80004194:	02856bb3          	rem	x23,x10,x8
    80004198:	007e7cb3          	and	x25,x28,x7
    8000419c:	03e360bb          	remw	x1,x6,x30
    800041a0:	2576ff93          	andi	x31,x13,599
    800041a4:	032f53bb          	divuw	x7,x30,x18
    800041a8:	40040f3b          	subw	x30,x8,x0
    800041ac:	03cb91b3          	mulh	x3,x23,x28
    800041b0:	00f0e233          	or	x4,x1,x15
    800041b4:	035d4ab3          	div	x21,x26,x21
    800041b8:	1fafbd93          	sltiu	x27,x31,506
    800041bc:	0306443b          	divw	x8,x12,x16
    800041c0:	00f637b3          	sltu	x15,x12,x15
    800041c4:	02abd233          	divu	x4,x23,x10
    800041c8:	01bdf993          	andi	x19,x27,27
    800041cc:	0278df3b          	divuw	x30,x17,x7
    800041d0:	0881869b          	addiw	x13,x3,136 # ffffffffa6672e30 <_start+0xffffffff26672e30>
    800041d4:	022e4dbb          	divw	x27,x28,x2
    800041d8:	57e96513          	ori	x10,x18,1406
    800041dc:	0237813b          	mulw	x2,x15,x3
    800041e0:	01e9cfb3          	xor	x31,x19,x30
    800041e4:	0363f4b3          	remu	x9,x7,x22
    800041e8:	df910eb7          	lui	x29,0xdf910
    800041ec:	023e0d33          	mul	x26,x28,x3
    800041f0:	562d1a97          	auipc	x21,0x562d1
    800041f4:	03346133          	rem	x2,x8,x19
    800041f8:	aa399337          	lui	x6,0xaa399
    800041fc:	02cde9bb          	remw	x19,x27,x12
    80004200:	e5fa7417          	auipc	x8,0xe5fa7
    80004204:	0228c3bb          	divw	x7,x17,x2
    80004208:	79dde493          	ori	x9,x27,1949
    8000420c:	0225773b          	remuw	x14,x10,x2
    80004210:	004e093b          	addw	x18,x28,x4
    80004214:	035c5a33          	divu	x20,x24,x21
    80004218:	01b55213          	srli	x4,x10,0x1b
    8000421c:	02d3d1bb          	divuw	x3,x7,x13
    80004220:	851158b7          	lui	x17,0x85115
    80004224:	0280603b          	remw	x0,x0,x8
    80004228:	51fb4d93          	xori	x27,x22,1311
    8000422c:	027ed43b          	divuw	x8,x29,x7
    80004230:	0128a5b3          	slt	x11,x17,x18
    80004234:	03f3f7bb          	remuw	x15,x7,x31
    80004238:	c03dff37          	lui	x30,0xc03df
    8000423c:	022d12b3          	mulh	x5,x26,x2
    80004240:	0434b117          	auipc	x2,0x434b
    80004244:	026ee03b          	remw	x0,x29,x6
    80004248:	643a1817          	auipc	x16,0x643a1
    8000424c:	024288bb          	mulw	x17,x5,x4
    80004250:	00c23333          	sltu	x6,x4,x12
    80004254:	02abbab3          	mulhu	x21,x23,x10
    80004258:	139cdc37          	lui	x24,0x139cd
    8000425c:	02ade2b3          	rem	x5,x27,x10
    80004260:	86be2737          	lui	x14,0x86be2
    80004264:	02aa1ab3          	mulh	x21,x20,x10
    80004268:	61533e93          	sltiu	x29,x6,1557
    8000426c:	033486b3          	mul	x13,x9,x19
    80004270:	00391513          	slli	x10,x18,0x3
    80004274:	03a0c2b3          	div	x5,x1,x26
    80004278:	00ed8a33          	add	x20,x27,x14
    8000427c:	0318cab3          	div	x21,x17,x17
    80004280:	0bb52893          	slti	x17,x10,187
    80004284:	025747b3          	div	x15,x14,x5
    80004288:	01e86033          	or	x0,x16,x30
    8000428c:	03c17ebb          	remuw	x29,x2,x28
    80004290:	3c7ed297          	auipc	x5,0x3c7ed
    80004294:	03c39e33          	mulh	x28,x7,x28
    80004298:	401f823b          	subw	x4,x31,x1
    8000429c:	0297efb3          	rem	x31,x15,x9
    800042a0:	01e34633          	xor	x12,x6,x30
    800042a4:	02509b33          	mulh	x22,x1,x5
    800042a8:	0074ca33          	xor	x20,x9,x7
    800042ac:	03b28dbb          	mulw	x27,x5,x27
    800042b0:	0119a037          	lui	x0,0x119a
    800042b4:	0329e233          	rem	x4,x19,x18
    800042b8:	1eab3437          	lui	x8,0x1eab3
    800042bc:	037600bb          	mulw	x1,x12,x23
    800042c0:	40ea86b3          	sub	x13,x21,x14
    800042c4:	02c39e33          	mulh	x28,x7,x12
    800042c8:	00943fb3          	sltu	x31,x8,x9
    800042cc:	03754db3          	div	x27,x10,x23
    800042d0:	95be4937          	lui	x18,0x95be4
    800042d4:	03cd55b3          	divu	x11,x26,x28
    800042d8:	00ed60b3          	or	x1,x26,x14
    800042dc:	035c6d3b          	remw	x26,x24,x21
    800042e0:	798db513          	sltiu	x10,x27,1944
    800042e4:	02be603b          	remw	x0,x28,x11
    800042e8:	41140233          	sub	x4,x8,x17
    800042ec:	02fb0133          	mul	x2,x22,x15
    800042f0:	5ee97813          	andi	x16,x18,1518
    800042f4:	0312debb          	divuw	x29,x5,x17
    800042f8:	40d9df13          	srai	x30,x19,0xd
    800042fc:	03540933          	mul	x18,x8,x21
    80004300:	02d1dc13          	srli	x24,x3,0x2d
    80004304:	024b1fb3          	mulh	x31,x22,x4
    80004308:	2c1f4093          	xori	x1,x30,705
    8000430c:	03381933          	mulh	x18,x16,x19
    80004310:	41b7d6b3          	sra	x13,x15,x27
    80004314:	0359a5b3          	mulhsu	x11,x19,x21
    80004318:	00da9a9b          	slliw	x21,x21,0xd
    8000431c:	03e87fb3          	remu	x31,x16,x30
    80004320:	01d06033          	or	x0,x0,x29
    80004324:	03bdd93b          	divuw	x18,x27,x27
    80004328:	00d410bb          	sllw	x1,x8,x13
    8000432c:	03ac8e33          	mul	x28,x25,x26
    80004330:	48f30c13          	addi	x24,x6,1167 # ffffffffaa39948f <_start+0xffffffff2a39948f>
    80004334:	03efe63b          	remw	x12,x31,x30
    80004338:	74e50813          	addi	x16,x10,1870 # ffffffffd53ce74e <_start+0xffffffff553ce74e>
    8000433c:	027ecabb          	divw	x21,x29,x7
    80004340:	40a55fb3          	sra	x31,x10,x10
    80004344:	033245b3          	div	x11,x4,x19
    80004348:	52d08793          	addi	x15,x1,1325 # 2743937d <_start-0x58bc6c83>
    8000434c:	026be1bb          	remw	x3,x23,x6
    80004350:	170abb13          	sltiu	x22,x21,368
    80004354:	02ce023b          	mulw	x4,x28,x12
    80004358:	8dad4a37          	lui	x20,0x8dad4
    8000435c:	037ee4bb          	remw	x9,x29,x23
    80004360:	758e7713          	andi	x14,x28,1880
    80004364:	03a2d233          	divu	x4,x5,x26
    80004368:	4102d9bb          	sraw	x19,x5,x16
    8000436c:	022463bb          	remw	x7,x8,x2
    80004370:	01129ab3          	sll	x21,x5,x17
    80004374:	029e0c3b          	mulw	x24,x28,x9
    80004378:	050a3f93          	sltiu	x31,x20,80
    8000437c:	0277a4b3          	mulhsu	x9,x15,x7
    80004380:	417f5b1b          	sraiw	x22,x30,0x17
    80004384:	032380bb          	mulw	x1,x7,x18
    80004388:	0432a017          	auipc	x0,0x432a
    8000438c:	037bdcbb          	divuw	x25,x23,x23
    80004390:	5af14193          	xori	x3,x2,1455
    80004394:	022ebeb3          	mulhu	x29,x29,x2
    80004398:	012da0b3          	slt	x1,x27,x18
    8000439c:	029f6cbb          	remw	x25,x30,x9
    800043a0:	9b54f5b7          	lui	x11,0x9b54f
    800043a4:	02003833          	mulhu	x16,x0,x0
    800043a8:	01e79433          	sll	x8,x15,x30
    800043ac:	02c7d733          	divu	x14,x15,x12
    800043b0:	091281b7          	lui	x3,0x9128
    800043b4:	0379763b          	remuw	x12,x18,x23
    800043b8:	7ccc8bb7          	lui	x23,0x7ccc8
    800043bc:	02929133          	mulh	x2,x5,x9
    800043c0:	fe7cf237          	lui	x4,0xfe7cf
    800043c4:	034e49b3          	div	x19,x28,x20
    800043c8:	01e4d5b3          	srl	x11,x9,x30
    800043cc:	03fc61bb          	remw	x3,x24,x31
    800043d0:	00029b9b          	slliw	x23,x5,0x0
    800043d4:	022aa233          	mulhsu	x4,x21,x2
    800043d8:	013fda33          	srl	x20,x31,x19
    800043dc:	03157ebb          	remuw	x29,x10,x17
    800043e0:	449c0017          	auipc	x0,0x449c0
    800043e4:	03b9bf33          	mulhu	x30,x19,x27
    800043e8:	41bdd81b          	sraiw	x16,x27,0x1b
    800043ec:	02edca3b          	divw	x20,x27,x14
    800043f0:	0c1809b7          	lui	x19,0xc180
    800043f4:	02c65dbb          	divuw	x27,x12,x12
    800043f8:	00f1951b          	slliw	x10,x3,0xf
    800043fc:	03a61333          	mulh	x6,x12,x26
    80004400:	5bde1b37          	lui	x22,0x5bde1
    80004404:	02189133          	mulh	x2,x17,x1
    80004408:	2fafa8b7          	lui	x17,0x2fafa
    8000440c:	039269b3          	rem	x19,x4,x25
    80004410:	46ba2613          	slti	x12,x20,1131
    80004414:	03875fbb          	divuw	x31,x14,x24
    80004418:	4120ac17          	auipc	x24,0x4120a
    8000441c:	02350733          	mul	x14,x10,x3
    80004420:	662fc617          	auipc	x12,0x662fc
    80004424:	02b29f33          	mulh	x30,x5,x11
    80004428:	404bda93          	srai	x21,x23,0x4
    8000442c:	02e1753b          	remuw	x10,x2,x14
    80004430:	4128dc33          	sra	x24,x17,x18
    80004434:	0366d03b          	divuw	x0,x13,x22
    80004438:	01b9cfb3          	xor	x31,x19,x27
    8000443c:	02781d33          	mulh	x26,x16,x7
    80004440:	0180853b          	addw	x10,x1,x24
    80004444:	0200f6b3          	remu	x13,x1,x0
    80004448:	8c41f3b7          	lui	x7,0x8c41f
    8000444c:	03b48ebb          	mulw	x29,x9,x27
    80004450:	6bf70197          	auipc	x3,0x6bf70
    80004454:	030257bb          	divuw	x15,x4,x16
    80004458:	4065dc33          	sra	x24,x11,x6
    8000445c:	02b174b3          	remu	x9,x2,x11
    80004460:	29e3c9b7          	lui	x19,0x29e3c
    80004464:	02234cb3          	div	x25,x6,x2
    80004468:	9b2d10b7          	lui	x1,0x9b2d1
    8000446c:	038d73bb          	remuw	x7,x26,x24
    80004470:	00f89593          	slli	x11,x17,0xf
    80004474:	026d863b          	mulw	x12,x27,x6
    80004478:	0971e1b7          	lui	x3,0x971e
    8000447c:	03eb73b3          	remu	x7,x22,x30
    80004480:	0b755497          	auipc	x9,0xb755
    80004484:	02a55d3b          	divuw	x26,x10,x10
    80004488:	a8e47d97          	auipc	x27,0xa8e47
    8000448c:	02598cbb          	mulw	x25,x19,x5
    80004490:	001783bb          	addw	x7,x15,x1
    80004494:	02ba5b3b          	divuw	x22,x20,x11
    80004498:	01899ebb          	sllw	x29,x19,x24
    8000449c:	035e40bb          	divw	x1,x28,x21
    800044a0:	4015dd1b          	sraiw	x26,x11,0x1
    800044a4:	032b683b          	remw	x16,x22,x18
    800044a8:	41275c3b          	sraw	x24,x14,x18
    800044ac:	03ed84bb          	mulw	x9,x27,x30
    800044b0:	00298133          	add	x2,x19,x2
    800044b4:	020fc7bb          	divw	x15,x31,x0
    800044b8:	00007f33          	and	x30,x0,x0
    800044bc:	02beb0b3          	mulhu	x1,x29,x11
    800044c0:	01f49b1b          	slliw	x22,x9,0x1f
    800044c4:	02ee4bbb          	divw	x23,x28,x14
    800044c8:	f819edb7          	lui	x27,0xf819e
    800044cc:	0306e43b          	remw	x8,x13,x16
    800044d0:	d1c19697          	auipc	x13,0xd1c19
    800044d4:	02698fbb          	mulw	x31,x19,x6
    800044d8:	b6ec2617          	auipc	x12,0xb6ec2
    800044dc:	037ec2bb          	divw	x5,x29,x23
    800044e0:	0030843b          	addw	x8,x1,x3
    800044e4:	0247403b          	divw	x0,x14,x4
    800044e8:	eb453797          	auipc	x15,0xeb453
    800044ec:	0370f933          	remu	x18,x1,x23
    800044f0:	417ed233          	sra	x4,x29,x23
    800044f4:	03ae6033          	rem	x0,x28,x26
    800044f8:	00c5b6b3          	sltu	x13,x11,x12
    800044fc:	03916133          	rem	x2,x2,x25
    80004500:	faa1f537          	lui	x10,0xfaa1f
    80004504:	03eb53b3          	divu	x7,x22,x30
    80004508:	01e08a9b          	addiw	x21,x1,30 # ffffffff9b2d101e <_start+0xffffffff1b2d101e>
    8000450c:	03390e3b          	mulw	x28,x18,x19
    80004510:	e7bcab37          	lui	x22,0xe7bca
    80004514:	031c76bb          	remuw	x13,x24,x17
    80004518:	01ddbbb3          	sltu	x23,x27,x29
    8000451c:	03463233          	mulhu	x4,x12,x20
    80004520:	000c97bb          	sllw	x15,x25,x0
    80004524:	020fb733          	mulhu	x14,x31,x0
    80004528:	008d943b          	sllw	x8,x27,x8
    8000452c:	03a5eebb          	remw	x29,x11,x26
    80004530:	503d09b7          	lui	x19,0x503d0
    80004534:	030b04bb          	mulw	x9,x22,x16
    80004538:	dcd2b517          	auipc	x10,0xdcd2b
    8000453c:	03ee5c3b          	divuw	x24,x28,x30
    80004540:	ecad2cb7          	lui	x25,0xecad2
    80004544:	0301d5b3          	divu	x11,x3,x16
    80004548:	4092523b          	sraw	x4,x4,x9
    8000454c:	02e54c3b          	divw	x24,x10,x14
    80004550:	00d3de1b          	srliw	x28,x7,0xd
    80004554:	0395eeb3          	rem	x29,x11,x25
    80004558:	0600009b          	addiw	x1,x0,96
    8000455c:	0326e03b          	remw	x0,x13,x18
    80004560:	2fcf3837          	lui	x16,0x2fcf3
    80004564:	0277f13b          	remuw	x2,x15,x7
    80004568:	9345fd97          	auipc	x27,0x9345f
    8000456c:	02e4fbb3          	remu	x23,x9,x14
    80004570:	01de0cb3          	add	x25,x28,x29
    80004574:	02479533          	mulh	x10,x15,x4
    80004578:	3eabce17          	auipc	x28,0x3eabc
    8000457c:	026b9b33          	mulh	x22,x23,x6
    80004580:	25a18893          	addi	x17,x3,602 # 971e25a <_start-0x768e1da6>
    80004584:	021b9eb3          	mulh	x29,x23,x1
    80004588:	22512193          	slti	x3,x2,549
    8000458c:	02a993b3          	mulh	x7,x19,x10
    80004590:	01eb9a3b          	sllw	x20,x23,x30
    80004594:	03637ab3          	remu	x21,x6,x22
    80004598:	4062d4bb          	sraw	x9,x5,x6
    8000459c:	03958cb3          	mul	x25,x11,x25
    800045a0:	00c7d333          	srl	x6,x15,x12
    800045a4:	02d818b3          	mulh	x17,x16,x13
    800045a8:	41b15393          	srai	x7,x2,0x1b
    800045ac:	03bd693b          	remw	x18,x26,x27
    800045b0:	714caf93          	slti	x31,x25,1812
    800045b4:	020b803b          	mulw	x0,x23,x0
    800045b8:	0656c193          	xori	x3,x13,101
    800045bc:	02bba6b3          	mulhsu	x13,x23,x11
    800045c0:	39460293          	addi	x5,x12,916 # 36ec686c <_start-0x49139794>
    800045c4:	03553fb3          	mulhu	x31,x10,x21
    800045c8:	726a5d97          	auipc	x27,0x726a5
    800045cc:	034e31b3          	mulhu	x3,x28,x20
    800045d0:	005d1933          	sll	x18,x26,x5
    800045d4:	035ecab3          	div	x21,x29,x21
    800045d8:	e724c617          	auipc	x12,0xe724c
    800045dc:	03ac35b3          	mulhu	x11,x24,x26
    800045e0:	016d873b          	addw	x14,x27,x22
    800045e4:	024d703b          	remuw	x0,x26,x4
    800045e8:	411c8bbb          	subw	x23,x25,x17
    800045ec:	023558b3          	divu	x17,x10,x3
    800045f0:	40cb0f33          	sub	x30,x22,x12
    800045f4:	039962bb          	remw	x5,x18,x25
    800045f8:	01a0dcb3          	srl	x25,x1,x26
    800045fc:	02465733          	divu	x14,x12,x4
    80004600:	01406c33          	or	x24,x0,x20
    80004604:	035d883b          	mulw	x16,x27,x21
    80004608:	00f6da9b          	srliw	x21,x13,0xf
    8000460c:	024409bb          	mulw	x19,x8,x4
    80004610:	01ef1b1b          	slliw	x22,x30,0x1e
    80004614:	037970b3          	remu	x1,x18,x23
    80004618:	da92d937          	lui	x18,0xda92d
    8000461c:	03e01133          	mulh	x2,x0,x30
    80004620:	008d141b          	slliw	x8,x26,0x8
    80004624:	02ccc9bb          	divw	x19,x25,x12
    80004628:	4add7d17          	auipc	x26,0x4add7
    8000462c:	02aeddbb          	divuw	x27,x29,x10
    80004630:	8c004317          	auipc	x6,0x8c004
    80004634:	02d0d133          	divu	x2,x1,x13
    80004638:	014838b3          	sltu	x17,x16,x20
    8000463c:	0321bb33          	mulhu	x22,x3,x18
    80004640:	00f7949b          	slliw	x9,x15,0xf
    80004644:	02edfabb          	remuw	x21,x27,x14
    80004648:	01368ebb          	addw	x29,x13,x19
    8000464c:	0214593b          	divuw	x18,x8,x1
    80004650:	2b787213          	andi	x4,x16,695
    80004654:	02840133          	mul	x2,x8,x8
    80004658:	41cd5a33          	sra	x20,x26,x28
    8000465c:	032888bb          	mulw	x17,x17,x18
    80004660:	31c5f213          	andi	x4,x11,796
    80004664:	02317133          	remu	x2,x2,x3
    80004668:	406c593b          	sraw	x18,x24,x6
    8000466c:	023df5b3          	remu	x11,x27,x3
    80004670:	854b6f37          	lui	x30,0x854b6
    80004674:	034c023b          	mulw	x4,x24,x20
    80004678:	0020d11b          	srliw	x2,x1,0x2
    8000467c:	031cc533          	div	x10,x25,x17
    80004680:	019b5993          	srli	x19,x22,0x19
    80004684:	02775d33          	divu	x26,x14,x7
    80004688:	76e88137          	lui	x2,0x76e88
    8000468c:	0275573b          	divuw	x14,x10,x7
    80004690:	8c95e337          	lui	x6,0x8c95e
    80004694:	02d2d233          	divu	x4,x5,x13
    80004698:	019e5fbb          	srlw	x31,x28,x25
    8000469c:	03b187bb          	mulw	x15,x3,x27
    800046a0:	2e337693          	andi	x13,x6,739
    800046a4:	03546f33          	rem	x30,x8,x21
    800046a8:	00bec0b3          	xor	x1,x29,x11
    800046ac:	02906bbb          	remw	x23,x0,x9
    800046b0:	57b23e17          	auipc	x28,0x57b23
    800046b4:	03e3ea3b          	remw	x20,x7,x30
    800046b8:	001c113b          	sllw	x2,x24,x1
    800046bc:	03583033          	mulhu	x0,x16,x21
    800046c0:	21779897          	auipc	x17,0x21779
    800046c4:	03cc92b3          	mulh	x5,x25,x28
    800046c8:	009254bb          	srlw	x9,x4,x9
    800046cc:	03c3eeb3          	rem	x29,x7,x28
    800046d0:	00cfd81b          	srliw	x16,x31,0xc
    800046d4:	03eb03b3          	mul	x7,x22,x30
    800046d8:	28868f93          	addi	x31,x13,648 # 51c1d758 <_start-0x2e3e28a8>
    800046dc:	02e609b3          	mul	x19,x12,x14
    800046e0:	022f7713          	andi	x14,x30,34
    800046e4:	02be66b3          	rem	x13,x28,x11
    800046e8:	d986bd17          	auipc	x26,0xd986b
    800046ec:	0387d5b3          	divu	x11,x15,x24
    800046f0:	3ef59f37          	lui	x30,0x3ef59
    800046f4:	02e94c3b          	divw	x24,x18,x14
    800046f8:	409183b3          	sub	x7,x3,x9
    800046fc:	026494b3          	mulh	x9,x9,x6
    80004700:	0538c537          	lui	x10,0x538c
    80004704:	03c94e3b          	divw	x28,x18,x28
    80004708:	9a7c31b7          	lui	x3,0x9a7c3
    8000470c:	028493b3          	mulh	x7,x9,x8
    80004710:	00bb0a3b          	addw	x20,x22,x11
    80004714:	03f45dbb          	divuw	x27,x8,x31
    80004718:	4111de33          	sra	x28,x3,x17
    8000471c:	02e8dfbb          	divuw	x31,x17,x14
    80004720:	d43d0217          	auipc	x4,0xd43d0
    80004724:	036716b3          	mulh	x13,x14,x22
    80004728:	6ea40d13          	addi	x26,x8,1770 # 1eab36ea <_start-0x6154c916>
    8000472c:	02a9deb3          	divu	x29,x19,x10
    80004730:	0f536f17          	auipc	x30,0xf536
    80004734:	032b8db3          	mul	x27,x23,x18
    80004738:	3cc54593          	xori	x11,x10,972
    8000473c:	02ffd23b          	divuw	x4,x31,x15
    80004740:	8d406d37          	lui	x26,0x8d406
    80004744:	02ae8033          	mul	x0,x29,x10
    80004748:	00f1ceb3          	xor	x29,x3,x15
    8000474c:	02ee593b          	divuw	x18,x28,x14
    80004750:	7d156397          	auipc	x7,0x7d156
    80004754:	03eb4133          	div	x2,x22,x30
    80004758:	52483d97          	auipc	x27,0x52483
    8000475c:	03f352bb          	divuw	x5,x6,x31
    80004760:	01d513bb          	sllw	x7,x10,x29
    80004764:	02ccd53b          	divuw	x10,x25,x12
    80004768:	367d4317          	auipc	x6,0x367d4
    8000476c:	024458b3          	divu	x17,x8,x4
    80004770:	7f2fde17          	auipc	x28,0x7f2fd
    80004774:	0371553b          	divuw	x10,x2,x23
    80004778:	502c7f93          	andi	x31,x24,1282
    8000477c:	025043bb          	divw	x7,x0,x5
    80004780:	00cb2cb3          	slt	x25,x22,x12
    80004784:	0287d93b          	divuw	x18,x15,x8
    80004788:	36a27537          	lui	x10,0x36a27
    8000478c:	0241c4bb          	divw	x9,x3,x4
    80004790:	000a9d33          	sll	x26,x21,x0
    80004794:	0308f2b3          	remu	x5,x17,x16
    80004798:	3bfabb13          	sltiu	x22,x21,959
    8000479c:	026a7f3b          	remuw	x30,x20,x6
    800047a0:	452879b7          	lui	x19,0x45287
    800047a4:	03afdc3b          	divuw	x24,x31,x26
    800047a8:	02fed613          	srli	x12,x29,0x2f
    800047ac:	035ffdbb          	remuw	x27,x31,x21
    800047b0:	0138a133          	slt	x2,x17,x19
    800047b4:	027205bb          	mulw	x11,x4,x7
    800047b8:	e8e99037          	lui	x0,0xe8e99
    800047bc:	02890333          	mul	x6,x18,x8
    800047c0:	034e3813          	sltiu	x16,x28,52
    800047c4:	03f6a7b3          	mulhsu	x15,x13,x31
    800047c8:	1d4e4d17          	auipc	x26,0x1d4e4
    800047cc:	039e7e3b          	remuw	x28,x28,x25
    800047d0:	0132541b          	srliw	x8,x4,0x13
    800047d4:	02f52533          	mulhsu	x10,x10,x15
    800047d8:	00f60033          	add	x0,x12,x15
    800047dc:	03615abb          	divuw	x21,x2,x22
    800047e0:	44167413          	andi	x8,x12,1089
    800047e4:	02519a33          	mulh	x20,x3,x5
    800047e8:	44aeb637          	lui	x12,0x44aeb
    800047ec:	02bb04b3          	mul	x9,x22,x11
    800047f0:	28223f37          	lui	x30,0x28223
    800047f4:	02a1f5bb          	remuw	x11,x3,x10
    800047f8:	01f9111b          	slliw	x2,x18,0x1f
    800047fc:	034a06b3          	mul	x13,x20,x20
    80004800:	4194de9b          	sraiw	x29,x9,0x19
    80004804:	038a5a33          	divu	x20,x20,x24
    80004808:	24ffab13          	slti	x22,x31,591
    8000480c:	03a464bb          	remw	x9,x8,x26
    80004810:	01561d9b          	slliw	x27,x12,0x15
    80004814:	03fbf933          	remu	x18,x23,x31
    80004818:	ea3343b7          	lui	x7,0xea334
    8000481c:	03cd3633          	mulhu	x12,x26,x28
    80004820:	00218133          	add	x2,x3,x2
    80004824:	029e6a33          	rem	x20,x28,x9
    80004828:	011721b3          	slt	x3,x14,x17
    8000482c:	036d3033          	mulhu	x0,x26,x22
    80004830:	bdb95f37          	lui	x30,0xbdb95
    80004834:	02cd7ebb          	remuw	x29,x26,x12
    80004838:	00abee33          	or	x28,x23,x10
    8000483c:	03ac0cb3          	mul	x25,x24,x26
    80004840:	0149ddbb          	srlw	x27,x19,x20
    80004844:	02179533          	mulh	x10,x15,x1
    80004848:	60de6113          	ori	x2,x28,1549
    8000484c:	0342f8bb          	remuw	x17,x5,x20
    80004850:	18630297          	auipc	x5,0x18630
    80004854:	03952fb3          	mulhsu	x31,x10,x25
    80004858:	419ddc9b          	sraiw	x25,x27,0x19
    8000485c:	02fd0433          	mul	x8,x26,x15
    80004860:	406980b3          	sub	x1,x19,x6
    80004864:	035e433b          	divw	x6,x28,x21
    80004868:	007fb733          	sltu	x14,x31,x7
    8000486c:	02046ebb          	remw	x29,x8,x0
    80004870:	bf44f997          	auipc	x19,0xbf44f
    80004874:	03fdc5bb          	divw	x11,x27,x31
    80004878:	01e72133          	slt	x2,x14,x30
    8000487c:	03f87e33          	remu	x28,x16,x31
    80004880:	0157583b          	srlw	x16,x14,x21
    80004884:	0376af33          	mulhsu	x30,x13,x23
    80004888:	8a808637          	lui	x12,0x8a808
    8000488c:	03bd0eb3          	mul	x29,x26,x27
    80004890:	9ed8c0b7          	lui	x1,0x9ed8c
    80004894:	02bac6b3          	div	x13,x21,x11
    80004898:	6a84c293          	xori	x5,x9,1704
    8000489c:	027791b3          	mulh	x3,x15,x7
    800048a0:	019ca533          	slt	x10,x25,x25
    800048a4:	02068a33          	mul	x20,x13,x0
    800048a8:	0536ce37          	lui	x28,0x536c
    800048ac:	0280d633          	divu	x12,x1,x8
    800048b0:	40645d9b          	sraiw	x27,x8,0x6
    800048b4:	03a54433          	div	x8,x10,x26
    800048b8:	40b2083b          	subw	x16,x4,x11
    800048bc:	034b3233          	mulhu	x4,x22,x20
    800048c0:	001dfc33          	and	x24,x27,x1
    800048c4:	02e4f3bb          	remuw	x7,x9,x14
    800048c8:	7282d637          	lui	x12,0x7282d
    800048cc:	03617e33          	remu	x28,x2,x22
    800048d0:	aaa789b7          	lui	x19,0xaaa78
    800048d4:	0222433b          	divw	x6,x4,x2
    800048d8:	8fb10f37          	lui	x30,0x8fb10
    800048dc:	0380cd3b          	divw	x26,x1,x24
    800048e0:	31aa8f93          	addi	x31,x21,794 # d62d550a <_start+0x562d550a>
    800048e4:	0241bcb3          	mulhu	x25,x3,x4
    800048e8:	41e089b3          	sub	x19,x1,x30
    800048ec:	0207c93b          	divw	x18,x15,x0
    800048f0:	40ef86b3          	sub	x13,x31,x14
    800048f4:	02c177bb          	remuw	x15,x2,x12
    800048f8:	03b0dc13          	srli	x24,x1,0x3b
    800048fc:	0304deb3          	divu	x29,x9,x16
    80004900:	01ef0fb3          	add	x31,x30,x30
    80004904:	02f9c5bb          	divw	x11,x19,x15
    80004908:	6cfeaa37          	lui	x20,0x6cfea
    8000490c:	0284e13b          	remw	x2,x9,x8
    80004910:	5451fe13          	andi	x28,x3,1349
    80004914:	026378b3          	remu	x17,x6,x6
    80004918:	41a45dbb          	sraw	x27,x8,x26
    8000491c:	036600bb          	mulw	x1,x12,x22
    80004920:	2eb96613          	ori	x12,x18,747
    80004924:	03e93c33          	mulhu	x24,x18,x30
    80004928:	407a03b3          	sub	x7,x20,x7
    8000492c:	02426abb          	remw	x21,x4,x4
    80004930:	347e3893          	sltiu	x17,x28,839
    80004934:	03276933          	rem	x18,x14,x18
    80004938:	f82660b7          	lui	x1,0xf8266
    8000493c:	024c2633          	mulhsu	x12,x24,x4
    80004940:	26b78a37          	lui	x20,0x26b78
    80004944:	036fcbbb          	divw	x23,x31,x22
    80004948:	766a78b7          	lui	x17,0x766a7
    8000494c:	0210d1bb          	divuw	x3,x1,x1
    80004950:	40e55e33          	sra	x28,x10,x14
    80004954:	020ed233          	divu	x4,x29,x0
    80004958:	403ed29b          	sraiw	x5,x29,0x3
    8000495c:	03ffc6b3          	div	x13,x31,x31
    80004960:	00a71c33          	sll	x24,x14,x10
    80004964:	028e1133          	mulh	x2,x28,x8
    80004968:	1a717a17          	auipc	x20,0x1a717
    8000496c:	0258eb33          	rem	x22,x17,x5
    80004970:	1d40ec93          	ori	x25,x1,468
    80004974:	032ad3bb          	divuw	x7,x21,x18
    80004978:	0fb78f13          	addi	x30,x15,251 # 6b4575e3 <_start-0x14ba8a1d>
    8000497c:	037651b3          	divu	x3,x12,x23
    80004980:	d5b34fb7          	lui	x31,0xd5b34
    80004984:	02d914b3          	mulh	x9,x18,x13
    80004988:	becf6217          	auipc	x4,0xbecf6
    8000498c:	02e6d633          	divu	x12,x13,x14
    80004990:	0193de33          	srl	x28,x7,x25
    80004994:	03deabb3          	mulhsu	x23,x29,x29
    80004998:	40f807bb          	subw	x15,x16,x15
    8000499c:	031f783b          	remuw	x16,x30,x17
    800049a0:	01e51ebb          	sllw	x29,x10,x30
    800049a4:	03e0ce3b          	divw	x28,x1,x30
    800049a8:	0e08b213          	sltiu	x4,x17,224
    800049ac:	03b78bbb          	mulw	x23,x15,x27
    800049b0:	7ac5a397          	auipc	x7,0x7ac5a
    800049b4:	02b675bb          	remuw	x11,x12,x11
    800049b8:	4128d23b          	sraw	x4,x17,x18
    800049bc:	03f346b3          	div	x13,x6,x31
    800049c0:	20b0e193          	ori	x3,x1,523
    800049c4:	034d4ab3          	div	x21,x26,x20
    800049c8:	00b0109b          	slliw	x1,x0,0xb
    800049cc:	02228cb3          	mul	x25,x5,x2
    800049d0:	047e7117          	auipc	x2,0x47e7
    800049d4:	0385753b          	remuw	x10,x10,x24
    800049d8:	c348f337          	lui	x6,0xc348f
    800049dc:	0235ffbb          	remuw	x31,x11,x3
    800049e0:	01d87133          	and	x2,x16,x29
    800049e4:	03c4adb3          	mulhsu	x27,x9,x28
    800049e8:	f87c2d17          	auipc	x26,0xf87c2
    800049ec:	0247dabb          	divuw	x21,x15,x4
    800049f0:	c765f537          	lui	x10,0xc765f
    800049f4:	03663e33          	mulhu	x28,x12,x22
    800049f8:	6221c837          	lui	x16,0x6221c
    800049fc:	0230843b          	mulw	x8,x1,x3
    80004a00:	4054dd9b          	sraiw	x27,x9,0x5
    80004a04:	02efc933          	div	x18,x31,x14
    80004a08:	03e7f9b7          	lui	x19,0x3e7f
    80004a0c:	039b0fb3          	mul	x31,x22,x25
    80004a10:	4007db3b          	sraw	x22,x15,x0
    80004a14:	031cf63b          	remuw	x12,x25,x17
    80004a18:	09ad031b          	addiw	x6,x26,154 # 787c6a82 <_start-0x783957e>
    80004a1c:	031c9ab3          	mulh	x21,x25,x17
    80004a20:	02549693          	slli	x13,x9,0x25
    80004a24:	03ff6ebb          	remw	x29,x30,x31
    80004a28:	0057d0bb          	srlw	x1,x15,x5
    80004a2c:	0391df33          	divu	x30,x3,x25
    80004a30:	5ac3089b          	addiw	x17,x6,1452 # ffffffffc348f5ac <_start+0xffffffff4348f5ac>
    80004a34:	030b9833          	mulh	x16,x23,x16
    80004a38:	42c15b13          	srai	x22,x2,0x2c
    80004a3c:	0252c1b3          	div	x3,x5,x5
    80004a40:	15501937          	lui	x18,0x15501
    80004a44:	0249e6bb          	remw	x13,x19,x4
    80004a48:	00628bbb          	addw	x23,x5,x6
    80004a4c:	02b8da33          	divu	x20,x17,x11
    80004a50:	55d12017          	auipc	x0,0x55d12
    80004a54:	0223f7bb          	remuw	x15,x7,x2
    80004a58:	018efcb3          	and	x25,x29,x24
    80004a5c:	025e2333          	mulhsu	x6,x28,x5
    80004a60:	1059c393          	xori	x7,x19,261
    80004a64:	03181c33          	mulh	x24,x16,x17
    80004a68:	0141ddb3          	srl	x27,x3,x20
    80004a6c:	02d9d13b          	divuw	x2,x19,x13
    80004a70:	4a3f2ab7          	lui	x21,0x4a3f2
    80004a74:	02dcb9b3          	mulhu	x19,x25,x13
    80004a78:	016013bb          	sllw	x7,x0,x22
    80004a7c:	02d7c7bb          	divw	x15,x15,x13
    80004a80:	607f5117          	auipc	x2,0x607f5
    80004a84:	021f0e3b          	mulw	x28,x30,x1
    80004a88:	a5639237          	lui	x4,0xa5639
    80004a8c:	02aed6bb          	divuw	x13,x29,x10
    80004a90:	5c1b2b93          	slti	x23,x22,1473
    80004a94:	034c0ab3          	mul	x21,x24,x20
    80004a98:	5afd6737          	lui	x14,0x5afd6
    80004a9c:	03b465bb          	remw	x11,x8,x27
    80004aa0:	414a5cbb          	sraw	x25,x20,x20
    80004aa4:	0322ca3b          	divw	x20,x5,x18
    80004aa8:	3983c013          	xori	x0,x7,920
    80004aac:	032f7e3b          	remuw	x28,x30,x18
    80004ab0:	03265293          	srli	x5,x12,0x32
    80004ab4:	0340edb3          	rem	x27,x1,x20
    80004ab8:	4101591b          	sraiw	x18,x2,0x10
    80004abc:	02f24033          	div	x0,x4,x15
    80004ac0:	3093f097          	auipc	x1,0x3093f
    80004ac4:	03eaa233          	mulhsu	x4,x21,x30
    80004ac8:	1a81a193          	slti	x3,x3,424
    80004acc:	03110533          	mul	x10,x2,x17
    80004ad0:	40bd88b3          	sub	x17,x27,x11
    80004ad4:	0264e23b          	remw	x4,x9,x6
    80004ad8:	07177c93          	andi	x25,x14,113
    80004adc:	03338633          	mul	x12,x7,x19
    80004ae0:	64caa497          	auipc	x9,0x64caa
    80004ae4:	036f9233          	mulh	x4,x31,x22
    80004ae8:	6cc9e593          	ori	x11,x19,1740
    80004aec:	02797ab3          	remu	x21,x18,x7
    80004af0:	b80c3917          	auipc	x18,0xb80c3
    80004af4:	0319fc3b          	remuw	x24,x19,x17
    80004af8:	6996c713          	xori	x14,x13,1689
    80004afc:	02848abb          	mulw	x21,x9,x8
    80004b00:	01d3fb33          	and	x22,x7,x29
    80004b04:	039304b3          	mul	x9,x6,x25
    80004b08:	80084817          	auipc	x16,0x80084
    80004b0c:	027a3e33          	mulhu	x28,x20,x7
    80004b10:	413752bb          	sraw	x5,x14,x19
    80004b14:	037140b3          	div	x1,x2,x23
    80004b18:	00f684b3          	add	x9,x13,x15
    80004b1c:	0277b1b3          	mulhu	x3,x15,x7
    80004b20:	013f5333          	srl	x6,x30,x19
    80004b24:	03e5f43b          	remuw	x8,x11,x30
    80004b28:	412c0dbb          	subw	x27,x24,x18
    80004b2c:	027fec33          	rem	x24,x31,x7
    80004b30:	414e509b          	sraiw	x1,x28,0x14
    80004b34:	03d045bb          	divw	x11,x0,x29
    80004b38:	01572fb3          	slt	x31,x14,x21
    80004b3c:	03744ab3          	div	x21,x8,x23
    80004b40:	bac943b7          	lui	x7,0xbac94
    80004b44:	03d102bb          	mulw	x5,x2,x29
    80004b48:	00c989bb          	addw	x19,x19,x12
    80004b4c:	030ae7b3          	rem	x15,x21,x16
    80004b50:	23cf5137          	lui	x2,0x23cf5
    80004b54:	03cbf83b          	remuw	x16,x23,x28
    80004b58:	f5a63d37          	lui	x26,0xf5a63
    80004b5c:	0328c9bb          	divw	x19,x17,x18
    80004b60:	006cf8b3          	and	x17,x25,x6
    80004b64:	035ae133          	rem	x2,x21,x21
    80004b68:	01c0dc93          	srli	x25,x1,0x1c
    80004b6c:	02cf1c33          	mulh	x24,x30,x12
    80004b70:	cf0ae997          	auipc	x19,0xcf0ae
    80004b74:	02475333          	divu	x6,x14,x4
    80004b78:	34294d13          	xori	x26,x18,834
    80004b7c:	028e7f33          	remu	x30,x28,x8
    80004b80:	6cfe3913          	sltiu	x18,x28,1743
    80004b84:	02e293b3          	mulh	x7,x5,x14
    80004b88:	4565cb13          	xori	x22,x11,1110
    80004b8c:	024c003b          	mulw	x0,x24,x4
    80004b90:	00609dbb          	sllw	x27,x1,x6
    80004b94:	022a1f33          	mulh	x30,x20,x2
    80004b98:	66acf793          	andi	x15,x25,1642
    80004b9c:	0254583b          	divuw	x16,x8,x5
    80004ba0:	01a8d4bb          	srlw	x9,x17,x26
    80004ba4:	036f7933          	remu	x18,x30,x22
    80004ba8:	27b9ea13          	ori	x20,x19,635
    80004bac:	0282c33b          	divw	x6,x5,x8
    80004bb0:	03ca9613          	slli	x12,x21,0x3c
    80004bb4:	03baedb3          	rem	x27,x21,x27
    80004bb8:	00f199b3          	sll	x19,x3,x15
    80004bbc:	02d2cab3          	div	x21,x5,x13
    80004bc0:	0154501b          	srliw	x0,x8,0x15
    80004bc4:	03452c33          	mulhsu	x24,x10,x20
    80004bc8:	01ea2fb3          	slt	x31,x20,x30
    80004bcc:	02b66e3b          	remw	x28,x12,x11
    80004bd0:	013eb6b3          	sltu	x13,x29,x19
    80004bd4:	025ce133          	rem	x2,x25,x5
    80004bd8:	00444c33          	xor	x24,x8,x4
    80004bdc:	037969bb          	remw	x19,x18,x23
    80004be0:	f29281b7          	lui	x3,0xf2928
    80004be4:	02ad7033          	remu	x0,x26,x10
    80004be8:	19ba0893          	addi	x17,x20,411 # 9a71bb03 <_start+0x1a71bb03>
    80004bec:	0365a733          	mulhsu	x14,x11,x22
    80004bf0:	0196591b          	srliw	x18,x12,0x19
    80004bf4:	0210c9b3          	div	x19,x1,x1
    80004bf8:	43b2f193          	andi	x3,x5,1083
    80004bfc:	03cff03b          	remuw	x0,x31,x28
    80004c00:	d4e5b7b7          	lui	x15,0xd4e5b
    80004c04:	030f0233          	mul	x4,x30,x16
    80004c08:	009c7433          	and	x8,x24,x9
    80004c0c:	0221cf33          	div	x30,x3,x2
    80004c10:	1a4e0917          	auipc	x18,0x1a4e0
    80004c14:	037553b3          	divu	x7,x10,x23
    80004c18:	a2c747b7          	lui	x15,0xa2c74
    80004c1c:	0391e23b          	remw	x4,x3,x25
    80004c20:	010c1993          	slli	x19,x24,0x10
    80004c24:	02acdcbb          	divuw	x25,x25,x10
    80004c28:	739af513          	andi	x10,x21,1849
    80004c2c:	0281afb3          	mulhsu	x31,x3,x8
    80004c30:	412258b3          	sra	x17,x4,x18
    80004c34:	020e74b3          	remu	x9,x28,x0
    80004c38:	43475393          	srai	x7,x14,0x34
    80004c3c:	037740bb          	divw	x1,x14,x23
    80004c40:	6cad0737          	lui	x14,0x6cad0
    80004c44:	039d89bb          	mulw	x19,x27,x25
    80004c48:	f42566b7          	lui	x13,0xf4256
    80004c4c:	03d03e33          	mulhu	x28,x0,x29
    80004c50:	7df1a817          	auipc	x16,0x7df1a
    80004c54:	0254cd33          	div	x26,x9,x5
    80004c58:	27e9b293          	sltiu	x5,x19,638
    80004c5c:	035ff5bb          	remuw	x11,x31,x21
    80004c60:	001fe533          	or	x10,x31,x1
    80004c64:	03727ab3          	remu	x21,x4,x23
    80004c68:	4c19dd37          	lui	x26,0x4c19d
    80004c6c:	02f36933          	rem	x18,x6,x15
    80004c70:	4066da3b          	sraw	x20,x13,x6
    80004c74:	029ad533          	divu	x10,x21,x9
    80004c78:	41e98fbb          	subw	x31,x19,x30
    80004c7c:	02ed43bb          	divw	x7,x26,x14
    80004c80:	59313237          	lui	x4,0x59313
    80004c84:	031771bb          	remuw	x3,x14,x17
    80004c88:	41acd01b          	sraiw	x0,x25,0x1a
    80004c8c:	03cdecbb          	remw	x25,x27,x28
    80004c90:	2cc5889b          	addiw	x17,x11,716 # ffffffff9b54f2cc <_start+0xffffffff1b54f2cc>
    80004c94:	02f1eb3b          	remw	x22,x3,x15
    80004c98:	b62ebb97          	auipc	x23,0xb62eb
    80004c9c:	0351d53b          	divuw	x10,x3,x21
    80004ca0:	4398d893          	srai	x17,x17,0x39
    80004ca4:	0220feb3          	remu	x29,x1,x2
    80004ca8:	102dbe13          	sltiu	x28,x27,258
    80004cac:	029d6433          	rem	x8,x26,x9
    80004cb0:	70086813          	ori	x16,x16,1792
    80004cb4:	03466db3          	rem	x27,x12,x20
    80004cb8:	50c63917          	auipc	x18,0x50c63
    80004cbc:	031be133          	rem	x2,x23,x17
    80004cc0:	215c3817          	auipc	x16,0x215c3
    80004cc4:	037451bb          	divuw	x3,x8,x23
    80004cc8:	2a957d93          	andi	x27,x10,681
    80004ccc:	038b43bb          	divw	x7,x22,x24
    80004cd0:	016157b3          	srl	x15,x2,x22
    80004cd4:	0209c6bb          	divw	x13,x19,x0
    80004cd8:	0e2cf293          	andi	x5,x25,226
    80004cdc:	03916dbb          	remw	x27,x2,x25
    80004ce0:	28722637          	lui	x12,0x28722
    80004ce4:	035f4f3b          	divw	x30,x30,x21
    80004ce8:	6ed4ae13          	slti	x28,x9,1773
    80004cec:	03fa08b3          	mul	x17,x20,x31
    80004cf0:	feaabe93          	sltiu	x29,x21,-22
    80004cf4:	0361b4b3          	mulhu	x9,x3,x22
    80004cf8:	b3517fb7          	lui	x31,0xb3517
    80004cfc:	0389b0b3          	mulhu	x1,x19,x24
    80004d00:	3a175217          	auipc	x4,0x3a175
    80004d04:	032a6f33          	rem	x30,x20,x18
    80004d08:	41590133          	sub	x2,x18,x21
    80004d0c:	03ac083b          	mulw	x16,x24,x26
    80004d10:	44177413          	andi	x8,x14,1089
    80004d14:	03f08b3b          	mulw	x22,x1,x31
    80004d18:	35cab693          	sltiu	x13,x21,860
    80004d1c:	024fd83b          	divuw	x16,x31,x4
    80004d20:	40aa5bbb          	sraw	x23,x20,x10
    80004d24:	03ecc4b3          	div	x9,x25,x30
    80004d28:	18238113          	addi	x2,x7,386 # ffffffffbac94182 <_start+0xffffffff3ac94182>
    80004d2c:	024660b3          	rem	x1,x12,x4
    80004d30:	ef028697          	auipc	x13,0xef028
    80004d34:	02aa503b          	divuw	x0,x20,x10
    80004d38:	00c99633          	sll	x12,x19,x12
    80004d3c:	03fb51b3          	divu	x3,x22,x31
    80004d40:	4f153c93          	sltiu	x25,x10,1265
    80004d44:	02bfa7b3          	mulhsu	x15,x31,x11
    80004d48:	018ed81b          	srliw	x16,x29,0x18
    80004d4c:	03df2db3          	mulhsu	x27,x30,x29
    80004d50:	0193093b          	addw	x18,x6,x25
    80004d54:	026ef633          	remu	x12,x29,x6
    80004d58:	01ce4533          	xor	x10,x28,x28
    80004d5c:	034d4d3b          	divw	x26,x26,x20
    80004d60:	5fa2c117          	auipc	x2,0x5fa2c
    80004d64:	02863bb3          	mulhu	x23,x12,x8
    80004d68:	18224893          	xori	x17,x4,386
    80004d6c:	03058d33          	mul	x26,x11,x16
    80004d70:	01f209b3          	add	x19,x4,x31
    80004d74:	02f2ee3b          	remw	x28,x5,x15
    80004d78:	00a951b3          	srl	x3,x18,x10
    80004d7c:	03b4813b          	mulw	x2,x9,x27
    80004d80:	404c5093          	srai	x1,x24,0x4
    80004d84:	0292e43b          	remw	x8,x5,x9
    80004d88:	333fe3b7          	lui	x7,0x333fe
    80004d8c:	024b2a33          	mulhsu	x20,x22,x4
    80004d90:	4135da9b          	sraiw	x21,x11,0x13
    80004d94:	026b3e33          	mulhu	x28,x22,x6
    80004d98:	40250233          	sub	x4,x10,x2
    80004d9c:	03e1ea3b          	remw	x20,x3,x30
    80004da0:	54758337          	lui	x6,0x54758
    80004da4:	033d8abb          	mulw	x21,x27,x19
    80004da8:	00b2541b          	srliw	x8,x4,0xb
    80004dac:	02d9ce33          	div	x28,x19,x13
    80004db0:	019319b3          	sll	x19,x6,x25
    80004db4:	0385e03b          	remw	x0,x11,x24
    80004db8:	fe017517          	auipc	x10,0xfe017
    80004dbc:	02377833          	remu	x16,x14,x3
