
./build/test:     file format elf64-littleriscv


Disassembly of section .text:

0000000080000000 <_start>:
    80000000:	00200193          	addi	x3,x0,2
    80000004:	00000093          	addi	x1,x0,0
    80000008:	00000113          	addi	x2,x0,0
    8000000c:	00000013          	addi	x0,x0,0
    80000010:	00000013          	addi	x0,x0,0
    80000014:	00000013          	addi	x0,x0,0
    80000018:	00000013          	addi	x0,x0,0
    8000001c:	02208463          	beq	x1,x2,80000044 <_start+0x44>
    80000020:	00000013          	addi	x0,x0,0
    80000024:	00000013          	addi	x0,x0,0
    80000028:	00300463          	beq	x0,x3,80000030 <_start+0x30>
    8000002c:	3440106f          	jal	x0,80001370 <fail>
    80000030:	00000013          	addi	x0,x0,0
    80000034:	00000013          	addi	x0,x0,0
    80000038:	02301463          	bne	x0,x3,80000060 <test_3>
    8000003c:	00000013          	addi	x0,x0,0
    80000040:	00000013          	addi	x0,x0,0
    80000044:	fe208ae3          	beq	x1,x2,80000038 <_start+0x38>
    80000048:	00000013          	addi	x0,x0,0
    8000004c:	00000013          	addi	x0,x0,0
    80000050:	00300463          	beq	x0,x3,80000058 <_start+0x58>
    80000054:	31c0106f          	jal	x0,80001370 <fail>
    80000058:	00000013          	addi	x0,x0,0
    8000005c:	00000013          	addi	x0,x0,0

0000000080000060 <test_3>:
    80000060:	00300193          	addi	x3,x0,3
    80000064:	00100093          	addi	x1,x0,1
    80000068:	00100113          	addi	x2,x0,1
    8000006c:	00000013          	addi	x0,x0,0
    80000070:	00000013          	addi	x0,x0,0
    80000074:	00000013          	addi	x0,x0,0
    80000078:	00000013          	addi	x0,x0,0
    8000007c:	02208463          	beq	x1,x2,800000a4 <test_3+0x44>
    80000080:	00000013          	addi	x0,x0,0
    80000084:	00000013          	addi	x0,x0,0
    80000088:	00300463          	beq	x0,x3,80000090 <test_3+0x30>
    8000008c:	2e40106f          	jal	x0,80001370 <fail>
    80000090:	00000013          	addi	x0,x0,0
    80000094:	00000013          	addi	x0,x0,0
    80000098:	02301463          	bne	x0,x3,800000c0 <test_4>
    8000009c:	00000013          	addi	x0,x0,0
    800000a0:	00000013          	addi	x0,x0,0
    800000a4:	fe208ae3          	beq	x1,x2,80000098 <test_3+0x38>
    800000a8:	00000013          	addi	x0,x0,0
    800000ac:	00000013          	addi	x0,x0,0
    800000b0:	00300463          	beq	x0,x3,800000b8 <test_3+0x58>
    800000b4:	2bc0106f          	jal	x0,80001370 <fail>
    800000b8:	00000013          	addi	x0,x0,0
    800000bc:	00000013          	addi	x0,x0,0

00000000800000c0 <test_4>:
    800000c0:	00400193          	addi	x3,x0,4
    800000c4:	fff00093          	addi	x1,x0,-1
    800000c8:	fff00113          	addi	x2,x0,-1
    800000cc:	00000013          	addi	x0,x0,0
    800000d0:	00000013          	addi	x0,x0,0
    800000d4:	00000013          	addi	x0,x0,0
    800000d8:	00000013          	addi	x0,x0,0
    800000dc:	02208463          	beq	x1,x2,80000104 <test_4+0x44>
    800000e0:	00000013          	addi	x0,x0,0
    800000e4:	00000013          	addi	x0,x0,0
    800000e8:	00300463          	beq	x0,x3,800000f0 <test_4+0x30>
    800000ec:	2840106f          	jal	x0,80001370 <fail>
    800000f0:	00000013          	addi	x0,x0,0
    800000f4:	00000013          	addi	x0,x0,0
    800000f8:	02301463          	bne	x0,x3,80000120 <test_5>
    800000fc:	00000013          	addi	x0,x0,0
    80000100:	00000013          	addi	x0,x0,0
    80000104:	fe208ae3          	beq	x1,x2,800000f8 <test_4+0x38>
    80000108:	00000013          	addi	x0,x0,0
    8000010c:	00000013          	addi	x0,x0,0
    80000110:	00300463          	beq	x0,x3,80000118 <test_4+0x58>
    80000114:	25c0106f          	jal	x0,80001370 <fail>
    80000118:	00000013          	addi	x0,x0,0
    8000011c:	00000013          	addi	x0,x0,0

0000000080000120 <test_5>:
    80000120:	00500193          	addi	x3,x0,5
    80000124:	00000093          	addi	x1,x0,0
    80000128:	00100113          	addi	x2,x0,1
    8000012c:	00000013          	addi	x0,x0,0
    80000130:	00000013          	addi	x0,x0,0
    80000134:	00000013          	addi	x0,x0,0
    80000138:	00000013          	addi	x0,x0,0
    8000013c:	00208c63          	beq	x1,x2,80000154 <test_5+0x34>
    80000140:	00000013          	addi	x0,x0,0
    80000144:	00000013          	addi	x0,x0,0
    80000148:	00301e63          	bne	x0,x3,80000164 <test_5+0x44>
    8000014c:	00000013          	addi	x0,x0,0
    80000150:	00000013          	addi	x0,x0,0
    80000154:	00300463          	beq	x0,x3,8000015c <test_5+0x3c>
    80000158:	2180106f          	jal	x0,80001370 <fail>
    8000015c:	00000013          	addi	x0,x0,0
    80000160:	00000013          	addi	x0,x0,0
    80000164:	fe2088e3          	beq	x1,x2,80000154 <test_5+0x34>
    80000168:	00000013          	addi	x0,x0,0
    8000016c:	00000013          	addi	x0,x0,0

0000000080000170 <test_6>:
    80000170:	00600193          	addi	x3,x0,6
    80000174:	00100093          	addi	x1,x0,1
    80000178:	00000113          	addi	x2,x0,0
    8000017c:	00000013          	addi	x0,x0,0
    80000180:	00000013          	addi	x0,x0,0
    80000184:	00000013          	addi	x0,x0,0
    80000188:	00000013          	addi	x0,x0,0
    8000018c:	00208c63          	beq	x1,x2,800001a4 <test_6+0x34>
    80000190:	00000013          	addi	x0,x0,0
    80000194:	00000013          	addi	x0,x0,0
    80000198:	00301e63          	bne	x0,x3,800001b4 <test_6+0x44>
    8000019c:	00000013          	addi	x0,x0,0
    800001a0:	00000013          	addi	x0,x0,0
    800001a4:	00300463          	beq	x0,x3,800001ac <test_6+0x3c>
    800001a8:	1c80106f          	jal	x0,80001370 <fail>
    800001ac:	00000013          	addi	x0,x0,0
    800001b0:	00000013          	addi	x0,x0,0
    800001b4:	fe2088e3          	beq	x1,x2,800001a4 <test_6+0x34>
    800001b8:	00000013          	addi	x0,x0,0
    800001bc:	00000013          	addi	x0,x0,0

00000000800001c0 <test_7>:
    800001c0:	00700193          	addi	x3,x0,7
    800001c4:	fff00093          	addi	x1,x0,-1
    800001c8:	00100113          	addi	x2,x0,1
    800001cc:	00000013          	addi	x0,x0,0
    800001d0:	00000013          	addi	x0,x0,0
    800001d4:	00000013          	addi	x0,x0,0
    800001d8:	00000013          	addi	x0,x0,0
    800001dc:	00208c63          	beq	x1,x2,800001f4 <test_7+0x34>
    800001e0:	00000013          	addi	x0,x0,0
    800001e4:	00000013          	addi	x0,x0,0
    800001e8:	00301e63          	bne	x0,x3,80000204 <test_7+0x44>
    800001ec:	00000013          	addi	x0,x0,0
    800001f0:	00000013          	addi	x0,x0,0
    800001f4:	00300463          	beq	x0,x3,800001fc <test_7+0x3c>
    800001f8:	1780106f          	jal	x0,80001370 <fail>
    800001fc:	00000013          	addi	x0,x0,0
    80000200:	00000013          	addi	x0,x0,0
    80000204:	fe2088e3          	beq	x1,x2,800001f4 <test_7+0x34>
    80000208:	00000013          	addi	x0,x0,0
    8000020c:	00000013          	addi	x0,x0,0

0000000080000210 <test_8>:
    80000210:	00800193          	addi	x3,x0,8
    80000214:	00100093          	addi	x1,x0,1
    80000218:	fff00113          	addi	x2,x0,-1
    8000021c:	00000013          	addi	x0,x0,0
    80000220:	00000013          	addi	x0,x0,0
    80000224:	00000013          	addi	x0,x0,0
    80000228:	00000013          	addi	x0,x0,0
    8000022c:	00208c63          	beq	x1,x2,80000244 <test_8+0x34>
    80000230:	00000013          	addi	x0,x0,0
    80000234:	00000013          	addi	x0,x0,0
    80000238:	00301e63          	bne	x0,x3,80000254 <test_8+0x44>
    8000023c:	00000013          	addi	x0,x0,0
    80000240:	00000013          	addi	x0,x0,0
    80000244:	00300463          	beq	x0,x3,8000024c <test_8+0x3c>
    80000248:	1280106f          	jal	x0,80001370 <fail>
    8000024c:	00000013          	addi	x0,x0,0
    80000250:	00000013          	addi	x0,x0,0
    80000254:	fe2088e3          	beq	x1,x2,80000244 <test_8+0x34>
    80000258:	00000013          	addi	x0,x0,0
    8000025c:	00000013          	addi	x0,x0,0

0000000080000260 <test_9>:
    80000260:	00900193          	addi	x3,x0,9
    80000264:	00000093          	addi	x1,x0,0
    80000268:	00000113          	addi	x2,x0,0
    8000026c:	00000013          	addi	x0,x0,0
    80000270:	00000013          	addi	x0,x0,0
    80000274:	00000013          	addi	x0,x0,0
    80000278:	00000013          	addi	x0,x0,0
    8000027c:	0220d463          	bge	x1,x2,800002a4 <test_9+0x44>
    80000280:	00000013          	addi	x0,x0,0
    80000284:	00000013          	addi	x0,x0,0
    80000288:	00300463          	beq	x0,x3,80000290 <test_9+0x30>
    8000028c:	0e40106f          	jal	x0,80001370 <fail>
    80000290:	00000013          	addi	x0,x0,0
    80000294:	00000013          	addi	x0,x0,0
    80000298:	02301463          	bne	x0,x3,800002c0 <test_10>
    8000029c:	00000013          	addi	x0,x0,0
    800002a0:	00000013          	addi	x0,x0,0
    800002a4:	fe20dae3          	bge	x1,x2,80000298 <test_9+0x38>
    800002a8:	00000013          	addi	x0,x0,0
    800002ac:	00000013          	addi	x0,x0,0
    800002b0:	00300463          	beq	x0,x3,800002b8 <test_9+0x58>
    800002b4:	0bc0106f          	jal	x0,80001370 <fail>
    800002b8:	00000013          	addi	x0,x0,0
    800002bc:	00000013          	addi	x0,x0,0

00000000800002c0 <test_10>:
    800002c0:	00a00193          	addi	x3,x0,10
    800002c4:	00100093          	addi	x1,x0,1
    800002c8:	00100113          	addi	x2,x0,1
    800002cc:	00000013          	addi	x0,x0,0
    800002d0:	00000013          	addi	x0,x0,0
    800002d4:	00000013          	addi	x0,x0,0
    800002d8:	00000013          	addi	x0,x0,0
    800002dc:	0220d463          	bge	x1,x2,80000304 <test_10+0x44>
    800002e0:	00000013          	addi	x0,x0,0
    800002e4:	00000013          	addi	x0,x0,0
    800002e8:	00300463          	beq	x0,x3,800002f0 <test_10+0x30>
    800002ec:	0840106f          	jal	x0,80001370 <fail>
    800002f0:	00000013          	addi	x0,x0,0
    800002f4:	00000013          	addi	x0,x0,0
    800002f8:	02301463          	bne	x0,x3,80000320 <test_11>
    800002fc:	00000013          	addi	x0,x0,0
    80000300:	00000013          	addi	x0,x0,0
    80000304:	fe20dae3          	bge	x1,x2,800002f8 <test_10+0x38>
    80000308:	00000013          	addi	x0,x0,0
    8000030c:	00000013          	addi	x0,x0,0
    80000310:	00300463          	beq	x0,x3,80000318 <test_10+0x58>
    80000314:	05c0106f          	jal	x0,80001370 <fail>
    80000318:	00000013          	addi	x0,x0,0
    8000031c:	00000013          	addi	x0,x0,0

0000000080000320 <test_11>:
    80000320:	00b00193          	addi	x3,x0,11
    80000324:	fff00093          	addi	x1,x0,-1
    80000328:	fff00113          	addi	x2,x0,-1
    8000032c:	00000013          	addi	x0,x0,0
    80000330:	00000013          	addi	x0,x0,0
    80000334:	00000013          	addi	x0,x0,0
    80000338:	00000013          	addi	x0,x0,0
    8000033c:	0220d463          	bge	x1,x2,80000364 <test_11+0x44>
    80000340:	00000013          	addi	x0,x0,0
    80000344:	00000013          	addi	x0,x0,0
    80000348:	00300463          	beq	x0,x3,80000350 <test_11+0x30>
    8000034c:	0240106f          	jal	x0,80001370 <fail>
    80000350:	00000013          	addi	x0,x0,0
    80000354:	00000013          	addi	x0,x0,0
    80000358:	02301463          	bne	x0,x3,80000380 <test_12>
    8000035c:	00000013          	addi	x0,x0,0
    80000360:	00000013          	addi	x0,x0,0
    80000364:	fe20dae3          	bge	x1,x2,80000358 <test_11+0x38>
    80000368:	00000013          	addi	x0,x0,0
    8000036c:	00000013          	addi	x0,x0,0
    80000370:	00300463          	beq	x0,x3,80000378 <test_11+0x58>
    80000374:	7fd0006f          	jal	x0,80001370 <fail>
    80000378:	00000013          	addi	x0,x0,0
    8000037c:	00000013          	addi	x0,x0,0

0000000080000380 <test_12>:
    80000380:	00c00193          	addi	x3,x0,12
    80000384:	00100093          	addi	x1,x0,1
    80000388:	00000113          	addi	x2,x0,0
    8000038c:	00000013          	addi	x0,x0,0
    80000390:	00000013          	addi	x0,x0,0
    80000394:	00000013          	addi	x0,x0,0
    80000398:	00000013          	addi	x0,x0,0
    8000039c:	0220d263          	bge	x1,x2,800003c0 <test_12+0x40>
    800003a0:	00000013          	addi	x0,x0,0
    800003a4:	00000013          	addi	x0,x0,0
    800003a8:	7c3014e3          	bne	x0,x3,80001370 <fail>
    800003ac:	00000013          	addi	x0,x0,0
    800003b0:	00000013          	addi	x0,x0,0
    800003b4:	02301263          	bne	x0,x3,800003d8 <test_13>
    800003b8:	00000013          	addi	x0,x0,0
    800003bc:	00000013          	addi	x0,x0,0
    800003c0:	fe20dae3          	bge	x1,x2,800003b4 <test_12+0x34>
    800003c4:	00000013          	addi	x0,x0,0
    800003c8:	00000013          	addi	x0,x0,0
    800003cc:	7a3012e3          	bne	x0,x3,80001370 <fail>
    800003d0:	00000013          	addi	x0,x0,0
    800003d4:	00000013          	addi	x0,x0,0

00000000800003d8 <test_13>:
    800003d8:	00d00193          	addi	x3,x0,13
    800003dc:	00100093          	addi	x1,x0,1
    800003e0:	fff00113          	addi	x2,x0,-1
    800003e4:	00000013          	addi	x0,x0,0
    800003e8:	00000013          	addi	x0,x0,0
    800003ec:	00000013          	addi	x0,x0,0
    800003f0:	00000013          	addi	x0,x0,0
    800003f4:	0220d263          	bge	x1,x2,80000418 <test_13+0x40>
    800003f8:	00000013          	addi	x0,x0,0
    800003fc:	00000013          	addi	x0,x0,0
    80000400:	763018e3          	bne	x0,x3,80001370 <fail>
    80000404:	00000013          	addi	x0,x0,0
    80000408:	00000013          	addi	x0,x0,0
    8000040c:	02301263          	bne	x0,x3,80000430 <test_14>
    80000410:	00000013          	addi	x0,x0,0
    80000414:	00000013          	addi	x0,x0,0
    80000418:	fe20dae3          	bge	x1,x2,8000040c <test_13+0x34>
    8000041c:	00000013          	addi	x0,x0,0
    80000420:	00000013          	addi	x0,x0,0
    80000424:	743016e3          	bne	x0,x3,80001370 <fail>
    80000428:	00000013          	addi	x0,x0,0
    8000042c:	00000013          	addi	x0,x0,0

0000000080000430 <test_14>:
    80000430:	00e00193          	addi	x3,x0,14
    80000434:	fff00093          	addi	x1,x0,-1
    80000438:	ffe00113          	addi	x2,x0,-2
    8000043c:	00000013          	addi	x0,x0,0
    80000440:	00000013          	addi	x0,x0,0
    80000444:	00000013          	addi	x0,x0,0
    80000448:	00000013          	addi	x0,x0,0
    8000044c:	0220d263          	bge	x1,x2,80000470 <test_14+0x40>
    80000450:	00000013          	addi	x0,x0,0
    80000454:	00000013          	addi	x0,x0,0
    80000458:	70301ce3          	bne	x0,x3,80001370 <fail>
    8000045c:	00000013          	addi	x0,x0,0
    80000460:	00000013          	addi	x0,x0,0
    80000464:	02301263          	bne	x0,x3,80000488 <test_15>
    80000468:	00000013          	addi	x0,x0,0
    8000046c:	00000013          	addi	x0,x0,0
    80000470:	fe20dae3          	bge	x1,x2,80000464 <test_14+0x34>
    80000474:	00000013          	addi	x0,x0,0
    80000478:	00000013          	addi	x0,x0,0
    8000047c:	6e301ae3          	bne	x0,x3,80001370 <fail>
    80000480:	00000013          	addi	x0,x0,0
    80000484:	00000013          	addi	x0,x0,0

0000000080000488 <test_15>:
    80000488:	00f00193          	addi	x3,x0,15
    8000048c:	00000093          	addi	x1,x0,0
    80000490:	00100113          	addi	x2,x0,1
    80000494:	00000013          	addi	x0,x0,0
    80000498:	00000013          	addi	x0,x0,0
    8000049c:	00000013          	addi	x0,x0,0
    800004a0:	00000013          	addi	x0,x0,0
    800004a4:	0020dc63          	bge	x1,x2,800004bc <test_15+0x34>
    800004a8:	00000013          	addi	x0,x0,0
    800004ac:	00000013          	addi	x0,x0,0
    800004b0:	00301c63          	bne	x0,x3,800004c8 <test_15+0x40>
    800004b4:	00000013          	addi	x0,x0,0
    800004b8:	00000013          	addi	x0,x0,0
    800004bc:	6a301ae3          	bne	x0,x3,80001370 <fail>
    800004c0:	00000013          	addi	x0,x0,0
    800004c4:	00000013          	addi	x0,x0,0
    800004c8:	fe20dae3          	bge	x1,x2,800004bc <test_15+0x34>
    800004cc:	00000013          	addi	x0,x0,0
    800004d0:	00000013          	addi	x0,x0,0

00000000800004d4 <test_16>:
    800004d4:	01000193          	addi	x3,x0,16
    800004d8:	fff00093          	addi	x1,x0,-1
    800004dc:	00100113          	addi	x2,x0,1
    800004e0:	00000013          	addi	x0,x0,0
    800004e4:	00000013          	addi	x0,x0,0
    800004e8:	00000013          	addi	x0,x0,0
    800004ec:	00000013          	addi	x0,x0,0
    800004f0:	0020dc63          	bge	x1,x2,80000508 <test_16+0x34>
    800004f4:	00000013          	addi	x0,x0,0
    800004f8:	00000013          	addi	x0,x0,0
    800004fc:	00301c63          	bne	x0,x3,80000514 <test_16+0x40>
    80000500:	00000013          	addi	x0,x0,0
    80000504:	00000013          	addi	x0,x0,0
    80000508:	663014e3          	bne	x0,x3,80001370 <fail>
    8000050c:	00000013          	addi	x0,x0,0
    80000510:	00000013          	addi	x0,x0,0
    80000514:	fe20dae3          	bge	x1,x2,80000508 <test_16+0x34>
    80000518:	00000013          	addi	x0,x0,0
    8000051c:	00000013          	addi	x0,x0,0

0000000080000520 <test_17>:
    80000520:	01100193          	addi	x3,x0,17
    80000524:	ffe00093          	addi	x1,x0,-2
    80000528:	fff00113          	addi	x2,x0,-1
    8000052c:	00000013          	addi	x0,x0,0
    80000530:	00000013          	addi	x0,x0,0
    80000534:	00000013          	addi	x0,x0,0
    80000538:	00000013          	addi	x0,x0,0
    8000053c:	0020dc63          	bge	x1,x2,80000554 <test_17+0x34>
    80000540:	00000013          	addi	x0,x0,0
    80000544:	00000013          	addi	x0,x0,0
    80000548:	00301c63          	bne	x0,x3,80000560 <test_17+0x40>
    8000054c:	00000013          	addi	x0,x0,0
    80000550:	00000013          	addi	x0,x0,0
    80000554:	60301ee3          	bne	x0,x3,80001370 <fail>
    80000558:	00000013          	addi	x0,x0,0
    8000055c:	00000013          	addi	x0,x0,0
    80000560:	fe20dae3          	bge	x1,x2,80000554 <test_17+0x34>
    80000564:	00000013          	addi	x0,x0,0
    80000568:	00000013          	addi	x0,x0,0

000000008000056c <test_18>:
    8000056c:	01200193          	addi	x3,x0,18
    80000570:	ffe00093          	addi	x1,x0,-2
    80000574:	00100113          	addi	x2,x0,1
    80000578:	00000013          	addi	x0,x0,0
    8000057c:	00000013          	addi	x0,x0,0
    80000580:	00000013          	addi	x0,x0,0
    80000584:	00000013          	addi	x0,x0,0
    80000588:	0020dc63          	bge	x1,x2,800005a0 <test_18+0x34>
    8000058c:	00000013          	addi	x0,x0,0
    80000590:	00000013          	addi	x0,x0,0
    80000594:	00301c63          	bne	x0,x3,800005ac <test_18+0x40>
    80000598:	00000013          	addi	x0,x0,0
    8000059c:	00000013          	addi	x0,x0,0
    800005a0:	5c3018e3          	bne	x0,x3,80001370 <fail>
    800005a4:	00000013          	addi	x0,x0,0
    800005a8:	00000013          	addi	x0,x0,0
    800005ac:	fe20dae3          	bge	x1,x2,800005a0 <test_18+0x34>
    800005b0:	00000013          	addi	x0,x0,0
    800005b4:	00000013          	addi	x0,x0,0

00000000800005b8 <test_19>:
    800005b8:	01300193          	addi	x3,x0,19
    800005bc:	00000093          	addi	x1,x0,0
    800005c0:	00000113          	addi	x2,x0,0
    800005c4:	00000013          	addi	x0,x0,0
    800005c8:	00000013          	addi	x0,x0,0
    800005cc:	00000013          	addi	x0,x0,0
    800005d0:	00000013          	addi	x0,x0,0
    800005d4:	0220f263          	bgeu	x1,x2,800005f8 <test_19+0x40>
    800005d8:	00000013          	addi	x0,x0,0
    800005dc:	00000013          	addi	x0,x0,0
    800005e0:	583018e3          	bne	x0,x3,80001370 <fail>
    800005e4:	00000013          	addi	x0,x0,0
    800005e8:	00000013          	addi	x0,x0,0
    800005ec:	02301263          	bne	x0,x3,80000610 <test_20>
    800005f0:	00000013          	addi	x0,x0,0
    800005f4:	00000013          	addi	x0,x0,0
    800005f8:	fe20fae3          	bgeu	x1,x2,800005ec <test_19+0x34>
    800005fc:	00000013          	addi	x0,x0,0
    80000600:	00000013          	addi	x0,x0,0
    80000604:	563016e3          	bne	x0,x3,80001370 <fail>
    80000608:	00000013          	addi	x0,x0,0
    8000060c:	00000013          	addi	x0,x0,0

0000000080000610 <test_20>:
    80000610:	01400193          	addi	x3,x0,20
    80000614:	00100093          	addi	x1,x0,1
    80000618:	00100113          	addi	x2,x0,1
    8000061c:	00000013          	addi	x0,x0,0
    80000620:	00000013          	addi	x0,x0,0
    80000624:	00000013          	addi	x0,x0,0
    80000628:	00000013          	addi	x0,x0,0
    8000062c:	0220f263          	bgeu	x1,x2,80000650 <test_20+0x40>
    80000630:	00000013          	addi	x0,x0,0
    80000634:	00000013          	addi	x0,x0,0
    80000638:	52301ce3          	bne	x0,x3,80001370 <fail>
    8000063c:	00000013          	addi	x0,x0,0
    80000640:	00000013          	addi	x0,x0,0
    80000644:	02301263          	bne	x0,x3,80000668 <test_21>
    80000648:	00000013          	addi	x0,x0,0
    8000064c:	00000013          	addi	x0,x0,0
    80000650:	fe20fae3          	bgeu	x1,x2,80000644 <test_20+0x34>
    80000654:	00000013          	addi	x0,x0,0
    80000658:	00000013          	addi	x0,x0,0
    8000065c:	50301ae3          	bne	x0,x3,80001370 <fail>
    80000660:	00000013          	addi	x0,x0,0
    80000664:	00000013          	addi	x0,x0,0

0000000080000668 <test_21>:
    80000668:	01500193          	addi	x3,x0,21
    8000066c:	0010009b          	addiw	x1,x0,1
    80000670:	00000013          	addi	x0,x0,0
    80000674:	00000013          	addi	x0,x0,0
    80000678:	00000013          	addi	x0,x0,0
    8000067c:	00000013          	addi	x0,x0,0
    80000680:	02009093          	slli	x1,x1,0x20
    80000684:	00000013          	addi	x0,x0,0
    80000688:	00000013          	addi	x0,x0,0
    8000068c:	00000013          	addi	x0,x0,0
    80000690:	00000013          	addi	x0,x0,0
    80000694:	fff0809b          	addiw	x1,x1,-1
    80000698:	0010011b          	addiw	x2,x0,1
    8000069c:	00000013          	addi	x0,x0,0
    800006a0:	00000013          	addi	x0,x0,0
    800006a4:	00000013          	addi	x0,x0,0
    800006a8:	00000013          	addi	x0,x0,0
    800006ac:	02011113          	slli	x2,x2,0x20
    800006b0:	00000013          	addi	x0,x0,0
    800006b4:	00000013          	addi	x0,x0,0
    800006b8:	00000013          	addi	x0,x0,0
    800006bc:	00000013          	addi	x0,x0,0
    800006c0:	fff1011b          	addiw	x2,x2,-1
    800006c4:	00000013          	addi	x0,x0,0
    800006c8:	00000013          	addi	x0,x0,0
    800006cc:	00000013          	addi	x0,x0,0
    800006d0:	00000013          	addi	x0,x0,0
    800006d4:	0220f263          	bgeu	x1,x2,800006f8 <test_21+0x90>
    800006d8:	00000013          	addi	x0,x0,0
    800006dc:	00000013          	addi	x0,x0,0
    800006e0:	483018e3          	bne	x0,x3,80001370 <fail>
    800006e4:	00000013          	addi	x0,x0,0
    800006e8:	00000013          	addi	x0,x0,0
    800006ec:	02301263          	bne	x0,x3,80000710 <test_22>
    800006f0:	00000013          	addi	x0,x0,0
    800006f4:	00000013          	addi	x0,x0,0
    800006f8:	fe20fae3          	bgeu	x1,x2,800006ec <test_21+0x84>
    800006fc:	00000013          	addi	x0,x0,0
    80000700:	00000013          	addi	x0,x0,0
    80000704:	463016e3          	bne	x0,x3,80001370 <fail>
    80000708:	00000013          	addi	x0,x0,0
    8000070c:	00000013          	addi	x0,x0,0

0000000080000710 <test_22>:
    80000710:	01600193          	addi	x3,x0,22
    80000714:	00100093          	addi	x1,x0,1
    80000718:	00000113          	addi	x2,x0,0
    8000071c:	00000013          	addi	x0,x0,0
    80000720:	00000013          	addi	x0,x0,0
    80000724:	00000013          	addi	x0,x0,0
    80000728:	00000013          	addi	x0,x0,0
    8000072c:	0220f263          	bgeu	x1,x2,80000750 <test_22+0x40>
    80000730:	00000013          	addi	x0,x0,0
    80000734:	00000013          	addi	x0,x0,0
    80000738:	42301ce3          	bne	x0,x3,80001370 <fail>
    8000073c:	00000013          	addi	x0,x0,0
    80000740:	00000013          	addi	x0,x0,0
    80000744:	02301263          	bne	x0,x3,80000768 <test_23>
    80000748:	00000013          	addi	x0,x0,0
    8000074c:	00000013          	addi	x0,x0,0
    80000750:	fe20fae3          	bgeu	x1,x2,80000744 <test_22+0x34>
    80000754:	00000013          	addi	x0,x0,0
    80000758:	00000013          	addi	x0,x0,0
    8000075c:	40301ae3          	bne	x0,x3,80001370 <fail>
    80000760:	00000013          	addi	x0,x0,0
    80000764:	00000013          	addi	x0,x0,0

0000000080000768 <test_23>:
    80000768:	01700193          	addi	x3,x0,23
    8000076c:	0010009b          	addiw	x1,x0,1
    80000770:	00000013          	addi	x0,x0,0
    80000774:	00000013          	addi	x0,x0,0
    80000778:	00000013          	addi	x0,x0,0
    8000077c:	00000013          	addi	x0,x0,0
    80000780:	02009093          	slli	x1,x1,0x20
    80000784:	00000013          	addi	x0,x0,0
    80000788:	00000013          	addi	x0,x0,0
    8000078c:	00000013          	addi	x0,x0,0
    80000790:	00000013          	addi	x0,x0,0
    80000794:	fff0809b          	addiw	x1,x1,-1
    80000798:	0010011b          	addiw	x2,x0,1
    8000079c:	00000013          	addi	x0,x0,0
    800007a0:	00000013          	addi	x0,x0,0
    800007a4:	00000013          	addi	x0,x0,0
    800007a8:	00000013          	addi	x0,x0,0
    800007ac:	02011113          	slli	x2,x2,0x20
    800007b0:	00000013          	addi	x0,x0,0
    800007b4:	00000013          	addi	x0,x0,0
    800007b8:	00000013          	addi	x0,x0,0
    800007bc:	00000013          	addi	x0,x0,0
    800007c0:	ffe1011b          	addiw	x2,x2,-2
    800007c4:	00000013          	addi	x0,x0,0
    800007c8:	00000013          	addi	x0,x0,0
    800007cc:	00000013          	addi	x0,x0,0
    800007d0:	00000013          	addi	x0,x0,0
    800007d4:	0220f263          	bgeu	x1,x2,800007f8 <test_23+0x90>
    800007d8:	00000013          	addi	x0,x0,0
    800007dc:	00000013          	addi	x0,x0,0
    800007e0:	383018e3          	bne	x0,x3,80001370 <fail>
    800007e4:	00000013          	addi	x0,x0,0
    800007e8:	00000013          	addi	x0,x0,0
    800007ec:	02301263          	bne	x0,x3,80000810 <test_24>
    800007f0:	00000013          	addi	x0,x0,0
    800007f4:	00000013          	addi	x0,x0,0
    800007f8:	fe20fae3          	bgeu	x1,x2,800007ec <test_23+0x84>
    800007fc:	00000013          	addi	x0,x0,0
    80000800:	00000013          	addi	x0,x0,0
    80000804:	363016e3          	bne	x0,x3,80001370 <fail>
    80000808:	00000013          	addi	x0,x0,0
    8000080c:	00000013          	addi	x0,x0,0

0000000080000810 <test_24>:
    80000810:	01800193          	addi	x3,x0,24
    80000814:	0010009b          	addiw	x1,x0,1
    80000818:	00000013          	addi	x0,x0,0
    8000081c:	00000013          	addi	x0,x0,0
    80000820:	00000013          	addi	x0,x0,0
    80000824:	00000013          	addi	x0,x0,0
    80000828:	02009093          	slli	x1,x1,0x20
    8000082c:	00000013          	addi	x0,x0,0
    80000830:	00000013          	addi	x0,x0,0
    80000834:	00000013          	addi	x0,x0,0
    80000838:	00000013          	addi	x0,x0,0
    8000083c:	fff0809b          	addiw	x1,x1,-1
    80000840:	00000113          	addi	x2,x0,0
    80000844:	00000013          	addi	x0,x0,0
    80000848:	00000013          	addi	x0,x0,0
    8000084c:	00000013          	addi	x0,x0,0
    80000850:	00000013          	addi	x0,x0,0
    80000854:	0220f263          	bgeu	x1,x2,80000878 <test_24+0x68>
    80000858:	00000013          	addi	x0,x0,0
    8000085c:	00000013          	addi	x0,x0,0
    80000860:	303018e3          	bne	x0,x3,80001370 <fail>
    80000864:	00000013          	addi	x0,x0,0
    80000868:	00000013          	addi	x0,x0,0
    8000086c:	02301263          	bne	x0,x3,80000890 <test_25>
    80000870:	00000013          	addi	x0,x0,0
    80000874:	00000013          	addi	x0,x0,0
    80000878:	fe20fae3          	bgeu	x1,x2,8000086c <test_24+0x5c>
    8000087c:	00000013          	addi	x0,x0,0
    80000880:	00000013          	addi	x0,x0,0
    80000884:	2e3016e3          	bne	x0,x3,80001370 <fail>
    80000888:	00000013          	addi	x0,x0,0
    8000088c:	00000013          	addi	x0,x0,0

0000000080000890 <test_25>:
    80000890:	01900193          	addi	x3,x0,25
    80000894:	00000093          	addi	x1,x0,0
    80000898:	00100113          	addi	x2,x0,1
    8000089c:	00000013          	addi	x0,x0,0
    800008a0:	00000013          	addi	x0,x0,0
    800008a4:	00000013          	addi	x0,x0,0
    800008a8:	00000013          	addi	x0,x0,0
    800008ac:	0020fc63          	bgeu	x1,x2,800008c4 <test_25+0x34>
    800008b0:	00000013          	addi	x0,x0,0
    800008b4:	00000013          	addi	x0,x0,0
    800008b8:	00301c63          	bne	x0,x3,800008d0 <test_25+0x40>
    800008bc:	00000013          	addi	x0,x0,0
    800008c0:	00000013          	addi	x0,x0,0
    800008c4:	2a3016e3          	bne	x0,x3,80001370 <fail>
    800008c8:	00000013          	addi	x0,x0,0
    800008cc:	00000013          	addi	x0,x0,0
    800008d0:	fe20fae3          	bgeu	x1,x2,800008c4 <test_25+0x34>
    800008d4:	00000013          	addi	x0,x0,0
    800008d8:	00000013          	addi	x0,x0,0

00000000800008dc <test_26>:
    800008dc:	01a00193          	addi	x3,x0,26
    800008e0:	0010009b          	addiw	x1,x0,1
    800008e4:	00000013          	addi	x0,x0,0
    800008e8:	00000013          	addi	x0,x0,0
    800008ec:	00000013          	addi	x0,x0,0
    800008f0:	00000013          	addi	x0,x0,0
    800008f4:	02009093          	slli	x1,x1,0x20
    800008f8:	00000013          	addi	x0,x0,0
    800008fc:	00000013          	addi	x0,x0,0
    80000900:	00000013          	addi	x0,x0,0
    80000904:	00000013          	addi	x0,x0,0
    80000908:	ffe0809b          	addiw	x1,x1,-2
    8000090c:	0010011b          	addiw	x2,x0,1
    80000910:	00000013          	addi	x0,x0,0
    80000914:	00000013          	addi	x0,x0,0
    80000918:	00000013          	addi	x0,x0,0
    8000091c:	00000013          	addi	x0,x0,0
    80000920:	02011113          	slli	x2,x2,0x20
    80000924:	00000013          	addi	x0,x0,0
    80000928:	00000013          	addi	x0,x0,0
    8000092c:	00000013          	addi	x0,x0,0
    80000930:	00000013          	addi	x0,x0,0
    80000934:	fff1011b          	addiw	x2,x2,-1
    80000938:	00000013          	addi	x0,x0,0
    8000093c:	00000013          	addi	x0,x0,0
    80000940:	00000013          	addi	x0,x0,0
    80000944:	00000013          	addi	x0,x0,0
    80000948:	0020fc63          	bgeu	x1,x2,80000960 <test_26+0x84>
    8000094c:	00000013          	addi	x0,x0,0
    80000950:	00000013          	addi	x0,x0,0
    80000954:	00301c63          	bne	x0,x3,8000096c <test_26+0x90>
    80000958:	00000013          	addi	x0,x0,0
    8000095c:	00000013          	addi	x0,x0,0
    80000960:	203018e3          	bne	x0,x3,80001370 <fail>
    80000964:	00000013          	addi	x0,x0,0
    80000968:	00000013          	addi	x0,x0,0
    8000096c:	fe20fae3          	bgeu	x1,x2,80000960 <test_26+0x84>
    80000970:	00000013          	addi	x0,x0,0
    80000974:	00000013          	addi	x0,x0,0

0000000080000978 <test_27>:
    80000978:	01b00193          	addi	x3,x0,27
    8000097c:	00000093          	addi	x1,x0,0
    80000980:	0010011b          	addiw	x2,x0,1
    80000984:	00000013          	addi	x0,x0,0
    80000988:	00000013          	addi	x0,x0,0
    8000098c:	00000013          	addi	x0,x0,0
    80000990:	00000013          	addi	x0,x0,0
    80000994:	02011113          	slli	x2,x2,0x20
    80000998:	00000013          	addi	x0,x0,0
    8000099c:	00000013          	addi	x0,x0,0
    800009a0:	00000013          	addi	x0,x0,0
    800009a4:	00000013          	addi	x0,x0,0
    800009a8:	fff1011b          	addiw	x2,x2,-1
    800009ac:	00000013          	addi	x0,x0,0
    800009b0:	00000013          	addi	x0,x0,0
    800009b4:	00000013          	addi	x0,x0,0
    800009b8:	00000013          	addi	x0,x0,0
    800009bc:	0020fc63          	bgeu	x1,x2,800009d4 <test_27+0x5c>
    800009c0:	00000013          	addi	x0,x0,0
    800009c4:	00000013          	addi	x0,x0,0
    800009c8:	00301c63          	bne	x0,x3,800009e0 <test_27+0x68>
    800009cc:	00000013          	addi	x0,x0,0
    800009d0:	00000013          	addi	x0,x0,0
    800009d4:	18301ee3          	bne	x0,x3,80001370 <fail>
    800009d8:	00000013          	addi	x0,x0,0
    800009dc:	00000013          	addi	x0,x0,0
    800009e0:	fe20fae3          	bgeu	x1,x2,800009d4 <test_27+0x5c>
    800009e4:	00000013          	addi	x0,x0,0
    800009e8:	00000013          	addi	x0,x0,0

00000000800009ec <test_28>:
    800009ec:	01c00193          	addi	x3,x0,28
    800009f0:	800000b7          	lui	x1,0x80000
    800009f4:	00000013          	addi	x0,x0,0
    800009f8:	00000013          	addi	x0,x0,0
    800009fc:	00000013          	addi	x0,x0,0
    80000a00:	00000013          	addi	x0,x0,0
    80000a04:	fff0809b          	addiw	x1,x1,-1 # 7fffffff <_start-0x1>
    80000a08:	0010011b          	addiw	x2,x0,1
    80000a0c:	00000013          	addi	x0,x0,0
    80000a10:	00000013          	addi	x0,x0,0
    80000a14:	00000013          	addi	x0,x0,0
    80000a18:	00000013          	addi	x0,x0,0
    80000a1c:	01f11113          	slli	x2,x2,0x1f
    80000a20:	00000013          	addi	x0,x0,0
    80000a24:	00000013          	addi	x0,x0,0
    80000a28:	00000013          	addi	x0,x0,0
    80000a2c:	00000013          	addi	x0,x0,0
    80000a30:	0020fc63          	bgeu	x1,x2,80000a48 <test_28+0x5c>
    80000a34:	00000013          	addi	x0,x0,0
    80000a38:	00000013          	addi	x0,x0,0
    80000a3c:	00301c63          	bne	x0,x3,80000a54 <test_28+0x68>
    80000a40:	00000013          	addi	x0,x0,0
    80000a44:	00000013          	addi	x0,x0,0
    80000a48:	123014e3          	bne	x0,x3,80001370 <fail>
    80000a4c:	00000013          	addi	x0,x0,0
    80000a50:	00000013          	addi	x0,x0,0
    80000a54:	fe20fae3          	bgeu	x1,x2,80000a48 <test_28+0x5c>
    80000a58:	00000013          	addi	x0,x0,0
    80000a5c:	00000013          	addi	x0,x0,0

0000000080000a60 <test_29>:
    80000a60:	01d00193          	addi	x3,x0,29
    80000a64:	00000093          	addi	x1,x0,0
    80000a68:	00100113          	addi	x2,x0,1
    80000a6c:	00000013          	addi	x0,x0,0
    80000a70:	00000013          	addi	x0,x0,0
    80000a74:	00000013          	addi	x0,x0,0
    80000a78:	00000013          	addi	x0,x0,0
    80000a7c:	0220c263          	blt	x1,x2,80000aa0 <test_29+0x40>
    80000a80:	00000013          	addi	x0,x0,0
    80000a84:	00000013          	addi	x0,x0,0
    80000a88:	0e3014e3          	bne	x0,x3,80001370 <fail>
    80000a8c:	00000013          	addi	x0,x0,0
    80000a90:	00000013          	addi	x0,x0,0
    80000a94:	02301263          	bne	x0,x3,80000ab8 <test_30>
    80000a98:	00000013          	addi	x0,x0,0
    80000a9c:	00000013          	addi	x0,x0,0
    80000aa0:	fe20cae3          	blt	x1,x2,80000a94 <test_29+0x34>
    80000aa4:	00000013          	addi	x0,x0,0
    80000aa8:	00000013          	addi	x0,x0,0
    80000aac:	0c3012e3          	bne	x0,x3,80001370 <fail>
    80000ab0:	00000013          	addi	x0,x0,0
    80000ab4:	00000013          	addi	x0,x0,0

0000000080000ab8 <test_30>:
    80000ab8:	01e00193          	addi	x3,x0,30
    80000abc:	fff00093          	addi	x1,x0,-1
    80000ac0:	00100113          	addi	x2,x0,1
    80000ac4:	00000013          	addi	x0,x0,0
    80000ac8:	00000013          	addi	x0,x0,0
    80000acc:	00000013          	addi	x0,x0,0
    80000ad0:	00000013          	addi	x0,x0,0
    80000ad4:	0220c263          	blt	x1,x2,80000af8 <test_30+0x40>
    80000ad8:	00000013          	addi	x0,x0,0
    80000adc:	00000013          	addi	x0,x0,0
    80000ae0:	083018e3          	bne	x0,x3,80001370 <fail>
    80000ae4:	00000013          	addi	x0,x0,0
    80000ae8:	00000013          	addi	x0,x0,0
    80000aec:	02301263          	bne	x0,x3,80000b10 <test_31>
    80000af0:	00000013          	addi	x0,x0,0
    80000af4:	00000013          	addi	x0,x0,0
    80000af8:	fe20cae3          	blt	x1,x2,80000aec <test_30+0x34>
    80000afc:	00000013          	addi	x0,x0,0
    80000b00:	00000013          	addi	x0,x0,0
    80000b04:	063016e3          	bne	x0,x3,80001370 <fail>
    80000b08:	00000013          	addi	x0,x0,0
    80000b0c:	00000013          	addi	x0,x0,0

0000000080000b10 <test_31>:
    80000b10:	01f00193          	addi	x3,x0,31
    80000b14:	ffe00093          	addi	x1,x0,-2
    80000b18:	fff00113          	addi	x2,x0,-1
    80000b1c:	00000013          	addi	x0,x0,0
    80000b20:	00000013          	addi	x0,x0,0
    80000b24:	00000013          	addi	x0,x0,0
    80000b28:	00000013          	addi	x0,x0,0
    80000b2c:	0220c263          	blt	x1,x2,80000b50 <test_31+0x40>
    80000b30:	00000013          	addi	x0,x0,0
    80000b34:	00000013          	addi	x0,x0,0
    80000b38:	02301ce3          	bne	x0,x3,80001370 <fail>
    80000b3c:	00000013          	addi	x0,x0,0
    80000b40:	00000013          	addi	x0,x0,0
    80000b44:	02301263          	bne	x0,x3,80000b68 <test_32>
    80000b48:	00000013          	addi	x0,x0,0
    80000b4c:	00000013          	addi	x0,x0,0
    80000b50:	fe20cae3          	blt	x1,x2,80000b44 <test_31+0x34>
    80000b54:	00000013          	addi	x0,x0,0
    80000b58:	00000013          	addi	x0,x0,0
    80000b5c:	00301ae3          	bne	x0,x3,80001370 <fail>
    80000b60:	00000013          	addi	x0,x0,0
    80000b64:	00000013          	addi	x0,x0,0

0000000080000b68 <test_32>:
    80000b68:	02000193          	addi	x3,x0,32
    80000b6c:	00100093          	addi	x1,x0,1
    80000b70:	00000113          	addi	x2,x0,0
    80000b74:	00000013          	addi	x0,x0,0
    80000b78:	00000013          	addi	x0,x0,0
    80000b7c:	00000013          	addi	x0,x0,0
    80000b80:	00000013          	addi	x0,x0,0
    80000b84:	0020cc63          	blt	x1,x2,80000b9c <test_32+0x34>
    80000b88:	00000013          	addi	x0,x0,0
    80000b8c:	00000013          	addi	x0,x0,0
    80000b90:	00301c63          	bne	x0,x3,80000ba8 <test_32+0x40>
    80000b94:	00000013          	addi	x0,x0,0
    80000b98:	00000013          	addi	x0,x0,0
    80000b9c:	7c301a63          	bne	x0,x3,80001370 <fail>
    80000ba0:	00000013          	addi	x0,x0,0
    80000ba4:	00000013          	addi	x0,x0,0
    80000ba8:	fe20cae3          	blt	x1,x2,80000b9c <test_32+0x34>
    80000bac:	00000013          	addi	x0,x0,0
    80000bb0:	00000013          	addi	x0,x0,0

0000000080000bb4 <test_33>:
    80000bb4:	02100193          	addi	x3,x0,33
    80000bb8:	00100093          	addi	x1,x0,1
    80000bbc:	fff00113          	addi	x2,x0,-1
    80000bc0:	00000013          	addi	x0,x0,0
    80000bc4:	00000013          	addi	x0,x0,0
    80000bc8:	00000013          	addi	x0,x0,0
    80000bcc:	00000013          	addi	x0,x0,0
    80000bd0:	0020cc63          	blt	x1,x2,80000be8 <test_33+0x34>
    80000bd4:	00000013          	addi	x0,x0,0
    80000bd8:	00000013          	addi	x0,x0,0
    80000bdc:	00301c63          	bne	x0,x3,80000bf4 <test_33+0x40>
    80000be0:	00000013          	addi	x0,x0,0
    80000be4:	00000013          	addi	x0,x0,0
    80000be8:	78301463          	bne	x0,x3,80001370 <fail>
    80000bec:	00000013          	addi	x0,x0,0
    80000bf0:	00000013          	addi	x0,x0,0
    80000bf4:	fe20cae3          	blt	x1,x2,80000be8 <test_33+0x34>
    80000bf8:	00000013          	addi	x0,x0,0
    80000bfc:	00000013          	addi	x0,x0,0

0000000080000c00 <test_34>:
    80000c00:	02200193          	addi	x3,x0,34
    80000c04:	fff00093          	addi	x1,x0,-1
    80000c08:	ffe00113          	addi	x2,x0,-2
    80000c0c:	00000013          	addi	x0,x0,0
    80000c10:	00000013          	addi	x0,x0,0
    80000c14:	00000013          	addi	x0,x0,0
    80000c18:	00000013          	addi	x0,x0,0
    80000c1c:	0020cc63          	blt	x1,x2,80000c34 <test_34+0x34>
    80000c20:	00000013          	addi	x0,x0,0
    80000c24:	00000013          	addi	x0,x0,0
    80000c28:	00301c63          	bne	x0,x3,80000c40 <test_34+0x40>
    80000c2c:	00000013          	addi	x0,x0,0
    80000c30:	00000013          	addi	x0,x0,0
    80000c34:	72301e63          	bne	x0,x3,80001370 <fail>
    80000c38:	00000013          	addi	x0,x0,0
    80000c3c:	00000013          	addi	x0,x0,0
    80000c40:	fe20cae3          	blt	x1,x2,80000c34 <test_34+0x34>
    80000c44:	00000013          	addi	x0,x0,0
    80000c48:	00000013          	addi	x0,x0,0

0000000080000c4c <test_35>:
    80000c4c:	02300193          	addi	x3,x0,35
    80000c50:	00100093          	addi	x1,x0,1
    80000c54:	ffe00113          	addi	x2,x0,-2
    80000c58:	00000013          	addi	x0,x0,0
    80000c5c:	00000013          	addi	x0,x0,0
    80000c60:	00000013          	addi	x0,x0,0
    80000c64:	00000013          	addi	x0,x0,0
    80000c68:	0020cc63          	blt	x1,x2,80000c80 <test_35+0x34>
    80000c6c:	00000013          	addi	x0,x0,0
    80000c70:	00000013          	addi	x0,x0,0
    80000c74:	00301c63          	bne	x0,x3,80000c8c <test_35+0x40>
    80000c78:	00000013          	addi	x0,x0,0
    80000c7c:	00000013          	addi	x0,x0,0
    80000c80:	6e301863          	bne	x0,x3,80001370 <fail>
    80000c84:	00000013          	addi	x0,x0,0
    80000c88:	00000013          	addi	x0,x0,0
    80000c8c:	fe20cae3          	blt	x1,x2,80000c80 <test_35+0x34>
    80000c90:	00000013          	addi	x0,x0,0
    80000c94:	00000013          	addi	x0,x0,0

0000000080000c98 <test_36>:
    80000c98:	02400193          	addi	x3,x0,36
    80000c9c:	00000093          	addi	x1,x0,0
    80000ca0:	00100113          	addi	x2,x0,1
    80000ca4:	00000013          	addi	x0,x0,0
    80000ca8:	00000013          	addi	x0,x0,0
    80000cac:	00000013          	addi	x0,x0,0
    80000cb0:	00000013          	addi	x0,x0,0
    80000cb4:	0220e263          	bltu	x1,x2,80000cd8 <test_36+0x40>
    80000cb8:	00000013          	addi	x0,x0,0
    80000cbc:	00000013          	addi	x0,x0,0
    80000cc0:	6a301863          	bne	x0,x3,80001370 <fail>
    80000cc4:	00000013          	addi	x0,x0,0
    80000cc8:	00000013          	addi	x0,x0,0
    80000ccc:	02301263          	bne	x0,x3,80000cf0 <test_37>
    80000cd0:	00000013          	addi	x0,x0,0
    80000cd4:	00000013          	addi	x0,x0,0
    80000cd8:	fe20eae3          	bltu	x1,x2,80000ccc <test_36+0x34>
    80000cdc:	00000013          	addi	x0,x0,0
    80000ce0:	00000013          	addi	x0,x0,0
    80000ce4:	68301663          	bne	x0,x3,80001370 <fail>
    80000ce8:	00000013          	addi	x0,x0,0
    80000cec:	00000013          	addi	x0,x0,0

0000000080000cf0 <test_37>:
    80000cf0:	02500193          	addi	x3,x0,37
    80000cf4:	0010009b          	addiw	x1,x0,1
    80000cf8:	00000013          	addi	x0,x0,0
    80000cfc:	00000013          	addi	x0,x0,0
    80000d00:	00000013          	addi	x0,x0,0
    80000d04:	00000013          	addi	x0,x0,0
    80000d08:	02009093          	slli	x1,x1,0x20
    80000d0c:	00000013          	addi	x0,x0,0
    80000d10:	00000013          	addi	x0,x0,0
    80000d14:	00000013          	addi	x0,x0,0
    80000d18:	00000013          	addi	x0,x0,0
    80000d1c:	ffe0809b          	addiw	x1,x1,-2
    80000d20:	0010011b          	addiw	x2,x0,1
    80000d24:	00000013          	addi	x0,x0,0
    80000d28:	00000013          	addi	x0,x0,0
    80000d2c:	00000013          	addi	x0,x0,0
    80000d30:	00000013          	addi	x0,x0,0
    80000d34:	02011113          	slli	x2,x2,0x20
    80000d38:	00000013          	addi	x0,x0,0
    80000d3c:	00000013          	addi	x0,x0,0
    80000d40:	00000013          	addi	x0,x0,0
    80000d44:	00000013          	addi	x0,x0,0
    80000d48:	fff1011b          	addiw	x2,x2,-1
    80000d4c:	00000013          	addi	x0,x0,0
    80000d50:	00000013          	addi	x0,x0,0
    80000d54:	00000013          	addi	x0,x0,0
    80000d58:	00000013          	addi	x0,x0,0
    80000d5c:	0220e263          	bltu	x1,x2,80000d80 <test_37+0x90>
    80000d60:	00000013          	addi	x0,x0,0
    80000d64:	00000013          	addi	x0,x0,0
    80000d68:	60301463          	bne	x0,x3,80001370 <fail>
    80000d6c:	00000013          	addi	x0,x0,0
    80000d70:	00000013          	addi	x0,x0,0
    80000d74:	02301263          	bne	x0,x3,80000d98 <test_38>
    80000d78:	00000013          	addi	x0,x0,0
    80000d7c:	00000013          	addi	x0,x0,0
    80000d80:	fe20eae3          	bltu	x1,x2,80000d74 <test_37+0x84>
    80000d84:	00000013          	addi	x0,x0,0
    80000d88:	00000013          	addi	x0,x0,0
    80000d8c:	5e301263          	bne	x0,x3,80001370 <fail>
    80000d90:	00000013          	addi	x0,x0,0
    80000d94:	00000013          	addi	x0,x0,0

0000000080000d98 <test_38>:
    80000d98:	02600193          	addi	x3,x0,38
    80000d9c:	00000093          	addi	x1,x0,0
    80000da0:	0010011b          	addiw	x2,x0,1
    80000da4:	00000013          	addi	x0,x0,0
    80000da8:	00000013          	addi	x0,x0,0
    80000dac:	00000013          	addi	x0,x0,0
    80000db0:	00000013          	addi	x0,x0,0
    80000db4:	02011113          	slli	x2,x2,0x20
    80000db8:	00000013          	addi	x0,x0,0
    80000dbc:	00000013          	addi	x0,x0,0
    80000dc0:	00000013          	addi	x0,x0,0
    80000dc4:	00000013          	addi	x0,x0,0
    80000dc8:	fff1011b          	addiw	x2,x2,-1
    80000dcc:	00000013          	addi	x0,x0,0
    80000dd0:	00000013          	addi	x0,x0,0
    80000dd4:	00000013          	addi	x0,x0,0
    80000dd8:	00000013          	addi	x0,x0,0
    80000ddc:	0220e263          	bltu	x1,x2,80000e00 <test_38+0x68>
    80000de0:	00000013          	addi	x0,x0,0
    80000de4:	00000013          	addi	x0,x0,0
    80000de8:	58301463          	bne	x0,x3,80001370 <fail>
    80000dec:	00000013          	addi	x0,x0,0
    80000df0:	00000013          	addi	x0,x0,0
    80000df4:	02301263          	bne	x0,x3,80000e18 <test_39>
    80000df8:	00000013          	addi	x0,x0,0
    80000dfc:	00000013          	addi	x0,x0,0
    80000e00:	fe20eae3          	bltu	x1,x2,80000df4 <test_38+0x5c>
    80000e04:	00000013          	addi	x0,x0,0
    80000e08:	00000013          	addi	x0,x0,0
    80000e0c:	56301263          	bne	x0,x3,80001370 <fail>
    80000e10:	00000013          	addi	x0,x0,0
    80000e14:	00000013          	addi	x0,x0,0

0000000080000e18 <test_39>:
    80000e18:	02700193          	addi	x3,x0,39
    80000e1c:	00100093          	addi	x1,x0,1
    80000e20:	00000113          	addi	x2,x0,0
    80000e24:	00000013          	addi	x0,x0,0
    80000e28:	00000013          	addi	x0,x0,0
    80000e2c:	00000013          	addi	x0,x0,0
    80000e30:	00000013          	addi	x0,x0,0
    80000e34:	0020ec63          	bltu	x1,x2,80000e4c <test_39+0x34>
    80000e38:	00000013          	addi	x0,x0,0
    80000e3c:	00000013          	addi	x0,x0,0
    80000e40:	00301c63          	bne	x0,x3,80000e58 <test_39+0x40>
    80000e44:	00000013          	addi	x0,x0,0
    80000e48:	00000013          	addi	x0,x0,0
    80000e4c:	52301263          	bne	x0,x3,80001370 <fail>
    80000e50:	00000013          	addi	x0,x0,0
    80000e54:	00000013          	addi	x0,x0,0
    80000e58:	fe20eae3          	bltu	x1,x2,80000e4c <test_39+0x34>
    80000e5c:	00000013          	addi	x0,x0,0
    80000e60:	00000013          	addi	x0,x0,0

0000000080000e64 <test_40>:
    80000e64:	02800193          	addi	x3,x0,40
    80000e68:	0010009b          	addiw	x1,x0,1
    80000e6c:	00000013          	addi	x0,x0,0
    80000e70:	00000013          	addi	x0,x0,0
    80000e74:	00000013          	addi	x0,x0,0
    80000e78:	00000013          	addi	x0,x0,0
    80000e7c:	02009093          	slli	x1,x1,0x20
    80000e80:	00000013          	addi	x0,x0,0
    80000e84:	00000013          	addi	x0,x0,0
    80000e88:	00000013          	addi	x0,x0,0
    80000e8c:	00000013          	addi	x0,x0,0
    80000e90:	fff0809b          	addiw	x1,x1,-1
    80000e94:	0010011b          	addiw	x2,x0,1
    80000e98:	00000013          	addi	x0,x0,0
    80000e9c:	00000013          	addi	x0,x0,0
    80000ea0:	00000013          	addi	x0,x0,0
    80000ea4:	00000013          	addi	x0,x0,0
    80000ea8:	02011113          	slli	x2,x2,0x20
    80000eac:	00000013          	addi	x0,x0,0
    80000eb0:	00000013          	addi	x0,x0,0
    80000eb4:	00000013          	addi	x0,x0,0
    80000eb8:	00000013          	addi	x0,x0,0
    80000ebc:	ffe1011b          	addiw	x2,x2,-2
    80000ec0:	00000013          	addi	x0,x0,0
    80000ec4:	00000013          	addi	x0,x0,0
    80000ec8:	00000013          	addi	x0,x0,0
    80000ecc:	00000013          	addi	x0,x0,0
    80000ed0:	0020ec63          	bltu	x1,x2,80000ee8 <test_40+0x84>
    80000ed4:	00000013          	addi	x0,x0,0
    80000ed8:	00000013          	addi	x0,x0,0
    80000edc:	00301c63          	bne	x0,x3,80000ef4 <test_40+0x90>
    80000ee0:	00000013          	addi	x0,x0,0
    80000ee4:	00000013          	addi	x0,x0,0
    80000ee8:	48301463          	bne	x0,x3,80001370 <fail>
    80000eec:	00000013          	addi	x0,x0,0
    80000ef0:	00000013          	addi	x0,x0,0
    80000ef4:	fe20eae3          	bltu	x1,x2,80000ee8 <test_40+0x84>
    80000ef8:	00000013          	addi	x0,x0,0
    80000efc:	00000013          	addi	x0,x0,0

0000000080000f00 <test_41>:
    80000f00:	02900193          	addi	x3,x0,41
    80000f04:	0010009b          	addiw	x1,x0,1
    80000f08:	00000013          	addi	x0,x0,0
    80000f0c:	00000013          	addi	x0,x0,0
    80000f10:	00000013          	addi	x0,x0,0
    80000f14:	00000013          	addi	x0,x0,0
    80000f18:	02009093          	slli	x1,x1,0x20
    80000f1c:	00000013          	addi	x0,x0,0
    80000f20:	00000013          	addi	x0,x0,0
    80000f24:	00000013          	addi	x0,x0,0
    80000f28:	00000013          	addi	x0,x0,0
    80000f2c:	fff0809b          	addiw	x1,x1,-1
    80000f30:	00000113          	addi	x2,x0,0
    80000f34:	00000013          	addi	x0,x0,0
    80000f38:	00000013          	addi	x0,x0,0
    80000f3c:	00000013          	addi	x0,x0,0
    80000f40:	00000013          	addi	x0,x0,0
    80000f44:	0020ec63          	bltu	x1,x2,80000f5c <test_41+0x5c>
    80000f48:	00000013          	addi	x0,x0,0
    80000f4c:	00000013          	addi	x0,x0,0
    80000f50:	00301c63          	bne	x0,x3,80000f68 <test_41+0x68>
    80000f54:	00000013          	addi	x0,x0,0
    80000f58:	00000013          	addi	x0,x0,0
    80000f5c:	40301a63          	bne	x0,x3,80001370 <fail>
    80000f60:	00000013          	addi	x0,x0,0
    80000f64:	00000013          	addi	x0,x0,0
    80000f68:	fe20eae3          	bltu	x1,x2,80000f5c <test_41+0x5c>
    80000f6c:	00000013          	addi	x0,x0,0
    80000f70:	00000013          	addi	x0,x0,0

0000000080000f74 <test_42>:
    80000f74:	02a00193          	addi	x3,x0,42
    80000f78:	0010009b          	addiw	x1,x0,1
    80000f7c:	00000013          	addi	x0,x0,0
    80000f80:	00000013          	addi	x0,x0,0
    80000f84:	00000013          	addi	x0,x0,0
    80000f88:	00000013          	addi	x0,x0,0
    80000f8c:	01f09093          	slli	x1,x1,0x1f
    80000f90:	80000137          	lui	x2,0x80000
    80000f94:	00000013          	addi	x0,x0,0
    80000f98:	00000013          	addi	x0,x0,0
    80000f9c:	00000013          	addi	x0,x0,0
    80000fa0:	00000013          	addi	x0,x0,0
    80000fa4:	fff1011b          	addiw	x2,x2,-1 # 7fffffff <_start-0x1>
    80000fa8:	00000013          	addi	x0,x0,0
    80000fac:	00000013          	addi	x0,x0,0
    80000fb0:	00000013          	addi	x0,x0,0
    80000fb4:	00000013          	addi	x0,x0,0
    80000fb8:	0020ec63          	bltu	x1,x2,80000fd0 <test_42+0x5c>
    80000fbc:	00000013          	addi	x0,x0,0
    80000fc0:	00000013          	addi	x0,x0,0
    80000fc4:	00301c63          	bne	x0,x3,80000fdc <test_42+0x68>
    80000fc8:	00000013          	addi	x0,x0,0
    80000fcc:	00000013          	addi	x0,x0,0
    80000fd0:	3a301063          	bne	x0,x3,80001370 <fail>
    80000fd4:	00000013          	addi	x0,x0,0
    80000fd8:	00000013          	addi	x0,x0,0
    80000fdc:	fe20eae3          	bltu	x1,x2,80000fd0 <test_42+0x5c>
    80000fe0:	00000013          	addi	x0,x0,0
    80000fe4:	00000013          	addi	x0,x0,0

0000000080000fe8 <test_43>:
    80000fe8:	02b00193          	addi	x3,x0,43
    80000fec:	00000093          	addi	x1,x0,0
    80000ff0:	00100113          	addi	x2,x0,1
    80000ff4:	00000013          	addi	x0,x0,0
    80000ff8:	00000013          	addi	x0,x0,0
    80000ffc:	00000013          	addi	x0,x0,0
    80001000:	00000013          	addi	x0,x0,0
    80001004:	02209263          	bne	x1,x2,80001028 <test_43+0x40>
    80001008:	00000013          	addi	x0,x0,0
    8000100c:	00000013          	addi	x0,x0,0
    80001010:	36301063          	bne	x0,x3,80001370 <fail>
    80001014:	00000013          	addi	x0,x0,0
    80001018:	00000013          	addi	x0,x0,0
    8000101c:	02301263          	bne	x0,x3,80001040 <test_44>
    80001020:	00000013          	addi	x0,x0,0
    80001024:	00000013          	addi	x0,x0,0
    80001028:	fe209ae3          	bne	x1,x2,8000101c <test_43+0x34>
    8000102c:	00000013          	addi	x0,x0,0
    80001030:	00000013          	addi	x0,x0,0
    80001034:	32301e63          	bne	x0,x3,80001370 <fail>
    80001038:	00000013          	addi	x0,x0,0
    8000103c:	00000013          	addi	x0,x0,0

0000000080001040 <test_44>:
    80001040:	02c00193          	addi	x3,x0,44
    80001044:	00100093          	addi	x1,x0,1
    80001048:	00000113          	addi	x2,x0,0
    8000104c:	00000013          	addi	x0,x0,0
    80001050:	00000013          	addi	x0,x0,0
    80001054:	00000013          	addi	x0,x0,0
    80001058:	00000013          	addi	x0,x0,0
    8000105c:	02209263          	bne	x1,x2,80001080 <test_44+0x40>
    80001060:	00000013          	addi	x0,x0,0
    80001064:	00000013          	addi	x0,x0,0
    80001068:	30301463          	bne	x0,x3,80001370 <fail>
    8000106c:	00000013          	addi	x0,x0,0
    80001070:	00000013          	addi	x0,x0,0
    80001074:	02301263          	bne	x0,x3,80001098 <test_45>
    80001078:	00000013          	addi	x0,x0,0
    8000107c:	00000013          	addi	x0,x0,0
    80001080:	fe209ae3          	bne	x1,x2,80001074 <test_44+0x34>
    80001084:	00000013          	addi	x0,x0,0
    80001088:	00000013          	addi	x0,x0,0
    8000108c:	2e301263          	bne	x0,x3,80001370 <fail>
    80001090:	00000013          	addi	x0,x0,0
    80001094:	00000013          	addi	x0,x0,0

0000000080001098 <test_45>:
    80001098:	02d00193          	addi	x3,x0,45
    8000109c:	fff00093          	addi	x1,x0,-1
    800010a0:	00100113          	addi	x2,x0,1
    800010a4:	00000013          	addi	x0,x0,0
    800010a8:	00000013          	addi	x0,x0,0
    800010ac:	00000013          	addi	x0,x0,0
    800010b0:	00000013          	addi	x0,x0,0
    800010b4:	02209263          	bne	x1,x2,800010d8 <test_45+0x40>
    800010b8:	00000013          	addi	x0,x0,0
    800010bc:	00000013          	addi	x0,x0,0
    800010c0:	2a301863          	bne	x0,x3,80001370 <fail>
    800010c4:	00000013          	addi	x0,x0,0
    800010c8:	00000013          	addi	x0,x0,0
    800010cc:	02301263          	bne	x0,x3,800010f0 <test_46>
    800010d0:	00000013          	addi	x0,x0,0
    800010d4:	00000013          	addi	x0,x0,0
    800010d8:	fe209ae3          	bne	x1,x2,800010cc <test_45+0x34>
    800010dc:	00000013          	addi	x0,x0,0
    800010e0:	00000013          	addi	x0,x0,0
    800010e4:	28301663          	bne	x0,x3,80001370 <fail>
    800010e8:	00000013          	addi	x0,x0,0
    800010ec:	00000013          	addi	x0,x0,0

00000000800010f0 <test_46>:
    800010f0:	02e00193          	addi	x3,x0,46
    800010f4:	00100093          	addi	x1,x0,1
    800010f8:	fff00113          	addi	x2,x0,-1
    800010fc:	00000013          	addi	x0,x0,0
    80001100:	00000013          	addi	x0,x0,0
    80001104:	00000013          	addi	x0,x0,0
    80001108:	00000013          	addi	x0,x0,0
    8000110c:	02209263          	bne	x1,x2,80001130 <test_46+0x40>
    80001110:	00000013          	addi	x0,x0,0
    80001114:	00000013          	addi	x0,x0,0
    80001118:	24301c63          	bne	x0,x3,80001370 <fail>
    8000111c:	00000013          	addi	x0,x0,0
    80001120:	00000013          	addi	x0,x0,0
    80001124:	02301263          	bne	x0,x3,80001148 <test_47>
    80001128:	00000013          	addi	x0,x0,0
    8000112c:	00000013          	addi	x0,x0,0
    80001130:	fe209ae3          	bne	x1,x2,80001124 <test_46+0x34>
    80001134:	00000013          	addi	x0,x0,0
    80001138:	00000013          	addi	x0,x0,0
    8000113c:	22301a63          	bne	x0,x3,80001370 <fail>
    80001140:	00000013          	addi	x0,x0,0
    80001144:	00000013          	addi	x0,x0,0

0000000080001148 <test_47>:
    80001148:	02f00193          	addi	x3,x0,47
    8000114c:	00000093          	addi	x1,x0,0
    80001150:	00000113          	addi	x2,x0,0
    80001154:	00000013          	addi	x0,x0,0
    80001158:	00000013          	addi	x0,x0,0
    8000115c:	00000013          	addi	x0,x0,0
    80001160:	00000013          	addi	x0,x0,0
    80001164:	00209c63          	bne	x1,x2,8000117c <test_47+0x34>
    80001168:	00000013          	addi	x0,x0,0
    8000116c:	00000013          	addi	x0,x0,0
    80001170:	00301c63          	bne	x0,x3,80001188 <test_47+0x40>
    80001174:	00000013          	addi	x0,x0,0
    80001178:	00000013          	addi	x0,x0,0
    8000117c:	1e301a63          	bne	x0,x3,80001370 <fail>
    80001180:	00000013          	addi	x0,x0,0
    80001184:	00000013          	addi	x0,x0,0
    80001188:	fe209ae3          	bne	x1,x2,8000117c <test_47+0x34>
    8000118c:	00000013          	addi	x0,x0,0
    80001190:	00000013          	addi	x0,x0,0

0000000080001194 <test_48>:
    80001194:	03000193          	addi	x3,x0,48
    80001198:	00100093          	addi	x1,x0,1
    8000119c:	00100113          	addi	x2,x0,1
    800011a0:	00000013          	addi	x0,x0,0
    800011a4:	00000013          	addi	x0,x0,0
    800011a8:	00000013          	addi	x0,x0,0
    800011ac:	00000013          	addi	x0,x0,0
    800011b0:	00209c63          	bne	x1,x2,800011c8 <test_48+0x34>
    800011b4:	00000013          	addi	x0,x0,0
    800011b8:	00000013          	addi	x0,x0,0
    800011bc:	00301c63          	bne	x0,x3,800011d4 <test_48+0x40>
    800011c0:	00000013          	addi	x0,x0,0
    800011c4:	00000013          	addi	x0,x0,0
    800011c8:	1a301463          	bne	x0,x3,80001370 <fail>
    800011cc:	00000013          	addi	x0,x0,0
    800011d0:	00000013          	addi	x0,x0,0
    800011d4:	fe209ae3          	bne	x1,x2,800011c8 <test_48+0x34>
    800011d8:	00000013          	addi	x0,x0,0
    800011dc:	00000013          	addi	x0,x0,0

00000000800011e0 <test_49>:
    800011e0:	03100193          	addi	x3,x0,49
    800011e4:	fff00093          	addi	x1,x0,-1
    800011e8:	fff00113          	addi	x2,x0,-1
    800011ec:	00000013          	addi	x0,x0,0
    800011f0:	00000013          	addi	x0,x0,0
    800011f4:	00000013          	addi	x0,x0,0
    800011f8:	00000013          	addi	x0,x0,0
    800011fc:	00209c63          	bne	x1,x2,80001214 <test_49+0x34>
    80001200:	00000013          	addi	x0,x0,0
    80001204:	00000013          	addi	x0,x0,0
    80001208:	00301c63          	bne	x0,x3,80001220 <test_49+0x40>
    8000120c:	00000013          	addi	x0,x0,0
    80001210:	00000013          	addi	x0,x0,0
    80001214:	14301e63          	bne	x0,x3,80001370 <fail>
    80001218:	00000013          	addi	x0,x0,0
    8000121c:	00000013          	addi	x0,x0,0
    80001220:	fe209ae3          	bne	x1,x2,80001214 <test_49+0x34>
    80001224:	00000013          	addi	x0,x0,0
    80001228:	00000013          	addi	x0,x0,0

000000008000122c <test_50>:
    8000122c:	03200193          	addi	x3,x0,50
    80001230:	00000093          	addi	x1,x0,0
    80001234:	0180026f          	jal	x4,8000124c <target_50>

0000000080001238 <linkaddr_50>:
    80001238:	00000013          	addi	x0,x0,0
    8000123c:	00000013          	addi	x0,x0,0
    80001240:	1300006f          	jal	x0,80001370 <fail>
    80001244:	00000013          	addi	x0,x0,0
    80001248:	00000013          	addi	x0,x0,0

000000008000124c <target_50>:
    8000124c:	00000117          	auipc	x2,0x0
    80001250:	00000013          	addi	x0,x0,0
    80001254:	00000013          	addi	x0,x0,0
    80001258:	00000013          	addi	x0,x0,0
    8000125c:	00000013          	addi	x0,x0,0
    80001260:	fec10113          	addi	x2,x2,-20 # 80001238 <linkaddr_50>
    80001264:	00000013          	addi	x0,x0,0
    80001268:	00000013          	addi	x0,x0,0
    8000126c:	00000013          	addi	x0,x0,0
    80001270:	00000013          	addi	x0,x0,0
    80001274:	0e411e63          	bne	x2,x4,80001370 <fail>
    80001278:	00000013          	addi	x0,x0,0
    8000127c:	00000013          	addi	x0,x0,0

0000000080001280 <test_51>:
    80001280:	03300193          	addi	x3,x0,51
    80001284:	00000293          	addi	x5,x0,0
    80001288:	00000317          	auipc	x6,0x0
    8000128c:	00000013          	addi	x0,x0,0
    80001290:	00000013          	addi	x0,x0,0
    80001294:	00000013          	addi	x0,x0,0
    80001298:	00000013          	addi	x0,x0,0
    8000129c:	04030313          	addi	x6,x6,64 # 800012c8 <target_51>
    800012a0:	00000013          	addi	x0,x0,0
    800012a4:	00000013          	addi	x0,x0,0
    800012a8:	00000013          	addi	x0,x0,0
    800012ac:	00000013          	addi	x0,x0,0
    800012b0:	000302e7          	jalr	x5,0(x6)

00000000800012b4 <linkaddr_51>:
    800012b4:	00000013          	addi	x0,x0,0
    800012b8:	00000013          	addi	x0,x0,0
    800012bc:	0b40006f          	jal	x0,80001370 <fail>
    800012c0:	00000013          	addi	x0,x0,0
    800012c4:	00000013          	addi	x0,x0,0

00000000800012c8 <target_51>:
    800012c8:	00000317          	auipc	x6,0x0
    800012cc:	fec30313          	addi	x6,x6,-20 # 800012b4 <linkaddr_51>
    800012d0:	00000013          	addi	x0,x0,0
    800012d4:	00000013          	addi	x0,x0,0
    800012d8:	00000013          	addi	x0,x0,0
    800012dc:	00000013          	addi	x0,x0,0
    800012e0:	08629863          	bne	x5,x6,80001370 <fail>
    800012e4:	00000013          	addi	x0,x0,0
    800012e8:	00000013          	addi	x0,x0,0

00000000800012ec <test_52>:
    800012ec:	03400193          	addi	x3,x0,52
    800012f0:	00000297          	auipc	x5,0x0
    800012f4:	00000013          	addi	x0,x0,0
    800012f8:	00000013          	addi	x0,x0,0
    800012fc:	00000013          	addi	x0,x0,0
    80001300:	00000013          	addi	x0,x0,0
    80001304:	04028293          	addi	x5,x5,64 # 80001330 <target_52>
    80001308:	00000013          	addi	x0,x0,0
    8000130c:	00000013          	addi	x0,x0,0
    80001310:	00000013          	addi	x0,x0,0
    80001314:	00000013          	addi	x0,x0,0
    80001318:	000282e7          	jalr	x5,0(x5)

000000008000131c <linkaddr_52>:
    8000131c:	00000013          	addi	x0,x0,0
    80001320:	00000013          	addi	x0,x0,0
    80001324:	04c0006f          	jal	x0,80001370 <fail>
    80001328:	00000013          	addi	x0,x0,0
    8000132c:	00000013          	addi	x0,x0,0

0000000080001330 <target_52>:
    80001330:	00000317          	auipc	x6,0x0
    80001334:	00000013          	addi	x0,x0,0
    80001338:	00000013          	addi	x0,x0,0
    8000133c:	00000013          	addi	x0,x0,0
    80001340:	00000013          	addi	x0,x0,0
    80001344:	fec30313          	addi	x6,x6,-20 # 8000131c <linkaddr_52>
    80001348:	00000013          	addi	x0,x0,0
    8000134c:	00000013          	addi	x0,x0,0
    80001350:	00000013          	addi	x0,x0,0
    80001354:	00000013          	addi	x0,x0,0
    80001358:	00629c63          	bne	x5,x6,80001370 <fail>
    8000135c:	00000013          	addi	x0,x0,0
    80001360:	00000013          	addi	x0,x0,0
    80001364:	04301263          	bne	x0,x3,800013a8 <pass>
    80001368:	00000013          	addi	x0,x0,0
    8000136c:	00000013          	addi	x0,x0,0

0000000080001370 <fail>:
    80001370:	00018063          	beq	x3,x0,80001370 <fail>
    80001374:	00000013          	addi	x0,x0,0
    80001378:	00000013          	addi	x0,x0,0
    8000137c:	00119193          	slli	x3,x3,0x1
    80001380:	00000013          	addi	x0,x0,0
    80001384:	00000013          	addi	x0,x0,0
    80001388:	00000013          	addi	x0,x0,0
    8000138c:	00000013          	addi	x0,x0,0
    80001390:	0011e193          	ori	x3,x3,1
    80001394:	05d00893          	addi	x17,x0,93
    80001398:	00000013          	addi	x0,x0,0
    8000139c:	00000013          	addi	x0,x0,0
    800013a0:	00018513          	addi	x10,x3,0
    800013a4:	00000073          	ecall

00000000800013a8 <pass>:
    800013a8:	00100193          	addi	x3,x0,1
    800013ac:	05d00893          	addi	x17,x0,93
    800013b0:	00000513          	addi	x10,x0,0
    800013b4:	00000073          	ecall
