
./build/test:     file format elf64-littleriscv


Disassembly of section .text:

0000000080000000 <_start>:
    80000000:	02111d13          	slli	x26,x2,0x21
    80000004:	9b4bcc97          	auipc	x25,0x9b4bc
    80000008:	0116db13          	srli	x22,x13,0x11
    8000000c:	308da417          	auipc	x8,0x308da
    80000010:	1ec4881b          	addiw	x16,x9,492
    80000014:	a90f9237          	lui	x4,0xa90f9
    80000018:	037b5313          	srli	x6,x22,0x37
    8000001c:	f43aa697          	auipc	x13,0xf43aa
    80000020:	0011d813          	srli	x16,x3,0x1
    80000024:	0095ccb7          	lui	x25,0x95c
    80000028:	fcea8f9b          	addiw	x31,x21,-50
    8000002c:	61d38217          	auipc	x4,0x61d38
    80000030:	c8f7871b          	addiw	x14,x15,-881
    80000034:	29303297          	auipc	x5,0x29303
    80000038:	1a537f93          	andi	x31,x6,421
    8000003c:	aa5e4397          	auipc	x7,0xaa5e4
    80000040:	43895693          	srai	x13,x18,0x38
    80000044:	a253fc37          	lui	x24,0xa253f
    80000048:	de29079b          	addiw	x15,x18,-542
    8000004c:	10e1c5b7          	lui	x11,0x10e1c
    80000050:	a35f081b          	addiw	x16,x30,-1483
    80000054:	4c91d437          	lui	x8,0x4c91d
    80000058:	0d1c8293          	addi	x5,x25,209 # 95c0d1 <_start-0x7f6a3f2f>
    8000005c:	d6bea6b7          	lui	x13,0xd6bea
    80000060:	7c3e089b          	addiw	x17,x28,1987
    80000064:	a60de297          	auipc	x5,0xa60de
    80000068:	2baf839b          	addiw	x7,x31,698
    8000006c:	084c87b7          	lui	x15,0x84c8
    80000070:	00e3d89b          	srliw	x17,x7,0xe
    80000074:	aa422517          	auipc	x10,0xaa422
    80000078:	01231193          	slli	x3,x6,0x12
    8000007c:	25e2e137          	lui	x2,0x25e2e
    80000080:	bd460393          	addi	x7,x12,-1068
    80000084:	bd82f297          	auipc	x5,0xbd82f
    80000088:	e3a0a113          	slti	x2,x1,-454
    8000008c:	f55e13b7          	lui	x7,0xf55e1
    80000090:	59e0c193          	xori	x3,x1,1438
    80000094:	23d79837          	lui	x16,0x23d79
    80000098:	3359c213          	xori	x4,x19,821
    8000009c:	1f40f597          	auipc	x11,0x1f40f
    800000a0:	40c15e93          	srai	x29,x2,0xc
    800000a4:	85302617          	auipc	x12,0x85302
    800000a8:	e8257f13          	andi	x30,x10,-382
    800000ac:	52eba537          	lui	x10,0x52eba
    800000b0:	6273f813          	andi	x16,x7,1575
    800000b4:	f178e037          	lui	x0,0xf178e
    800000b8:	01699d1b          	slliw	x26,x19,0x16
    800000bc:	4e8c1817          	auipc	x16,0x4e8c1
    800000c0:	40aed013          	srai	x0,x29,0xa
    800000c4:	8fcfe117          	auipc	x2,0x8fcfe
    800000c8:	345f3793          	sltiu	x15,x30,837
    800000cc:	43c2ab17          	auipc	x22,0x43c2a
    800000d0:	01ac599b          	srliw	x19,x24,0x1a
    800000d4:	62766037          	lui	x0,0x62766
    800000d8:	00f55a9b          	srliw	x21,x10,0xf
    800000dc:	c1de2e37          	lui	x28,0xc1de2
    800000e0:	01915d1b          	srliw	x26,x2,0x19
    800000e4:	54d35117          	auipc	x2,0x54d35
    800000e8:	01485213          	srli	x4,x16,0x14
    800000ec:	00091f97          	auipc	x31,0x91
    800000f0:	1fca0f93          	addi	x31,x20,508
    800000f4:	d48ce197          	auipc	x3,0xd48ce
    800000f8:	87844293          	xori	x5,x8,-1928
    800000fc:	a1e1fd17          	auipc	x26,0xa1e1f
    80000100:	81300693          	addi	x13,x0,-2029
    80000104:	3ce0f637          	lui	x12,0x3ce0f
    80000108:	0f59861b          	addiw	x12,x19,245
    8000010c:	f3828337          	lui	x6,0xf3828
    80000110:	02309293          	slli	x5,x1,0x23
    80000114:	83527397          	auipc	x7,0x83527
    80000118:	cf13bb13          	sltiu	x22,x7,-783
    8000011c:	15a80097          	auipc	x1,0x15a80
    80000120:	21280693          	addi	x13,x16,530 # ce8c12ce <_start+0x4e8c12ce>
    80000124:	fd2d3117          	auipc	x2,0xfd2d3
    80000128:	017dde9b          	srliw	x29,x27,0x17
    8000012c:	c04be6b7          	lui	x13,0xc04be
    80000130:	c6e0091b          	addiw	x18,x0,-914
    80000134:	aab488b7          	lui	x17,0xaab48
    80000138:	2d22fb93          	andi	x23,x5,722
    8000013c:	8a0be137          	lui	x2,0x8a0be
    80000140:	38c93493          	sltiu	x9,x18,908
    80000144:	96397417          	auipc	x8,0x96397
    80000148:	98b7af13          	slti	x30,x15,-1653
    8000014c:	24482597          	auipc	x11,0x24482
    80000150:	193aec93          	ori	x25,x21,403
    80000154:	32e49317          	auipc	x6,0x32e49
    80000158:	42bf5f13          	srai	x30,x30,0x2b
    8000015c:	f54ad397          	auipc	x7,0xf54ad
    80000160:	935daf93          	slti	x31,x27,-1739
    80000164:	4fb33a97          	auipc	x21,0x4fb33
    80000168:	a1b2bc13          	sltiu	x24,x5,-1509
    8000016c:	712e9637          	lui	x12,0x712e9
    80000170:	b2300c13          	addi	x24,x0,-1245
    80000174:	e5a79917          	auipc	x18,0xe5a79
    80000178:	00add693          	srli	x13,x27,0xa
    8000017c:	8596d717          	auipc	x14,0x8596d
    80000180:	e24d851b          	addiw	x10,x27,-476
    80000184:	20b1f397          	auipc	x7,0x20b1f
    80000188:	00ce509b          	srliw	x1,x28,0xc
    8000018c:	cbc09fb7          	lui	x31,0xcbc09
    80000190:	ee816693          	ori	x13,x2,-280
    80000194:	655c5337          	lui	x6,0x655c5
    80000198:	013bdc13          	srli	x24,x23,0x13
    8000019c:	4bfb5fb7          	lui	x31,0x4bfb5
    800001a0:	7dad8c9b          	addiw	x25,x27,2010
    800001a4:	ff4e9f97          	auipc	x31,0xff4e9
    800001a8:	0007161b          	slliw	x12,x14,0x0
    800001ac:	a4c63a17          	auipc	x20,0xa4c63
    800001b0:	cfd80493          	addi	x9,x16,-771
    800001b4:	f0dc6917          	auipc	x18,0xf0dc6
    800001b8:	a1f12293          	slti	x5,x2,-1505
    800001bc:	14cdb437          	lui	x8,0x14cdb
    800001c0:	294e6013          	ori	x0,x28,660
    800001c4:	ebe574b7          	lui	x9,0xebe57
    800001c8:	ae617c13          	andi	x24,x2,-1306
    800001cc:	69869db7          	lui	x27,0x69869
    800001d0:	46ff6d13          	ori	x26,x30,1135
    800001d4:	001f80b7          	lui	x1,0x1f8
    800001d8:	0109d59b          	srliw	x11,x19,0x10
    800001dc:	fcad5217          	auipc	x4,0xfcad5
    800001e0:	44bd6993          	ori	x19,x26,1099
    800001e4:	53dcf197          	auipc	x3,0x53dcf
    800001e8:	0127941b          	slliw	x8,x15,0x12
    800001ec:	1265e197          	auipc	x3,0x1265e
    800001f0:	03e4dd13          	srli	x26,x9,0x3e
    800001f4:	b49e84b7          	lui	x9,0xb49e8
    800001f8:	031e9113          	slli	x2,x29,0x31
    800001fc:	33f54197          	auipc	x3,0x33f54
    80000200:	0040d493          	srli	x9,x1,0x4
    80000204:	35e8fa37          	lui	x20,0x35e8f
    80000208:	01865b1b          	srliw	x22,x12,0x18
    8000020c:	1ecd6397          	auipc	x7,0x1ecd6
    80000210:	bfaa8e9b          	addiw	x29,x21,-1030 # ffffffffcfb32d5e <_start+0xffffffff4fb32d5e>
    80000214:	c6797417          	auipc	x8,0xc6797
    80000218:	40c3d91b          	sraiw	x18,x7,0xc
    8000021c:	e39ffcb7          	lui	x25,0xe39ff
    80000220:	368ef613          	andi	x12,x29,872
    80000224:	14785137          	lui	x2,0x14785
    80000228:	01b0d813          	srli	x16,x1,0x1b
    8000022c:	d718c2b7          	lui	x5,0xd718c
    80000230:	4123d993          	srai	x19,x7,0x12
    80000234:	2b063d97          	auipc	x27,0x2b063
    80000238:	b2c22d13          	slti	x26,x4,-1236
    8000023c:	0fb80497          	auipc	x9,0xfb80
    80000240:	41adde1b          	sraiw	x28,x27,0x1a
    80000244:	a624bfb7          	lui	x31,0xa624b
    80000248:	0162d81b          	srliw	x16,x5,0x16
    8000024c:	b7f003b7          	lui	x7,0xb7f00
    80000250:	016b509b          	srliw	x1,x22,0x16
    80000254:	76033037          	lui	x0,0x76033
    80000258:	ea74f213          	andi	x4,x9,-345
    8000025c:	3f1286b7          	lui	x13,0x3f128
    80000260:	0179501b          	srliw	x0,x18,0x17
    80000264:	48a57737          	lui	x14,0x48a57
    80000268:	7413be93          	sltiu	x29,x7,1857
    8000026c:	42a40817          	auipc	x16,0x42a40
    80000270:	2b8b8693          	addi	x13,x23,696
    80000274:	97bab917          	auipc	x18,0x97bab
    80000278:	40a5da13          	srai	x20,x11,0xa
    8000027c:	501409b7          	lui	x19,0x50140
    80000280:	01c41493          	slli	x9,x8,0x1c
    80000284:	792b2797          	auipc	x15,0x792b2
    80000288:	4179559b          	sraiw	x11,x18,0x17
    8000028c:	43b42117          	auipc	x2,0x43b42
    80000290:	a7ec809b          	addiw	x1,x25,-1410 # ffffffffe39fea7e <_start+0xffffffff639fea7e>
    80000294:	d7289437          	lui	x8,0xd7289
    80000298:	5824ed13          	ori	x26,x9,1410
    8000029c:	2b4aeb17          	auipc	x22,0x2b4ae
    800002a0:	9d9bce13          	xori	x28,x23,-1575
    800002a4:	04509d17          	auipc	x26,0x4509
    800002a8:	01ae1a13          	slli	x20,x28,0x1a
    800002ac:	f1182917          	auipc	x18,0xf1182
    800002b0:	0dc32593          	slti	x11,x6,220
    800002b4:	e46fa4b7          	lui	x9,0xe46fa
    800002b8:	037d1593          	slli	x11,x26,0x37
    800002bc:	e82a37b7          	lui	x15,0xe82a3
    800002c0:	6ccb7493          	andi	x9,x22,1740
    800002c4:	68437f37          	lui	x30,0x68437
    800002c8:	6c8e6013          	ori	x0,x28,1736
    800002cc:	98dcd6b7          	lui	x13,0x98dcd
    800002d0:	5934a993          	slti	x19,x9,1427
    800002d4:	fecfd297          	auipc	x5,0xfecfd
    800002d8:	411cd71b          	sraiw	x14,x25,0x11
    800002dc:	8a47b3b7          	lui	x7,0x8a47b
    800002e0:	0100111b          	slliw	x2,x0,0x10
    800002e4:	e3a09c97          	auipc	x25,0xe3a09
    800002e8:	111b2813          	slti	x16,x22,273
    800002ec:	1226a2b7          	lui	x5,0x1226a
    800002f0:	2e09a813          	slti	x16,x19,736
    800002f4:	53bd77b7          	lui	x15,0x53bd7
    800002f8:	10c92d13          	slti	x26,x18,268
    800002fc:	35eab6b7          	lui	x13,0x35eab
    80000300:	02589c93          	slli	x25,x17,0x25
    80000304:	468f6b97          	auipc	x23,0x468f6
    80000308:	4343b393          	sltiu	x7,x7,1076
    8000030c:	4770ee97          	auipc	x29,0x4770e
    80000310:	43cb5993          	srai	x19,x22,0x3c
    80000314:	f4140697          	auipc	x13,0xf4140
    80000318:	007fda13          	srli	x20,x31,0x7
    8000031c:	491e9997          	auipc	x19,0x491e9
    80000320:	02d18fbb          	mulw	x31,x3,x13
    80000324:	052d2c97          	auipc	x25,0x52d2
    80000328:	000cc2b3          	xor	x5,x25,x0
    8000032c:	0128e033          	or	x0,x17,x18
    80000330:	0266493b          	divw	x18,x12,x6
    80000334:	02ac7ab3          	remu	x21,x24,x10
    80000338:	03c4ddb3          	divu	x27,x9,x28
    8000033c:	00b6d433          	srl	x8,x13,x11
    80000340:	03fddc3b          	divuw	x24,x27,x31
    80000344:	02de563b          	divuw	x12,x28,x13
    80000348:	0057113b          	sllw	x2,x14,x5
    8000034c:	413705b3          	sub	x11,x14,x19
    80000350:	03ab7933          	remu	x18,x22,x26
    80000354:	03feddb3          	divu	x27,x29,x31
    80000358:	40288abb          	subw	x21,x17,x2
    8000035c:	01200b3b          	addw	x22,x0,x18
    80000360:	4010009b          	addiw	x1,x0,1025
    80000364:	01509093          	slli	x1,x1,0x15
    80000368:	5a409823          	sh	x4,1456(x1) # 1f85b0 <_start-0x7fe07a50>
    8000036c:	5b009203          	lh	x4,1456(x1)
    80000370:	5b00d703          	lhu	x14,1456(x1)
    80000374:	03d74cb3          	div	x25,x14,x29
    80000378:	0342c333          	div	x6,x5,x20
    8000037c:	40185a3b          	sraw	x20,x16,x1
    80000380:	40d28bbb          	subw	x23,x5,x13
    80000384:	4138063b          	subw	x12,x16,x19
    80000388:	03e87c3b          	remuw	x24,x16,x30
    8000038c:	400209b3          	sub	x19,x4,x0
    80000390:	03a18e3b          	mulw	x28,x3,x26
    80000394:	4052d3bb          	sraw	x7,x5,x5
    80000398:	02dd64bb          	remw	x9,x26,x13
    8000039c:	002ccdb3          	xor	x27,x25,x2
    800003a0:	03140733          	mul	x14,x8,x17
    800003a4:	00c9533b          	srlw	x6,x18,x12
    800003a8:	03181eb3          	mulh	x29,x16,x17
    800003ac:	01a5e333          	or	x6,x11,x26
    800003b0:	003d9033          	sll	x0,x27,x3
    800003b4:	0363d8b3          	divu	x17,x7,x22
    800003b8:	02f76933          	rem	x18,x14,x15
    800003bc:	01771a33          	sll	x20,x14,x23
    800003c0:	00041533          	sll	x10,x8,x0
    800003c4:	0080dbb3          	srl	x23,x1,x8
    800003c8:	00d4023b          	addw	x4,x8,x13
    800003cc:	0287c6bb          	divw	x13,x15,x8
    800003d0:	406fd433          	sra	x8,x31,x6
    800003d4:	03df9b33          	mulh	x22,x31,x29
    800003d8:	4010009b          	addiw	x1,x0,1025
    800003dc:	01509093          	slli	x1,x1,0x15
    800003e0:	7ca09a23          	sh	x10,2004(x1)
    800003e4:	7d409503          	lh	x10,2004(x1)
    800003e8:	7d40df03          	lhu	x30,2004(x1)
    800003ec:	0302aa33          	mulhsu	x20,x5,x16
    800003f0:	012a163b          	sllw	x12,x20,x18
    800003f4:	40fa013b          	subw	x2,x20,x15
    800003f8:	03686733          	rem	x14,x16,x22
    800003fc:	00918b33          	add	x22,x3,x9
    80000400:	02f081b3          	mul	x3,x1,x15
    80000404:	4010009b          	addiw	x1,x0,1025
    80000408:	01509093          	slli	x1,x1,0x15
    8000040c:	a3409023          	sh	x20,-1504(x1)
    80000410:	a2009a03          	lh	x20,-1504(x1)
    80000414:	a200d183          	lhu	x3,-1504(x1)
    80000418:	40d45db3          	sra	x27,x8,x13
    8000041c:	00b9fb33          	and	x22,x19,x11
    80000420:	020c0d3b          	mulw	x26,x24,x0
    80000424:	02712eb3          	mulhsu	x29,x2,x7
    80000428:	0094003b          	addw	x0,x8,x9
    8000042c:	0017a5b3          	slt	x11,x15,x1
    80000430:	006d82bb          	addw	x5,x27,x6
    80000434:	410154bb          	sraw	x9,x2,x16
    80000438:	005f8133          	add	x2,x31,x5
    8000043c:	02fee4b3          	rem	x9,x29,x15
    80000440:	011a8cbb          	addw	x25,x21,x17
    80000444:	01e909b3          	add	x19,x18,x30
    80000448:	03d13833          	mulhu	x16,x2,x29
    8000044c:	003f9b3b          	sllw	x22,x31,x3
    80000450:	945db837          	lui	x16,0x945db
    80000454:	030c4abb          	divw	x21,x24,x16
    80000458:	0367bab3          	mulhu	x21,x15,x22
    8000045c:	0091d033          	srl	x0,x3,x9
    80000460:	01fa1933          	sll	x18,x20,x31
    80000464:	0090553b          	srlw	x10,x0,x9
    80000468:	400ad43b          	sraw	x8,x21,x0
    8000046c:	03b2063b          	mulw	x12,x4,x27
    80000470:	02a21533          	mulh	x10,x4,x10
    80000474:	031d9c33          	mulh	x24,x27,x17
    80000478:	01088db3          	add	x27,x17,x16
    8000047c:	02caaa33          	mulhsu	x20,x21,x12
    80000480:	0384f03b          	remuw	x0,x9,x24
    80000484:	40170d33          	sub	x26,x14,x1
    80000488:	01fb063b          	addw	x12,x22,x31
    8000048c:	dec8879b          	addiw	x15,x17,-532 # ffffffffaab47dec <_start+0xffffffff2ab47dec>
    80000490:	01c7ce33          	xor	x28,x15,x28
    80000494:	404e053b          	subw	x10,x28,x4
    80000498:	01b818bb          	sllw	x17,x16,x27
    8000049c:	0019d2b3          	srl	x5,x19,x1
    800004a0:	4010009b          	addiw	x1,x0,1025
    800004a4:	01509093          	slli	x1,x1,0x15
    800004a8:	4ac0ac23          	sw	x12,1208(x1)
    800004ac:	4b80a603          	lw	x12,1208(x1)
    800004b0:	4b80ec03          	lwu	x24,1208(x1)
    800004b4:	01d15c3b          	srlw	x24,x2,x29
    800004b8:	001a78b3          	and	x17,x20,x1
    800004bc:	02511433          	mulh	x8,x2,x5
    800004c0:	40c25033          	sra	x0,x4,x12
    800004c4:	021a0133          	mul	x2,x20,x1
    800004c8:	009d78b3          	and	x17,x26,x9
    800004cc:	00a199bb          	sllw	x19,x3,x10
    800004d0:	03810133          	mul	x2,x2,x24
    800004d4:	02b2d2bb          	divuw	x5,x5,x11
    800004d8:	030a583b          	divuw	x16,x20,x16
    800004dc:	409e54bb          	sraw	x9,x28,x9
    800004e0:	034135b3          	mulhu	x11,x2,x20
    800004e4:	03d7deb3          	divu	x29,x15,x29
    800004e8:	03e47ab3          	remu	x21,x8,x30
    800004ec:	020aa2b3          	mulhsu	x5,x21,x0
    800004f0:	015e5b3b          	srlw	x22,x28,x21
    800004f4:	414453b3          	sra	x7,x8,x20
    800004f8:	0150d41b          	srliw	x8,x1,0x15
    800004fc:	403d013b          	subw	x2,x26,x3
    80000500:	404b0533          	sub	x10,x22,x4
    80000504:	41385b3b          	sraw	x22,x16,x19
    80000508:	01d0d5bb          	srlw	x11,x1,x29
    8000050c:	006b123b          	sllw	x4,x22,x6
    80000510:	4195d0b3          	sra	x1,x11,x25
    80000514:	4010009b          	addiw	x1,x0,1025
    80000518:	01509093          	slli	x1,x1,0x15
    8000051c:	7dd0ae23          	sw	x29,2012(x1)
    80000520:	7dc0ae83          	lw	x29,2012(x1)
    80000524:	7dc0ef03          	lwu	x30,2012(x1)
    80000528:	010cc1b3          	xor	x3,x25,x16
    8000052c:	b26b2a93          	slti	x21,x22,-1242
    80000530:	402904b3          	sub	x9,x18,x2
    80000534:	4b345517          	auipc	x10,0x4b345
    80000538:	0157853b          	addw	x10,x15,x21
    8000053c:	73ee0117          	auipc	x2,0x73ee0
    80000540:	02aad933          	divu	x18,x21,x10
    80000544:	01dd2533          	slt	x10,x26,x29
    80000548:	00a07c33          	and	x24,x0,x10
    8000054c:	4010009b          	addiw	x1,x0,1025
    80000550:	01509093          	slli	x1,x1,0x15
    80000554:	ccb0b023          	sd	x11,-832(x1)
    80000558:	cc00b583          	ld	x11,-832(x1)
    8000055c:	000a00b3          	add	x1,x20,x0
    80000560:	0294c3bb          	divw	x7,x9,x9
    80000564:	00faddbb          	srlw	x27,x21,x15
    80000568:	024c96b3          	mulh	x13,x25,x4
    8000056c:	03b33b33          	mulhu	x22,x6,x27
    80000570:	03970c33          	mul	x24,x14,x25
    80000574:	0118123b          	sllw	x4,x16,x17
    80000578:	02ff20b3          	mulhsu	x1,x30,x15
    8000057c:	026cca33          	div	x20,x25,x6
    80000580:	01a0fcb3          	and	x25,x1,x26
    80000584:	00aeeeb3          	or	x29,x29,x10
    80000588:	03250d33          	mul	x26,x10,x18
    8000058c:	4164db33          	sra	x22,x9,x22
    80000590:	030611b3          	mulh	x3,x12,x16
    80000594:	002c5933          	srl	x18,x24,x2
    80000598:	011d513b          	srlw	x2,x26,x17
    8000059c:	40745433          	sra	x8,x8,x7
    800005a0:	019d80bb          	addw	x1,x27,x25
    800005a4:	028dd233          	divu	x4,x27,x8
    800005a8:	4017053b          	subw	x10,x14,x1
    800005ac:	032b6fbb          	remw	x31,x22,x18
    800005b0:	02a85d3b          	divuw	x26,x16,x10
    800005b4:	03849ab3          	mulh	x21,x9,x24
    800005b8:	018b2c33          	slt	x24,x22,x24
    800005bc:	006d1d33          	sll	x26,x26,x6
    800005c0:	00768333          	add	x6,x13,x7
    800005c4:	00228c3b          	addw	x24,x5,x2
    800005c8:	b75a7f13          	andi	x30,x20,-1163
    800005cc:	40efd833          	sra	x16,x31,x14
    800005d0:	02152233          	mulhsu	x4,x10,x1
    800005d4:	03c69d33          	mulh	x26,x13,x28
    800005d8:	00ac0433          	add	x8,x24,x10
    800005dc:	41928c33          	sub	x24,x5,x25
    800005e0:	03e11eb3          	mulh	x29,x2,x30
    800005e4:	01ecbfb3          	sltu	x31,x25,x30
    800005e8:	01352bb3          	slt	x23,x10,x19
    800005ec:	41e2523b          	sraw	x4,x4,x30
    800005f0:	01e852bb          	srlw	x5,x16,x30
    800005f4:	006b94b3          	sll	x9,x23,x6
    800005f8:	0206643b          	remw	x8,x12,x0
    800005fc:	03e32fb3          	mulhsu	x31,x6,x30
    80000600:	02037abb          	remuw	x21,x6,x0
    80000604:	02e889b3          	mul	x19,x17,x14
    80000608:	2eeeda97          	auipc	x21,0x2eeed
    8000060c:	01771db3          	sll	x27,x14,x23
    80000610:	01e62933          	slt	x18,x12,x30
    80000614:	0193943b          	sllw	x8,x7,x25
    80000618:	03777f3b          	remuw	x30,x14,x23
    8000061c:	019b58bb          	srlw	x17,x22,x25
    80000620:	03c38933          	mul	x18,x7,x28
    80000624:	01faa5b3          	slt	x11,x21,x31
    80000628:	03dc6c33          	rem	x24,x24,x29
    8000062c:	033cb733          	mulhu	x14,x25,x19
    80000630:	01e2d033          	srl	x0,x5,x30
    80000634:	0021adb3          	slt	x27,x3,x2
    80000638:	00ba3633          	sltu	x12,x20,x11
    8000063c:	02e0dbbb          	divuw	x23,x1,x14
    80000640:	4010009b          	addiw	x1,x0,1025
    80000644:	01509093          	slli	x1,x1,0x15
    80000648:	c200b023          	sd	x0,-992(x1)
    8000064c:	c200b003          	ld	x0,-992(x1)
    80000650:	01d2e633          	or	x12,x5,x29
    80000654:	4010009b          	addiw	x1,x0,1025
    80000658:	01509093          	slli	x1,x1,0x15
    8000065c:	da40b423          	sd	x4,-600(x1)
    80000660:	da80b203          	ld	x4,-600(x1)
    80000664:	018d2733          	slt	x14,x26,x24
    80000668:	4010009b          	addiw	x1,x0,1025
    8000066c:	01509093          	slli	x1,x1,0x15
    80000670:	42d0b823          	sd	x13,1072(x1)
    80000674:	4300b683          	ld	x13,1072(x1)
    80000678:	0218c13b          	divw	x2,x17,x1
    8000067c:	03dafbb3          	remu	x23,x21,x29
    80000680:	026842b3          	div	x5,x16,x6
    80000684:	018404b3          	add	x9,x8,x24
    80000688:	03a66a33          	rem	x20,x12,x26
    8000068c:	007f6333          	or	x6,x30,x7
    80000690:	035e85b3          	mul	x11,x29,x21
    80000694:	0152bc33          	sltu	x24,x5,x21
    80000698:	01af2b33          	slt	x22,x30,x26
    8000069c:	e4647cb7          	lui	x25,0xe4647
    800006a0:	01e857bb          	srlw	x15,x16,x30
    800006a4:	01792e33          	slt	x28,x18,x23
    800006a8:	02c2c4b3          	div	x9,x5,x12
    800006ac:	0291d3b3          	divu	x7,x3,x9
    800006b0:	018ed533          	srl	x10,x29,x24
    800006b4:	03950633          	mul	x12,x10,x25
    800006b8:	02ba463b          	divw	x12,x20,x11
    800006bc:	03f4fdb3          	remu	x27,x9,x31
    800006c0:	02f14e33          	div	x28,x2,x15
    800006c4:	02066a3b          	remw	x20,x12,x0
    800006c8:	00ee77b3          	and	x15,x28,x14
    800006cc:	01fad93b          	srlw	x18,x21,x31
    800006d0:	419e5b33          	sra	x22,x28,x25
    800006d4:	02927ebb          	remuw	x29,x4,x9
    800006d8:	03dcc4bb          	divw	x9,x25,x29
    800006dc:	4190d133          	sra	x2,x1,x25
    800006e0:	02dd7d3b          	remuw	x26,x26,x13
    800006e4:	4010009b          	addiw	x1,x0,1025
    800006e8:	01509093          	slli	x1,x1,0x15
    800006ec:	1ff09023          	sh	x31,480(x1)
    800006f0:	1e009f83          	lh	x31,480(x1)
    800006f4:	1e00dc03          	lhu	x24,480(x1)
    800006f8:	03f2a233          	mulhsu	x4,x5,x31
    800006fc:	00a99b93          	slli	x23,x19,0xa
    80000700:	0370c7bb          	divw	x15,x1,x23
    80000704:	011e33b3          	sltu	x7,x28,x17
    80000708:	01071abb          	sllw	x21,x14,x16
    8000070c:	004ffa33          	and	x20,x31,x4
    80000710:	001c5a3b          	srlw	x20,x24,x1
    80000714:	0214c433          	div	x8,x9,x1
    80000718:	0108a133          	slt	x2,x17,x16
    8000071c:	40cbd933          	sra	x18,x23,x12
    80000720:	40a00ab3          	sub	x21,x0,x10
    80000724:	028ad833          	divu	x16,x21,x8
    80000728:	03024d33          	div	x26,x4,x16
    8000072c:	03f41233          	mulh	x4,x8,x31
    80000730:	026b673b          	remw	x14,x22,x6
    80000734:	00cc873b          	addw	x14,x25,x12
    80000738:	4168d533          	sra	x10,x17,x22
    8000073c:	408a0ebb          	subw	x29,x20,x8
    80000740:	0342e033          	rem	x0,x5,x20
    80000744:	412002b3          	sub	x5,x0,x18
    80000748:	036678b3          	remu	x17,x12,x22
    8000074c:	0053dd3b          	srlw	x26,x7,x5
    80000750:	00f955b3          	srl	x11,x18,x15
    80000754:	02116933          	rem	x18,x2,x1
    80000758:	a243ea37          	lui	x20,0xa243e
    8000075c:	02f1d933          	divu	x18,x3,x15
    80000760:	01ac31b3          	sltu	x3,x24,x26
    80000764:	01fa2833          	slt	x16,x20,x31
    80000768:	00355bbb          	srlw	x23,x10,x3
    8000076c:	005790bb          	sllw	x1,x15,x5
    80000770:	03c465bb          	remw	x11,x8,x28
    80000774:	7e39a397          	auipc	x7,0x7e39a
    80000778:	01bc98b3          	sll	x17,x25,x27
    8000077c:	00f60b3b          	addw	x22,x12,x15
    80000780:	02b4d9bb          	divuw	x19,x9,x11
    80000784:	02e5a0b3          	mulhsu	x1,x11,x14
    80000788:	00f52433          	slt	x8,x10,x15
    8000078c:	02ced0bb          	divuw	x1,x29,x12
    80000790:	00dc0c3b          	addw	x24,x24,x13
    80000794:	02831fb3          	mulh	x31,x6,x8
    80000798:	00f002b3          	add	x5,x0,x15
    8000079c:	036d68b3          	rem	x17,x26,x22
    800007a0:	02f5023b          	mulw	x4,x10,x15
    800007a4:	03c241bb          	divw	x3,x4,x28
    800007a8:	02097433          	remu	x8,x18,x0
    800007ac:	413bdb33          	sra	x22,x23,x19
    800007b0:	00cf70b3          	and	x1,x30,x12
    800007b4:	01c9df33          	srl	x30,x19,x28
    800007b8:	036ae93b          	remw	x18,x21,x22
    800007bc:	013c9cbb          	sllw	x25,x25,x19
    800007c0:	41068dbb          	subw	x27,x13,x16
    800007c4:	035f1433          	mulh	x8,x30,x21
    800007c8:	00c19eb3          	sll	x29,x3,x12
    800007cc:	02c0f233          	remu	x4,x1,x12
    800007d0:	02d0783b          	remuw	x16,x0,x13
    800007d4:	00088bbb          	addw	x23,x17,x0
    800007d8:	f8e9851b          	addiw	x10,x19,-114 # ffffffffc91e92aa <_start+0xffffffff491e92aa>
    800007dc:	036befbb          	remw	x31,x23,x22
    800007e0:	00b0d3bb          	srlw	x7,x1,x11
    800007e4:	c4955697          	auipc	x13,0xc4955
    800007e8:	01f5d5b3          	srl	x11,x11,x31
    800007ec:	02073d33          	mulhu	x26,x14,x0
    800007f0:	02544133          	div	x2,x8,x5
    800007f4:	0151d633          	srl	x12,x3,x21
    800007f8:	03efe8b3          	rem	x17,x31,x30
    800007fc:	00aeb233          	sltu	x4,x29,x10
    80000800:	01ae3cb3          	sltu	x25,x28,x26
    80000804:	0073d43b          	srlw	x8,x7,x7
    80000808:	010d9333          	sll	x6,x27,x16
    8000080c:	02025b33          	divu	x22,x4,x0
    80000810:	01a38433          	add	x8,x7,x26
    80000814:	00540a33          	add	x20,x8,x5
    80000818:	02d1873b          	mulw	x14,x3,x13
    8000081c:	41340cb3          	sub	x25,x8,x19
    80000820:	029e61bb          	remw	x3,x28,x9
    80000824:	025556b3          	divu	x13,x10,x5
    80000828:	00d818b3          	sll	x17,x16,x13
    8000082c:	4010009b          	addiw	x1,x0,1025
    80000830:	01509093          	slli	x1,x1,0x15
    80000834:	84408a23          	sb	x4,-1964(x1)
    80000838:	85408203          	lb	x4,-1964(x1)
    8000083c:	8540c903          	lbu	x18,-1964(x1)
    80000840:	007474b3          	and	x9,x8,x7
    80000844:	4010009b          	addiw	x1,x0,1025
    80000848:	01509093          	slli	x1,x1,0x15
    8000084c:	2890a823          	sw	x9,656(x1)
    80000850:	2900a483          	lw	x9,656(x1)
    80000854:	2900e203          	lwu	x4,656(x1)
    80000858:	0106cbb3          	xor	x23,x13,x16
    8000085c:	025f6fb3          	rem	x31,x30,x5
    80000860:	41ecdc3b          	sraw	x24,x25,x30
    80000864:	02971233          	mulh	x4,x14,x9
    80000868:	0244ea3b          	remw	x20,x9,x4
    8000086c:	40438c33          	sub	x24,x7,x4
    80000870:	03eb39b3          	mulhu	x19,x22,x30
    80000874:	036eea3b          	remw	x20,x29,x22
    80000878:	415b8c33          	sub	x24,x23,x21
    8000087c:	4010009b          	addiw	x1,x0,1025
    80000880:	01509093          	slli	x1,x1,0x15
    80000884:	72409a23          	sh	x4,1844(x1)
    80000888:	73409203          	lh	x4,1844(x1)
    8000088c:	7340d383          	lhu	x7,1844(x1)
    80000890:	4017ddb3          	sra	x27,x15,x1
    80000894:	002b6133          	or	x2,x22,x2
    80000898:	01efd8b3          	srl	x17,x31,x30
    8000089c:	4010009b          	addiw	x1,x0,1025
    800008a0:	01509093          	slli	x1,x1,0x15
    800008a4:	31e09223          	sh	x30,772(x1)
    800008a8:	30409f03          	lh	x30,772(x1)
    800008ac:	3040d503          	lhu	x10,772(x1)
    800008b0:	41850f33          	sub	x30,x10,x24
    800008b4:	03d086b3          	mul	x13,x1,x29
    800008b8:	034e65bb          	remw	x11,x28,x20
    800008bc:	019dd4bb          	srlw	x9,x27,x25
    800008c0:	00d7993b          	sllw	x18,x15,x13
    800008c4:	02feabb3          	mulhsu	x23,x29,x15
    800008c8:	02fa44b3          	div	x9,x20,x15
    800008cc:	03c3a5b3          	mulhsu	x11,x7,x28
    800008d0:	02fb75b3          	remu	x11,x22,x15
    800008d4:	038906b3          	mul	x13,x18,x24
    800008d8:	414d0b3b          	subw	x22,x26,x20
    800008dc:	6aa54613          	xori	x12,x10,1706
    800008e0:	01afb933          	sltu	x18,x31,x26
    800008e4:	415183b3          	sub	x7,x3,x21
    800008e8:	03a9ce33          	div	x28,x19,x26
    800008ec:	0052a2b3          	slt	x5,x5,x5
    800008f0:	02f37abb          	remuw	x21,x6,x15
    800008f4:	4059d31b          	sraiw	x6,x19,0x5
    800008f8:	02c47cbb          	remuw	x25,x8,x12
    800008fc:	008705bb          	addw	x11,x14,x8
    80000900:	0099bfb3          	sltu	x31,x19,x9
    80000904:	41a402bb          	subw	x5,x8,x26
    80000908:	03eb70bb          	remuw	x1,x22,x30
    8000090c:	000748b3          	xor	x17,x14,x0
    80000910:	028d003b          	mulw	x0,x26,x8
    80000914:	02ea2133          	mulhsu	x2,x20,x14
    80000918:	01175e33          	srl	x28,x14,x17
    8000091c:	4168dfb3          	sra	x31,x17,x22
    80000920:	019916b3          	sll	x13,x18,x25
    80000924:	008313bb          	sllw	x7,x6,x8
    80000928:	00b6583b          	srlw	x16,x12,x11
    8000092c:	403c5a3b          	sraw	x20,x24,x3
    80000930:	02940c3b          	mulw	x24,x8,x9
    80000934:	00dd1e33          	sll	x28,x26,x13
    80000938:	019312bb          	sllw	x5,x6,x25
    8000093c:	02256eb3          	rem	x29,x10,x2
    80000940:	01ac2333          	slt	x6,x24,x26
    80000944:	41f6863b          	subw	x12,x13,x31
    80000948:	02c4733b          	remuw	x6,x8,x12
    8000094c:	030c9db3          	mulh	x27,x25,x16
    80000950:	036b50b3          	divu	x1,x22,x22
    80000954:	40d68e3b          	subw	x28,x13,x13
    80000958:	aecf4e93          	xori	x29,x30,-1300
    8000095c:	015cb933          	sltu	x18,x25,x21
    80000960:	037fc3b3          	div	x7,x31,x23
    80000964:	028752b3          	divu	x5,x14,x8
    80000968:	032ff0bb          	remuw	x1,x31,x18
    8000096c:	0274fbbb          	remuw	x23,x9,x7
    80000970:	00cbd233          	srl	x4,x23,x12
    80000974:	039c1db3          	mulh	x27,x24,x25
    80000978:	4099523b          	sraw	x4,x18,x9
    8000097c:	029b6fbb          	remw	x31,x22,x9
    80000980:	02d83db3          	mulhu	x27,x16,x13
    80000984:	00bdfe33          	and	x28,x27,x11
    80000988:	0372cf3b          	divw	x30,x5,x23
    8000098c:	0027efb3          	or	x31,x15,x2
    80000990:	03085813          	srli	x16,x16,0x30
    80000994:	01f523b3          	slt	x7,x10,x31
    80000998:	00972033          	slt	x0,x14,x9
    8000099c:	0245f4bb          	remuw	x9,x11,x4
    800009a0:	010ee8b3          	or	x17,x29,x16
    800009a4:	41c48233          	sub	x4,x9,x28
    800009a8:	018d5833          	srl	x16,x26,x24
    800009ac:	2da496b7          	lui	x13,0x2da49
    800009b0:	02d784bb          	mulw	x9,x15,x13
    800009b4:	03a8703b          	remuw	x0,x16,x26
    800009b8:	038aa433          	mulhsu	x8,x21,x24
    800009bc:	00f8ee33          	or	x28,x17,x15
    800009c0:	0372c9bb          	divw	x19,x5,x23
    800009c4:	003e0c33          	add	x24,x28,x3
    800009c8:	02ce9db3          	mulh	x27,x29,x12
    800009cc:	4010009b          	addiw	x1,x0,1025
    800009d0:	01509093          	slli	x1,x1,0x15
    800009d4:	4460a823          	sw	x6,1104(x1)
    800009d8:	4500a303          	lw	x6,1104(x1)
    800009dc:	4500e803          	lwu	x16,1104(x1)
    800009e0:	410f0fbb          	subw	x31,x30,x16
    800009e4:	00b8ffb3          	and	x31,x17,x11
    800009e8:	8ff37813          	andi	x16,x6,-1793
    800009ec:	01561a33          	sll	x20,x12,x21
    800009f0:	0367d3b3          	divu	x7,x15,x22
    800009f4:	01bd8b3b          	addw	x22,x27,x27
    800009f8:	03c2b333          	mulhu	x6,x5,x28
    800009fc:	00ff0c33          	add	x24,x30,x15
    80000a00:	023d033b          	mulw	x6,x26,x3
    80000a04:	007889bb          	addw	x19,x17,x7
    80000a08:	005004b3          	add	x9,x0,x5
    80000a0c:	4177d63b          	sraw	x12,x15,x23
    80000a10:	019e3533          	sltu	x10,x28,x25
    80000a14:	ea5a8313          	addi	x6,x21,-347 # aeeed4ad <_start+0x2eeed4ad>
    80000a18:	0259a3b3          	mulhsu	x7,x19,x5
    80000a1c:	02f1c933          	div	x18,x3,x15
    80000a20:	41d5553b          	sraw	x10,x10,x29
    80000a24:	401c50bb          	sraw	x1,x24,x1
    80000a28:	00dc12b3          	sll	x5,x24,x13
    80000a2c:	00bbaeb3          	slt	x29,x23,x11
    80000a30:	02ed503b          	divuw	x0,x26,x14
    80000a34:	03df1a33          	mulh	x20,x30,x29
    80000a38:	00e5b533          	sltu	x10,x11,x14
    80000a3c:	03ebd0b3          	divu	x1,x23,x30
    80000a40:	0260e7b3          	rem	x15,x1,x6
    80000a44:	038665bb          	remw	x11,x12,x24
    80000a48:	03f12433          	mulhsu	x8,x2,x31
    80000a4c:	020bde3b          	divuw	x28,x23,x0
    80000a50:	408f823b          	subw	x4,x31,x8
    80000a54:	02d8fcb3          	remu	x25,x17,x13
    80000a58:	000a8f33          	add	x30,x21,x0
    80000a5c:	012e1d33          	sll	x26,x28,x18
    80000a60:	01ac4b33          	xor	x22,x24,x26
    80000a64:	03f9473b          	divw	x14,x18,x31
    80000a68:	01f90db3          	add	x27,x18,x31
    80000a6c:	033cedb3          	rem	x27,x25,x19
    80000a70:	40ad59b3          	sra	x19,x26,x10
    80000a74:	013e5e3b          	srlw	x28,x28,x19
    80000a78:	001c5733          	srl	x14,x24,x1
    80000a7c:	004ff5b3          	and	x11,x31,x4
    80000a80:	02b74133          	div	x2,x14,x11
    80000a84:	94317597          	auipc	x11,0x94317
    80000a88:	40a159bb          	sraw	x19,x2,x10
    80000a8c:	012f63b3          	or	x7,x30,x18
    80000a90:	0158913b          	sllw	x2,x17,x21
    80000a94:	41d70933          	sub	x18,x14,x29
    80000a98:	024c26b3          	mulhsu	x13,x24,x4
    80000a9c:	400b82b3          	sub	x5,x23,x0
    80000aa0:	40210033          	sub	x0,x2,x2
    80000aa4:	025f753b          	remuw	x10,x30,x5
    80000aa8:	00430433          	add	x8,x6,x4
    80000aac:	026643bb          	divw	x7,x12,x6
    80000ab0:	01cf43b3          	xor	x7,x30,x28
    80000ab4:	03742333          	mulhsu	x6,x8,x23
    80000ab8:	00f172b3          	and	x5,x2,x15
    80000abc:	413cda33          	sra	x20,x25,x19
    80000ac0:	0394f2b3          	remu	x5,x9,x25
    80000ac4:	4000dbb3          	sra	x23,x1,x0
    80000ac8:	df546693          	ori	x13,x8,-523
    80000acc:	028f6fbb          	remw	x31,x30,x8
    80000ad0:	02b1643b          	remw	x8,x2,x11
    80000ad4:	409f833b          	subw	x6,x31,x9
    80000ad8:	00f3d633          	srl	x12,x7,x15
    80000adc:	0388c33b          	divw	x6,x17,x24
    80000ae0:	41970ab3          	sub	x21,x14,x25
    80000ae4:	030528b3          	mulhsu	x17,x10,x16
    80000ae8:	03aa82bb          	mulw	x5,x21,x26
    80000aec:	81bcc5b7          	lui	x11,0x81bcc
    80000af0:	03f563bb          	remw	x7,x10,x31
    80000af4:	032d4233          	div	x4,x26,x18
    80000af8:	015500b3          	add	x1,x10,x21
    80000afc:	00c12633          	slt	x12,x2,x12
    80000b00:	036aee33          	rem	x28,x21,x22
    80000b04:	037d40bb          	divw	x1,x26,x23
    80000b08:	020c773b          	remuw	x14,x24,x0
    80000b0c:	039d0fbb          	mulw	x31,x26,x25
    80000b10:	03cc6db3          	rem	x27,x24,x28
    80000b14:	00053233          	sltu	x4,x10,x0
    80000b18:	00b864b3          	or	x9,x16,x11
    80000b1c:	03ba1d33          	mulh	x26,x20,x27
    80000b20:	010a6833          	or	x16,x20,x16
    80000b24:	00cf90bb          	sllw	x1,x31,x12
    80000b28:	02110d3b          	mulw	x26,x2,x1
    80000b2c:	0010c8b3          	xor	x17,x1,x1
    80000b30:	03cf2b33          	mulhsu	x22,x30,x28
    80000b34:	0360b5b3          	mulhu	x11,x1,x22
    80000b38:	0067523b          	srlw	x4,x14,x6
    80000b3c:	414fd43b          	sraw	x8,x31,x20
    80000b40:	035f8833          	mul	x16,x31,x21
    80000b44:	030bc13b          	divw	x2,x23,x16
    80000b48:	0289d333          	divu	x6,x19,x8
    80000b4c:	00caf233          	and	x4,x21,x12
    80000b50:	02320f33          	mul	x30,x4,x3
    80000b54:	4058543b          	sraw	x8,x16,x5
    80000b58:	002bfeb3          	and	x29,x23,x2
    80000b5c:	0139e3b3          	or	x7,x19,x19
    80000b60:	019f003b          	addw	x0,x30,x25
    80000b64:	411d02bb          	subw	x5,x26,x17
    80000b68:	029c6fb3          	rem	x31,x24,x9
    80000b6c:	03164dbb          	divw	x27,x12,x17
    80000b70:	412bda3b          	sraw	x20,x23,x18
    80000b74:	008ea533          	slt	x10,x29,x8
    80000b78:	03c304b3          	mul	x9,x6,x28
    80000b7c:	01154a33          	xor	x20,x10,x17
    80000b80:	014a6c33          	or	x24,x20,x20
    80000b84:	0336703b          	remuw	x0,x12,x19
    80000b88:	00ff053b          	addw	x10,x30,x15
    80000b8c:	0181b333          	sltu	x6,x3,x24
    80000b90:	4094dfbb          	sraw	x31,x9,x9
    80000b94:	006cf3b3          	and	x7,x25,x6
    80000b98:	0336b333          	mulhu	x6,x13,x19
    80000b9c:	03589e33          	mulh	x28,x17,x21
    80000ba0:	02b85cb3          	divu	x25,x16,x11
    80000ba4:	405e8b3b          	subw	x22,x29,x5
    80000ba8:	003ed9bb          	srlw	x19,x29,x3
    80000bac:	00e70fbb          	addw	x31,x14,x14
    80000bb0:	026dce3b          	divw	x28,x27,x6
    80000bb4:	00c46a33          	or	x20,x8,x12
    80000bb8:	035faa33          	mulhsu	x20,x31,x21
    80000bbc:	0328ff3b          	remuw	x30,x17,x18
    80000bc0:	1fa3e613          	ori	x12,x7,506
    80000bc4:	01d183bb          	addw	x7,x3,x29
    80000bc8:	034d2c33          	mulhsu	x24,x26,x20
    80000bcc:	009faab3          	slt	x21,x31,x9
    80000bd0:	02040f3b          	mulw	x30,x8,x0
    80000bd4:	027470bb          	remuw	x1,x8,x7
    80000bd8:	00321633          	sll	x12,x4,x3
    80000bdc:	037c5bbb          	divuw	x23,x24,x23
    80000be0:	0007113b          	sllw	x2,x14,x0
    80000be4:	4010009b          	addiw	x1,x0,1025
    80000be8:	01509093          	slli	x1,x1,0x15
    80000bec:	e690b423          	sd	x9,-408(x1)
    80000bf0:	e680b483          	ld	x9,-408(x1)
    80000bf4:	011a4433          	xor	x8,x20,x17
    80000bf8:	015fdd33          	srl	x26,x31,x21
    80000bfc:	035e79bb          	remuw	x19,x28,x21
    80000c00:	00d018bb          	sllw	x17,x0,x13
    80000c04:	00b41dbb          	sllw	x27,x8,x11
    80000c08:	0112063b          	addw	x12,x4,x17
    80000c0c:	007f85bb          	addw	x11,x31,x7
    80000c10:	0033d5bb          	srlw	x11,x7,x3
    80000c14:	028372b3          	remu	x5,x6,x8
    80000c18:	406b8b3b          	subw	x22,x23,x6
    80000c1c:	02da8433          	mul	x8,x21,x13
    80000c20:	02694e3b          	divw	x28,x18,x6
    80000c24:	0286633b          	remw	x6,x12,x8
    80000c28:	01c53a33          	sltu	x20,x10,x28
    80000c2c:	000ce2b3          	or	x5,x25,x0
    80000c30:	0157ddb3          	srl	x27,x15,x21
    80000c34:	01e26ab3          	or	x21,x4,x30
    80000c38:	003c17b3          	sll	x15,x24,x3
    80000c3c:	01d882bb          	addw	x5,x17,x29
    80000c40:	a29eba93          	sltiu	x21,x29,-1495
    80000c44:	032ee8bb          	remw	x17,x29,x18
    80000c48:	38fb6eb7          	lui	x29,0x38fb6
    80000c4c:	033ad9bb          	divuw	x19,x21,x19
    80000c50:	03400e33          	mul	x28,x0,x20
    80000c54:	02b9d0bb          	divuw	x1,x19,x11
    80000c58:	008e4d33          	xor	x26,x28,x8
    80000c5c:	00557bb3          	and	x23,x10,x5
    80000c60:	00cf6633          	or	x12,x30,x12
    80000c64:	b5c88817          	auipc	x16,0xb5c88
    80000c68:	01313e33          	sltu	x28,x2,x19
    80000c6c:	020f773b          	remuw	x14,x30,x0
    80000c70:	02da8cbb          	mulw	x25,x21,x13
    80000c74:	01159533          	sll	x10,x11,x17
    80000c78:	4134dc33          	sra	x24,x9,x19
    80000c7c:	021ce53b          	remw	x10,x25,x1
    80000c80:	00429d3b          	sllw	x26,x5,x4
    80000c84:	0346a233          	mulhsu	x4,x13,x20
    80000c88:	02a57333          	remu	x6,x10,x10
    80000c8c:	030e41b3          	div	x3,x28,x16
    80000c90:	40120fb3          	sub	x31,x4,x1
    80000c94:	03f54633          	div	x12,x10,x31
    80000c98:	017492b3          	sll	x5,x9,x23
    80000c9c:	4010009b          	addiw	x1,x0,1025
    80000ca0:	01509093          	slli	x1,x1,0x15
    80000ca4:	f330ae23          	sw	x19,-196(x1)
    80000ca8:	f3c0a983          	lw	x19,-196(x1)
    80000cac:	f3c0e983          	lwu	x19,-196(x1)
    80000cb0:	004b0d33          	add	x26,x22,x4
    80000cb4:	03336b3b          	remw	x22,x6,x19
    80000cb8:	41905133          	sra	x2,x0,x25
    80000cbc:	ee17bdb7          	lui	x27,0xee17b
    80000cc0:	03d5e03b          	remw	x0,x11,x29
    80000cc4:	02515033          	divu	x0,x2,x5
    80000cc8:	006715bb          	sllw	x11,x14,x6
    80000ccc:	01591c93          	slli	x25,x18,0x15
    80000cd0:	00cd0a33          	add	x20,x26,x12
    80000cd4:	03a147b3          	div	x15,x2,x26
    80000cd8:	035651b3          	divu	x3,x12,x21
    80000cdc:	0226b633          	mulhu	x12,x13,x2
    80000ce0:	013a9a33          	sll	x20,x21,x19
    80000ce4:	0238bd33          	mulhu	x26,x17,x3
    80000ce8:	03854fbb          	divw	x31,x10,x24
    80000cec:	03c44c3b          	divw	x24,x8,x28
    80000cf0:	41968733          	sub	x14,x13,x25
    80000cf4:	0293b2b3          	mulhu	x5,x7,x9
    80000cf8:	00838a33          	add	x20,x7,x8
    80000cfc:	030d15b3          	mulh	x11,x26,x16
    80000d00:	6ead5137          	lui	x2,0x6ead5
    80000d04:	023d68b3          	rem	x17,x26,x3
    80000d08:	006ab633          	sltu	x12,x21,x6
    80000d0c:	4101d933          	sra	x18,x3,x16
    80000d10:	00ea9633          	sll	x12,x21,x14
    80000d14:	41038c3b          	subw	x24,x7,x16
    80000d18:	01b110bb          	sllw	x1,x2,x27
    80000d1c:	0259d63b          	divuw	x12,x19,x5
    80000d20:	0095db3b          	srlw	x22,x11,x9
    80000d24:	03f5893b          	mulw	x18,x11,x31
    80000d28:	03e277bb          	remuw	x15,x4,x30
    80000d2c:	006a58bb          	srlw	x17,x20,x6
    80000d30:	02446b3b          	remw	x22,x8,x4
    80000d34:	033a4f3b          	divw	x30,x20,x19
    80000d38:	004d1133          	sll	x2,x26,x4
    80000d3c:	0193823b          	addw	x4,x7,x25
    80000d40:	032dd333          	divu	x6,x27,x18
    80000d44:	03acb1b3          	mulhu	x3,x25,x26
    80000d48:	006527b3          	slt	x15,x10,x6
    80000d4c:	036944b3          	div	x9,x18,x22
    80000d50:	00b4adb3          	slt	x27,x9,x11
    80000d54:	029ac0bb          	divw	x1,x21,x9
    80000d58:	006357b3          	srl	x15,x6,x6
    80000d5c:	03594fb3          	div	x31,x18,x21
    80000d60:	410c813b          	subw	x2,x25,x16
    80000d64:	00482ab3          	slt	x21,x16,x4
    80000d68:	411e0333          	sub	x6,x28,x17
    80000d6c:	414ad0bb          	sraw	x1,x21,x20
    80000d70:	036beb3b          	remw	x22,x23,x22
    80000d74:	01998cb3          	add	x25,x19,x25
    80000d78:	021a23b3          	mulhsu	x7,x20,x1
    80000d7c:	0121c433          	xor	x8,x3,x18
    80000d80:	01b722b3          	slt	x5,x14,x27
    80000d84:	0240f933          	remu	x18,x1,x4
    80000d88:	02a6dc33          	divu	x24,x13,x10
    80000d8c:	4010009b          	addiw	x1,x0,1025
    80000d90:	01509093          	slli	x1,x1,0x15
    80000d94:	d4009a23          	sh	x0,-684(x1)
    80000d98:	d5409003          	lh	x0,-684(x1)
    80000d9c:	d540d183          	lhu	x3,-684(x1)
    80000da0:	00e1cbb3          	xor	x23,x3,x14
    80000da4:	014bb9b3          	sltu	x19,x23,x20
    80000da8:	0287c1b3          	div	x3,x15,x8
    80000dac:	00236433          	or	x8,x6,x2
    80000db0:	01cecdb3          	xor	x27,x29,x28
    80000db4:	4010009b          	addiw	x1,x0,1025
    80000db8:	01509093          	slli	x1,x1,0x15
    80000dbc:	c0d0a623          	sw	x13,-1012(x1)
    80000dc0:	c0c0a683          	lw	x13,-1012(x1)
    80000dc4:	c0c0e983          	lwu	x19,-1012(x1)
    80000dc8:	023ca933          	mulhsu	x18,x25,x3
    80000dcc:	030cb7b3          	mulhu	x15,x25,x16
    80000dd0:	030a03bb          	mulw	x7,x20,x16
    80000dd4:	41335e3b          	sraw	x28,x6,x19
    80000dd8:	020afdb3          	remu	x27,x21,x0
    80000ddc:	0206633b          	remw	x6,x12,x0
    80000de0:	8a33ee93          	ori	x29,x7,-1885
    80000de4:	033887bb          	mulw	x15,x17,x19
    80000de8:	03ee0cbb          	mulw	x25,x28,x30
    80000dec:	01530933          	add	x18,x6,x21
    80000df0:	01681ebb          	sllw	x29,x16,x22
    80000df4:	03d5e733          	rem	x14,x11,x29
    80000df8:	02b28333          	mul	x6,x5,x11
    80000dfc:	035bc83b          	divw	x16,x23,x21
    80000e00:	01259abb          	sllw	x21,x11,x18
    80000e04:	031a29b3          	mulhsu	x19,x20,x17
    80000e08:	001b5233          	srl	x4,x22,x1
    80000e0c:	01090b3b          	addw	x22,x18,x16
    80000e10:	4010009b          	addiw	x1,x0,1025
    80000e14:	01509093          	slli	x1,x1,0x15
    80000e18:	fca0b423          	sd	x10,-56(x1)
    80000e1c:	fc80b503          	ld	x10,-56(x1)
    80000e20:	4033d733          	sra	x14,x7,x3
    80000e24:	03415c3b          	divuw	x24,x2,x20
    80000e28:	0166d813          	srli	x16,x13,0x16
    80000e2c:	0101ecb3          	or	x25,x3,x16
    80000e30:	41b80033          	sub	x0,x16,x27
    80000e34:	01ea9233          	sll	x4,x21,x30
    80000e38:	00373ab3          	sltu	x21,x14,x3
    80000e3c:	414c50bb          	sraw	x1,x24,x20
    80000e40:	401783bb          	subw	x7,x15,x1
    80000e44:	01fff7b3          	and	x15,x31,x31
    80000e48:	4025d83b          	sraw	x16,x11,x2
    80000e4c:	02e8fabb          	remuw	x21,x17,x14
    80000e50:	4010009b          	addiw	x1,x0,1025
    80000e54:	01509093          	slli	x1,x1,0x15
    80000e58:	c4608c23          	sb	x6,-936(x1)
    80000e5c:	c5808303          	lb	x6,-936(x1)
    80000e60:	c580ca83          	lbu	x21,-936(x1)
    80000e64:	0220b533          	mulhu	x10,x1,x2
    80000e68:	0282b4b3          	mulhu	x9,x5,x8
    80000e6c:	001c0d3b          	addw	x26,x24,x1
    80000e70:	4007d0b3          	sra	x1,x15,x0
    80000e74:	017bd2b3          	srl	x5,x23,x23
    80000e78:	40980bbb          	subw	x23,x16,x9
    80000e7c:	0143843b          	addw	x8,x7,x20
    80000e80:	03652333          	mulhsu	x6,x10,x22
    80000e84:	0195be33          	sltu	x28,x11,x25
    80000e88:	0104ea33          	or	x20,x9,x16
    80000e8c:	417bd2bb          	sraw	x5,x23,x23
    80000e90:	02dd64bb          	remw	x9,x26,x13
    80000e94:	02fdbeb3          	mulhu	x29,x27,x15
    80000e98:	e1d630b7          	lui	x1,0xe1d63
    80000e9c:	0381b333          	mulhu	x6,x3,x24
    80000ea0:	020df633          	remu	x12,x27,x0
    80000ea4:	01bf9fbb          	sllw	x31,x31,x27
    80000ea8:	40a589b3          	sub	x19,x11,x10
    80000eac:	03851e33          	mulh	x28,x10,x24
    80000eb0:	014eb0b3          	sltu	x1,x29,x20
    80000eb4:	02199733          	mulh	x14,x19,x1
    80000eb8:	000bb6b3          	sltu	x13,x23,x0
    80000ebc:	00e0573b          	srlw	x14,x0,x14
    80000ec0:	00867833          	and	x16,x12,x8
    80000ec4:	03ebef3b          	remw	x30,x23,x30
    80000ec8:	016d8cb3          	add	x25,x27,x22
    80000ecc:	01981fb3          	sll	x31,x16,x25
    80000ed0:	02b65ebb          	divuw	x29,x12,x11
    80000ed4:	41260d33          	sub	x26,x12,x18
    80000ed8:	009518b3          	sll	x17,x10,x9
    80000edc:	00db7533          	and	x10,x22,x13
    80000ee0:	0261d53b          	divuw	x10,x3,x6
    80000ee4:	02b93933          	mulhu	x18,x18,x11
    80000ee8:	03a33bb3          	mulhu	x23,x6,x26
    80000eec:	02337833          	remu	x16,x6,x3
    80000ef0:	a29ecf17          	auipc	x30,0xa29ec
    80000ef4:	03b3d73b          	divuw	x14,x7,x27
    80000ef8:	029b3833          	mulhu	x16,x22,x9
    80000efc:	4010009b          	addiw	x1,x0,1025
    80000f00:	01509093          	slli	x1,x1,0x15
    80000f04:	3b809723          	sh	x24,942(x1) # ffffffffe1d633ae <_start+0xffffffff61d633ae>
    80000f08:	3ae09c03          	lh	x24,942(x1)
    80000f0c:	3ae0db83          	lhu	x23,942(x1)
    80000f10:	027cdabb          	divuw	x21,x25,x7
    80000f14:	0346a633          	mulhsu	x12,x13,x20
    80000f18:	005114bb          	sllw	x9,x2,x5
    80000f1c:	407d56b3          	sra	x13,x26,x7
    80000f20:	008352b3          	srl	x5,x6,x8
    80000f24:	0386e533          	rem	x10,x13,x24
    80000f28:	031076bb          	remuw	x13,x0,x17
    80000f2c:	035b9333          	mulh	x6,x23,x21
    80000f30:	0036afb3          	slt	x31,x13,x3
    80000f34:	00233db3          	sltu	x27,x6,x2
    80000f38:	006953b3          	srl	x7,x18,x6
    80000f3c:	0393523b          	divuw	x4,x6,x25
    80000f40:	00f45733          	srl	x14,x8,x15
    80000f44:	03eef1b3          	remu	x3,x29,x30
    80000f48:	00d7adb3          	slt	x27,x15,x13
    80000f4c:	006955b3          	srl	x11,x18,x6
    80000f50:	41e80f3b          	subw	x30,x16,x30
    80000f54:	0396e533          	rem	x10,x13,x25
    80000f58:	00853c33          	sltu	x24,x10,x8
    80000f5c:	036783b3          	mul	x7,x15,x22
    80000f60:	00de09b3          	add	x19,x28,x13
    80000f64:	01709a33          	sll	x20,x1,x23
    80000f68:	023080bb          	mulw	x1,x1,x3
    80000f6c:	035e49b3          	div	x19,x28,x21
    80000f70:	03a32c33          	mulhsu	x24,x6,x26
    80000f74:	02315abb          	divuw	x21,x2,x3
    80000f78:	02234033          	div	x0,x6,x2
    80000f7c:	0268bd33          	mulhu	x26,x17,x6
    80000f80:	00e7e4b3          	or	x9,x15,x14
    80000f84:	0036bcb3          	sltu	x25,x13,x3
    80000f88:	02870233          	mul	x4,x14,x8
    80000f8c:	007747b3          	xor	x15,x14,x7
    80000f90:	030d7fbb          	remuw	x31,x26,x16
    80000f94:	029c2133          	mulhsu	x2,x24,x9
    80000f98:	0331d43b          	divuw	x8,x3,x19
    80000f9c:	035d0eb3          	mul	x29,x26,x21
    80000fa0:	00f9a233          	slt	x4,x19,x15
    80000fa4:	0128adb3          	slt	x27,x17,x18
    80000fa8:	02668a3b          	mulw	x20,x13,x6
    80000fac:	41a7833b          	subw	x6,x15,x26
    80000fb0:	01dd56b3          	srl	x13,x26,x29
    80000fb4:	024c9bb3          	mulh	x23,x25,x4
    80000fb8:	4075533b          	sraw	x6,x10,x7
    80000fbc:	019c3033          	sltu	x0,x24,x25
    80000fc0:	03a1c533          	div	x10,x3,x26
    80000fc4:	01115c3b          	srlw	x24,x2,x17
    80000fc8:	0222b033          	mulhu	x0,x5,x2
    80000fcc:	035527b3          	mulhsu	x15,x10,x21
    80000fd0:	02ff9933          	mulh	x18,x31,x15
    80000fd4:	00f634b3          	sltu	x9,x12,x15
    80000fd8:	4010009b          	addiw	x1,x0,1025
    80000fdc:	01509093          	slli	x1,x1,0x15
    80000fe0:	0dc08b23          	sb	x28,214(x1)
    80000fe4:	0d608e03          	lb	x28,214(x1)
    80000fe8:	0d60c983          	lbu	x19,214(x1)
    80000fec:	03dc00bb          	mulw	x1,x24,x29
    80000ff0:	41900533          	sub	x10,x0,x25
    80000ff4:	03d0fa3b          	remuw	x20,x1,x29
    80000ff8:	01b1bc33          	sltu	x24,x3,x27
    80000ffc:	006386bb          	addw	x13,x7,x6
    80001000:	031a5cb3          	divu	x25,x20,x17
    80001004:	40588a33          	sub	x20,x17,x5
    80001008:	03d365bb          	remw	x11,x6,x29
    8000100c:	deb33817          	auipc	x16,0xdeb33
    80001010:	41b505b3          	sub	x11,x10,x27
    80001014:	02e1c1b3          	div	x3,x3,x14
    80001018:	90773e97          	auipc	x29,0x90773
    8000101c:	028b9ab3          	mulh	x21,x23,x8
    80001020:	029323b3          	mulhsu	x7,x6,x9
    80001024:	016856bb          	srlw	x13,x16,x22
    80001028:	01a23033          	sltu	x0,x4,x26
    8000102c:	024eed3b          	remw	x26,x29,x4
    80001030:	02bc64bb          	remw	x9,x24,x11
    80001034:	411d8b33          	sub	x22,x27,x17
    80001038:	00ca4e33          	xor	x28,x20,x12
    8000103c:	03ae673b          	remw	x14,x28,x26
    80001040:	03262133          	mulhsu	x2,x12,x18
    80001044:	012bb1b3          	sltu	x3,x23,x18
    80001048:	40d98633          	sub	x12,x19,x13
    8000104c:	01bd8133          	add	x2,x27,x27
    80001050:	4010009b          	addiw	x1,x0,1025
    80001054:	01509093          	slli	x1,x1,0x15
    80001058:	3a609f23          	sh	x6,958(x1)
    8000105c:	3be09303          	lh	x6,958(x1)
    80001060:	3be0dd03          	lhu	x26,958(x1)
    80001064:	016ca8b3          	slt	x17,x25,x22
    80001068:	02da02bb          	mulw	x5,x20,x13
    8000106c:	0358fc3b          	remuw	x24,x17,x21
    80001070:	03f177b3          	remu	x15,x2,x31
    80001074:	01c5b533          	sltu	x10,x11,x28
    80001078:	019cc733          	xor	x14,x25,x25
    8000107c:	0324c0bb          	divw	x1,x9,x18
    80001080:	03f9b6b3          	mulhu	x13,x19,x31
    80001084:	03d2cb33          	div	x22,x5,x29
    80001088:	03634133          	div	x2,x6,x22
    8000108c:	00031933          	sll	x18,x6,x0
    80001090:	00dfd63b          	srlw	x12,x31,x13
    80001094:	02af6cb3          	rem	x25,x30,x10
    80001098:	4010009b          	addiw	x1,x0,1025
    8000109c:	01509093          	slli	x1,x1,0x15
    800010a0:	5240b823          	sd	x4,1328(x1)
    800010a4:	5300b203          	ld	x4,1328(x1)
    800010a8:	0255da33          	divu	x20,x11,x5
    800010ac:	01f65eb3          	srl	x29,x12,x31
    800010b0:	0129083b          	addw	x16,x18,x18
    800010b4:	01e20fb3          	add	x31,x4,x30
    800010b8:	024f6bb3          	rem	x23,x30,x4
    800010bc:	416e8d3b          	subw	x26,x29,x22
    800010c0:	024bcf3b          	divw	x30,x23,x4
    800010c4:	4059043b          	subw	x8,x18,x5
    800010c8:	4010009b          	addiw	x1,x0,1025
    800010cc:	01509093          	slli	x1,x1,0x15
    800010d0:	0fe0b023          	sd	x30,224(x1)
    800010d4:	0e00bf03          	ld	x30,224(x1)
    800010d8:	016d803b          	addw	x0,x27,x22
    800010dc:	40f10133          	sub	x2,x2,x15
    800010e0:	40df0c33          	sub	x24,x30,x13
    800010e4:	003f05b3          	add	x11,x30,x3
    800010e8:	00ae34b3          	sltu	x9,x28,x10
    800010ec:	0230d733          	divu	x14,x1,x3
    800010f0:	003254b3          	srl	x9,x4,x3
    800010f4:	410c8733          	sub	x14,x25,x16
    800010f8:	4cb95317          	auipc	x6,0x4cb95
    800010fc:	40d65a33          	sra	x20,x12,x13
    80001100:	00b517b3          	sll	x15,x10,x11
    80001104:	01bd6933          	or	x18,x26,x27
    80001108:	037394b3          	mulh	x9,x7,x23
    8000110c:	03a1e5bb          	remw	x11,x3,x26
    80001110:	02fa38b3          	mulhu	x17,x20,x15
    80001114:	27b70093          	addi	x1,x14,635 # 48a5727b <_start-0x375a8d85>
    80001118:	030952b3          	divu	x5,x18,x16
    8000111c:	02edc33b          	divw	x6,x27,x14
    80001120:	027443bb          	divw	x7,x8,x7
    80001124:	023bd8bb          	divuw	x17,x23,x3
    80001128:	00089bb3          	sll	x23,x17,x0
    8000112c:	0046d733          	srl	x14,x13,x4
    80001130:	02b52233          	mulhsu	x4,x10,x11
    80001134:	018922b3          	slt	x5,x18,x24
    80001138:	40ced6b3          	sra	x13,x29,x12
    8000113c:	01666e33          	or	x28,x12,x22
    80001140:	006dd0b3          	srl	x1,x27,x6
    80001144:	0087dbbb          	srlw	x23,x15,x8
    80001148:	00d6193b          	sllw	x18,x12,x13
    8000114c:	02c5e6bb          	remw	x13,x11,x12
    80001150:	02625c3b          	divuw	x24,x4,x6
    80001154:	029bc133          	div	x2,x23,x9
    80001158:	413add3b          	sraw	x26,x21,x19
    8000115c:	008e553b          	srlw	x10,x28,x8
    80001160:	007a5b3b          	srlw	x22,x20,x7
    80001164:	00da5b1b          	srliw	x22,x20,0xd
    80001168:	023bf933          	remu	x18,x23,x3
    8000116c:	03d0f73b          	remuw	x14,x1,x29
    80001170:	00d6a233          	slt	x4,x13,x13
    80001174:	400b8b3b          	subw	x22,x23,x0
    80001178:	023af03b          	remuw	x0,x21,x3
    8000117c:	009dd2bb          	srlw	x5,x27,x9
    80001180:	03702a33          	mulhsu	x20,x0,x23
    80001184:	01f05f93          	srli	x31,x0,0x1f
    80001188:	406c0333          	sub	x6,x24,x6
    8000118c:	0389ff3b          	remuw	x30,x19,x24
    80001190:	dad5069b          	addiw	x13,x10,-595 # ffffffffcb3452e1 <_start+0xffffffff4b3452e1>
    80001194:	00060e3b          	addw	x28,x12,x0
    80001198:	038f9f33          	mulh	x30,x31,x24
    8000119c:	00255333          	srl	x6,x10,x2
    800011a0:	02ed88b3          	mul	x17,x27,x14
    800011a4:	03fc0a3b          	mulw	x20,x24,x31
    800011a8:	035630b3          	mulhu	x1,x12,x21
    800011ac:	03b5d93b          	divuw	x18,x11,x27
    800011b0:	02dc7833          	remu	x16,x24,x13
    800011b4:	41a4dcb3          	sra	x25,x9,x26
    800011b8:	016de833          	or	x16,x27,x22
    800011bc:	40085d33          	sra	x26,x16,x0
    800011c0:	4142d6b3          	sra	x13,x5,x20
    800011c4:	d9a88697          	auipc	x13,0xd9a88
    800011c8:	027a5d33          	divu	x26,x20,x7
    800011cc:	00d2199b          	slliw	x19,x4,0xd
    800011d0:	00f546b3          	xor	x13,x10,x15
    800011d4:	02a95a33          	divu	x20,x18,x10
    800011d8:	03f40033          	mul	x0,x8,x31
    800011dc:	01c9c033          	xor	x0,x19,x28
    800011e0:	033a9433          	mulh	x8,x21,x19
    800011e4:	032cca3b          	divw	x20,x25,x18
    800011e8:	03d58d33          	mul	x26,x11,x29
    800011ec:	03fdcd3b          	divw	x26,x27,x31
    800011f0:	023adfbb          	divuw	x31,x21,x3
    800011f4:	40525e33          	sra	x28,x4,x5
    800011f8:	035dd933          	divu	x18,x27,x21
    800011fc:	01ae6b33          	or	x22,x28,x26
    80001200:	01601b3b          	sllw	x22,x0,x22
    80001204:	1e2e7717          	auipc	x14,0x1e2e7
    80001208:	02769633          	mulh	x12,x13,x7
    8000120c:	014861b3          	or	x3,x16,x20
    80001210:	41a0d4bb          	sraw	x9,x1,x26
    80001214:	00a93733          	sltu	x14,x18,x10
    80001218:	031787b3          	mul	x15,x15,x17
    8000121c:	0244ba33          	mulhu	x20,x9,x4
    80001220:	0386c6bb          	divw	x13,x13,x24
    80001224:	0262f9b3          	remu	x19,x5,x6
    80001228:	005b01b3          	add	x3,x22,x5
    8000122c:	011c1fb3          	sll	x31,x24,x17
    80001230:	419a5333          	sra	x6,x20,x25
    80001234:	038f24b3          	mulhsu	x9,x30,x24
    80001238:	0284d8bb          	divuw	x17,x9,x8
    8000123c:	00e14833          	xor	x16,x2,x14
    80001240:	406b5c33          	sra	x24,x22,x6
    80001244:	02c08f3b          	mulw	x30,x1,x12
    80001248:	00fd8d33          	add	x26,x27,x15
    8000124c:	033d7abb          	remuw	x21,x26,x19
    80001250:	03258eb3          	mul	x29,x11,x18
    80001254:	02030bb3          	mul	x23,x6,x0
    80001258:	4038d4bb          	sraw	x9,x17,x3
    8000125c:	00998fbb          	addw	x31,x19,x9
    80001260:	01d547b3          	xor	x15,x10,x29
    80001264:	03badb3b          	divuw	x22,x21,x27
    80001268:	005fed33          	or	x26,x31,x5
    8000126c:	0219feb3          	remu	x29,x19,x1
    80001270:	026983b3          	mul	x7,x19,x6
    80001274:	40b985b3          	sub	x11,x19,x11
    80001278:	000aac33          	slt	x24,x21,x0
    8000127c:	03d6be33          	mulhu	x28,x13,x29
    80001280:	03bd8a3b          	mulw	x20,x27,x27
    80001284:	00c18f3b          	addw	x30,x3,x12
    80001288:	0265703b          	remuw	x0,x10,x6
    8000128c:	41b383bb          	subw	x7,x7,x27
    80001290:	00ac0533          	add	x10,x24,x10
    80001294:	03d77abb          	remuw	x21,x14,x29
    80001298:	00636633          	or	x12,x6,x6
    8000129c:	02b042b3          	div	x5,x0,x11
    800012a0:	0329b4b3          	mulhu	x9,x19,x18
    800012a4:	031a4733          	div	x14,x20,x17
    800012a8:	02ca8533          	mul	x10,x21,x12
    800012ac:	038f0cbb          	mulw	x25,x30,x24
    800012b0:	006900bb          	addw	x1,x18,x6
    800012b4:	413684b3          	sub	x9,x13,x19
    800012b8:	01bc0e33          	add	x28,x24,x27
    800012bc:	01fb3233          	sltu	x4,x22,x31
    800012c0:	027140b3          	div	x1,x2,x7
    800012c4:	03c60e33          	mul	x28,x12,x28
    800012c8:	4010009b          	addiw	x1,x0,1025
    800012cc:	01509093          	slli	x1,x1,0x15
    800012d0:	94f0a823          	sw	x15,-1712(x1)
    800012d4:	9500a783          	lw	x15,-1712(x1)
    800012d8:	9500e703          	lwu	x14,-1712(x1)
    800012dc:	0228ea3b          	remw	x20,x17,x2
    800012e0:	02c7f6b3          	remu	x13,x15,x12
    800012e4:	0251c333          	div	x6,x3,x5
    800012e8:	031cc333          	div	x6,x25,x17
    800012ec:	03ce55bb          	divuw	x11,x28,x28
    800012f0:	0275b2b3          	mulhu	x5,x11,x7
    800012f4:	01b8023b          	addw	x4,x16,x27
    800012f8:	00d7f333          	and	x6,x15,x13
    800012fc:	029351bb          	divuw	x3,x6,x9
    80001300:	0254683b          	remw	x16,x8,x5
    80001304:	028767bb          	remw	x15,x14,x8
    80001308:	03730fb3          	mul	x31,x6,x23
    8000130c:	008d003b          	addw	x0,x26,x8
    80001310:	02cbfc33          	remu	x24,x23,x12
    80001314:	01a1afb3          	slt	x31,x3,x26
    80001318:	41460a33          	sub	x20,x12,x20
    8000131c:	01925fb3          	srl	x31,x4,x25
    80001320:	021725b3          	mulhsu	x11,x14,x1
    80001324:	032e76b3          	remu	x13,x28,x18
    80001328:	011b1033          	sll	x0,x22,x17
    8000132c:	4010009b          	addiw	x1,x0,1025
    80001330:	01509093          	slli	x1,x1,0x15
    80001334:	99d080a3          	sb	x29,-1663(x1)
    80001338:	98108e83          	lb	x29,-1663(x1)
    8000133c:	9810c483          	lbu	x9,-1663(x1)
    80001340:	013841b3          	xor	x3,x16,x19
    80001344:	022762bb          	remw	x5,x14,x2
    80001348:	01f0deb3          	srl	x29,x1,x31
    8000134c:	0367f0bb          	remuw	x1,x15,x22
    80001350:	01960d3b          	addw	x26,x12,x25
    80001354:	0099b6b3          	sltu	x13,x19,x9
    80001358:	4010009b          	addiw	x1,x0,1025
    8000135c:	01509093          	slli	x1,x1,0x15
    80001360:	ff00b423          	sd	x16,-24(x1)
    80001364:	fe80b803          	ld	x16,-24(x1)
    80001368:	01c58133          	add	x2,x11,x28
    8000136c:	033ae73b          	remw	x14,x21,x19
    80001370:	02ef1233          	mulh	x4,x30,x14
    80001374:	41098bb3          	sub	x23,x19,x16
    80001378:	0188d933          	srl	x18,x17,x24
    8000137c:	02cd7233          	remu	x4,x26,x12
    80001380:	0378e6b3          	rem	x13,x17,x23
    80001384:	40dd5e3b          	sraw	x28,x26,x13
    80001388:	02d37abb          	remuw	x21,x6,x13
    8000138c:	00209333          	sll	x6,x1,x2
    80001390:	026a2db3          	mulhsu	x27,x20,x6
    80001394:	003e9fb3          	sll	x31,x29,x3
    80001398:	03ebdf33          	divu	x30,x23,x30
    8000139c:	00fe21b3          	slt	x3,x28,x15
    800013a0:	00792133          	slt	x2,x18,x7
    800013a4:	0184db3b          	srlw	x22,x9,x24
    800013a8:	0027553b          	srlw	x10,x14,x2
    800013ac:	0353eebb          	remw	x29,x7,x21
    800013b0:	00c179b3          	and	x19,x2,x12
    800013b4:	01d2b7b3          	sltu	x15,x5,x29
    800013b8:	03358a33          	mul	x20,x11,x19
    800013bc:	017706b3          	add	x13,x14,x23
    800013c0:	41375ab3          	sra	x21,x14,x19
    800013c4:	030c11b3          	mulh	x3,x24,x16
    800013c8:	0001b2b3          	sltu	x5,x3,x0
    800013cc:	01242033          	slt	x0,x8,x18
    800013d0:	03f13fb3          	mulhu	x31,x2,x31
    800013d4:	027b77bb          	remuw	x15,x22,x7
    800013d8:	01e8f4b3          	and	x9,x17,x30
    800013dc:	00da9633          	sll	x12,x21,x13
    800013e0:	03b70533          	mul	x10,x14,x27
    800013e4:	41d98b3b          	subw	x22,x19,x29
    800013e8:	00dd1e3b          	sllw	x28,x26,x13
    800013ec:	003f31b3          	sltu	x3,x30,x3
    800013f0:	0200c5b3          	div	x11,x1,x0
    800013f4:	0111023b          	addw	x4,x2,x17
    800013f8:	026cf9b3          	remu	x19,x25,x6
    800013fc:	02f68abb          	mulw	x21,x13,x15
    80001400:	41ca5c3b          	sraw	x24,x20,x28
    80001404:	03c9633b          	remw	x6,x18,x28
    80001408:	0157f9b3          	and	x19,x15,x21
    8000140c:	01fbd233          	srl	x4,x23,x31
    80001410:	0d983413          	sltiu	x8,x16,217
    80001414:	036557bb          	divuw	x15,x10,x22
    80001418:	00c127b3          	slt	x15,x2,x12
    8000141c:	0395ebbb          	remw	x23,x11,x25
    80001420:	413c0e3b          	subw	x28,x24,x19
    80001424:	031d1eb3          	mulh	x29,x26,x17
    80001428:	01f764b3          	or	x9,x14,x31
    8000142c:	41e58eb3          	sub	x29,x11,x30
    80001430:	002625b3          	slt	x11,x12,x2
    80001434:	0359cf3b          	divw	x30,x19,x21
    80001438:	0199d2b3          	srl	x5,x19,x25
    8000143c:	03bb4a33          	div	x20,x22,x27
    80001440:	0374e0b3          	rem	x1,x9,x23
    80001444:	01b9c333          	xor	x6,x19,x27
    80001448:	023f6a3b          	remw	x20,x30,x3
    8000144c:	034d7ab3          	remu	x21,x26,x20
    80001450:	008a4133          	xor	x2,x20,x8
    80001454:	03473833          	mulhu	x16,x14,x20
    80001458:	03c466bb          	remw	x13,x8,x28
    8000145c:	014c4833          	xor	x16,x24,x20
    80001460:	02caddb3          	divu	x27,x21,x12
    80001464:	0344ddbb          	divuw	x27,x9,x20
    80001468:	013f2433          	slt	x8,x30,x19
    8000146c:	4184de3b          	sraw	x28,x9,x24
    80001470:	03aef7bb          	remuw	x15,x29,x26
    80001474:	02112733          	mulhsu	x14,x2,x1
    80001478:	00e714bb          	sllw	x9,x14,x14
    8000147c:	0034d5bb          	srlw	x11,x9,x3
    80001480:	0277b033          	mulhu	x0,x15,x7
    80001484:	40d487bb          	subw	x15,x9,x13
    80001488:	03729d33          	mulh	x26,x5,x23
    8000148c:	0143dc33          	srl	x24,x7,x20
    80001490:	40298933          	sub	x18,x19,x2
    80001494:	40a95b33          	sra	x22,x18,x10
    80001498:	0257c63b          	divw	x12,x15,x5
    8000149c:	00be8fbb          	addw	x31,x29,x11
    800014a0:	e9f48f13          	addi	x30,x9,-353 # ffffffffe46f9e9f <_start+0xffffffff646f9e9f>
    800014a4:	0302b1b3          	mulhu	x3,x5,x16
    800014a8:	0193ddb3          	srl	x27,x7,x25
    800014ac:	a295cd17          	auipc	x26,0xa295c
    800014b0:	0211f9b3          	remu	x19,x3,x1
    800014b4:	0106e133          	or	x2,x13,x16
    800014b8:	03265733          	divu	x14,x12,x18
    800014bc:	03af5ebb          	divuw	x29,x30,x26
    800014c0:	0376e033          	rem	x0,x13,x23
    800014c4:	03b156bb          	divuw	x13,x2,x27
    800014c8:	012456b3          	srl	x13,x8,x18
    800014cc:	40818ab3          	sub	x21,x3,x8
    800014d0:	023393b3          	mulh	x7,x7,x3
    800014d4:	01c099bb          	sllw	x19,x1,x28
    800014d8:	02a74033          	div	x0,x14,x10
    800014dc:	5cc2b917          	auipc	x18,0x5cc2b
    800014e0:	026a4cb3          	div	x25,x20,x6
    800014e4:	029f24b3          	mulhsu	x9,x30,x9
    800014e8:	0503e693          	ori	x13,x7,80
    800014ec:	41175fbb          	sraw	x31,x14,x17
    800014f0:	01c9debb          	srlw	x29,x19,x28
    800014f4:	03a32d33          	mulhsu	x26,x6,x26
    800014f8:	0017ebb3          	or	x23,x15,x1
    800014fc:	00cb0d33          	add	x26,x22,x12
    80001500:	01f1533b          	srlw	x6,x2,x31
    80001504:	0188bc33          	sltu	x24,x17,x24
    80001508:	0240d433          	divu	x8,x1,x4
    8000150c:	01bedbb3          	srl	x23,x29,x27
    80001510:	41dc0b33          	sub	x22,x24,x29
    80001514:	00b3983b          	sllw	x16,x7,x11
    80001518:	02885cb3          	divu	x25,x16,x8
    8000151c:	013dc9b3          	xor	x19,x27,x19
    80001520:	01268fb3          	add	x31,x13,x18
    80001524:	4010009b          	addiw	x1,x0,1025
    80001528:	01509093          	slli	x1,x1,0x15
    8000152c:	5060a023          	sw	x6,1280(x1)
    80001530:	5000a303          	lw	x6,1280(x1)
    80001534:	5000eb83          	lwu	x23,1280(x1)
    80001538:	038b8c3b          	mulw	x24,x23,x24
    8000153c:	01a301b3          	add	x3,x6,x26
    80001540:	015ad733          	srl	x14,x21,x21
    80001544:	005afa33          	and	x20,x21,x5
    80001548:	029958bb          	divuw	x17,x18,x9
    8000154c:	00e3173b          	sllw	x14,x6,x14
    80001550:	02895433          	divu	x8,x18,x8
    80001554:	015b87b3          	add	x15,x23,x21
    80001558:	0311fe33          	remu	x28,x3,x17
    8000155c:	405a873b          	subw	x14,x21,x5
    80001560:	03a98eb3          	mul	x29,x19,x26
    80001564:	0272a5b3          	mulhsu	x11,x5,x7
    80001568:	00a932b3          	sltu	x5,x18,x10
    8000156c:	0118abb3          	slt	x23,x17,x17
    80001570:	012336b3          	sltu	x13,x6,x18
    80001574:	00435eb3          	srl	x29,x6,x4
    80001578:	01760ebb          	addw	x29,x12,x23
    8000157c:	01cbf033          	and	x0,x23,x28
    80001580:	00059ab3          	sll	x21,x11,x0
    80001584:	01ce00bb          	addw	x1,x28,x28
    80001588:	0222ef33          	rem	x30,x5,x2
    8000158c:	01e428b3          	slt	x17,x8,x30
    80001590:	033d5b33          	divu	x22,x26,x19
    80001594:	4059da3b          	sraw	x20,x19,x5
    80001598:	01cdc7b3          	xor	x15,x27,x28
    8000159c:	4095d0bb          	sraw	x1,x11,x9
    800015a0:	03556ab3          	rem	x21,x10,x21
    800015a4:	02650cb3          	mul	x25,x10,x6
    800015a8:	4154d33b          	sraw	x6,x9,x21
    800015ac:	00b899b3          	sll	x19,x17,x11
    800015b0:	01109f3b          	sllw	x30,x1,x17
    800015b4:	0379b3b3          	mulhu	x7,x19,x23
    800015b8:	0059193b          	sllw	x18,x18,x5
    800015bc:	00f09f33          	sll	x30,x1,x15
    800015c0:	c92d8a93          	addi	x21,x27,-878 # ffffffffee17ac92 <_start+0xffffffff6e17ac92>
    800015c4:	41330333          	sub	x6,x6,x19
    800015c8:	030d843b          	mulw	x8,x27,x16
    800015cc:	01e9dd3b          	srlw	x26,x19,x30
    800015d0:	032ef5b3          	remu	x11,x29,x18
    800015d4:	030435b3          	mulhu	x11,x8,x16
    800015d8:	0003ea33          	or	x20,x7,x0
    800015dc:	03113a33          	mulhu	x20,x2,x17
    800015e0:	010553bb          	srlw	x7,x10,x16
    800015e4:	0225ca33          	div	x20,x11,x2
    800015e8:	4010009b          	addiw	x1,x0,1025
    800015ec:	01509093          	slli	x1,x1,0x15
    800015f0:	98609b23          	sh	x6,-1642(x1)
    800015f4:	99609303          	lh	x6,-1642(x1)
    800015f8:	9960df83          	lhu	x31,-1642(x1)
    800015fc:	016649b3          	xor	x19,x12,x22
    80001600:	01d507bb          	addw	x15,x10,x29
    80001604:	03fde1bb          	remw	x3,x27,x31
    80001608:	02a5c233          	div	x4,x11,x10
    8000160c:	01bb8d3b          	addw	x26,x23,x27
    80001610:	41ad0cbb          	subw	x25,x26,x26
    80001614:	02028ebb          	mulw	x29,x5,x0
    80001618:	035a1133          	mulh	x2,x20,x21
    8000161c:	02325933          	divu	x18,x4,x3
    80001620:	02f8e5bb          	remw	x11,x17,x15
    80001624:	03313633          	mulhu	x12,x2,x19
    80001628:	0080c133          	xor	x2,x1,x8
    8000162c:	004b543b          	srlw	x8,x22,x4
    80001630:	03d702b3          	mul	x5,x14,x29
    80001634:	0287cbb3          	div	x23,x15,x8
    80001638:	02dc81b3          	mul	x3,x25,x13
    8000163c:	022c3433          	mulhu	x8,x24,x2
    80001640:	4010009b          	addiw	x1,x0,1025
    80001644:	01509093          	slli	x1,x1,0x15
    80001648:	8f709e23          	sh	x23,-1796(x1)
    8000164c:	8fc09b83          	lh	x23,-1796(x1)
    80001650:	8fc0d403          	lhu	x8,-1796(x1)
    80001654:	00a74333          	xor	x6,x14,x10
    80001658:	40cd023b          	subw	x4,x26,x12
    8000165c:	03698d33          	mul	x26,x19,x22
    80001660:	00fb9cb3          	sll	x25,x23,x15
    80001664:	012cd43b          	srlw	x8,x25,x18
    80001668:	035a613b          	remw	x2,x20,x21
    8000166c:	008f9633          	sll	x12,x31,x8
    80001670:	0376f533          	remu	x10,x13,x23
    80001674:	01e5a433          	slt	x8,x11,x30
    80001678:	0220e4bb          	remw	x9,x1,x2
    8000167c:	40dc0633          	sub	x12,x24,x13
    80001680:	4010009b          	addiw	x1,x0,1025
    80001684:	01509093          	slli	x1,x1,0x15
    80001688:	0470b823          	sd	x7,80(x1)
    8000168c:	0500b383          	ld	x7,80(x1)
    80001690:	41ea51bb          	sraw	x3,x20,x30
    80001694:	01db7433          	and	x8,x22,x29
    80001698:	00504633          	xor	x12,x0,x5
    8000169c:	40fa83bb          	subw	x7,x21,x15
    800016a0:	02e62cb3          	mulhsu	x25,x12,x14
    800016a4:	03c08fb3          	mul	x31,x1,x28
    800016a8:	4010009b          	addiw	x1,x0,1025
    800016ac:	01509093          	slli	x1,x1,0x15
    800016b0:	1ee09123          	sh	x14,482(x1)
    800016b4:	1e209703          	lh	x14,482(x1)
    800016b8:	1e20d503          	lhu	x10,482(x1)
    800016bc:	019ccfb3          	xor	x31,x25,x25
    800016c0:	41f30233          	sub	x4,x6,x31
    800016c4:	014cc6b3          	xor	x13,x25,x20
    800016c8:	026a4f3b          	divw	x30,x20,x6
    800016cc:	002188b3          	add	x17,x3,x2
    800016d0:	00bb0f33          	add	x30,x22,x11
    800016d4:	03c89533          	mulh	x10,x17,x28
    800016d8:	407588bb          	subw	x17,x11,x7
    800016dc:	01ee48b3          	xor	x17,x28,x30
    800016e0:	4010009b          	addiw	x1,x0,1025
    800016e4:	01509093          	slli	x1,x1,0x15
    800016e8:	32c09c23          	sh	x12,824(x1)
    800016ec:	33809603          	lh	x12,824(x1)
    800016f0:	3380d783          	lhu	x15,824(x1)
    800016f4:	40b800b3          	sub	x1,x16,x11
    800016f8:	406b583b          	sraw	x16,x22,x6
    800016fc:	015cba33          	sltu	x20,x25,x21
    80001700:	03366a3b          	remw	x20,x12,x19
    80001704:	41688133          	sub	x2,x17,x22
    80001708:	03898f3b          	mulw	x30,x19,x24
    8000170c:	02b8d4bb          	divuw	x9,x17,x11
    80001710:	0360c833          	div	x16,x1,x22
    80001714:	40ea5ab3          	sra	x21,x20,x14
    80001718:	014530b3          	sltu	x1,x10,x20
    8000171c:	02fb4833          	div	x16,x22,x15
    80001720:	035a7c3b          	remuw	x24,x20,x21
    80001724:	01131733          	sll	x14,x6,x17
    80001728:	03f4eebb          	remw	x29,x9,x31
    8000172c:	007536b3          	sltu	x13,x10,x7
    80001730:	020aa0b3          	mulhsu	x1,x21,x0
    80001734:	03878333          	mul	x6,x15,x24
    80001738:	411b0033          	sub	x0,x22,x17
    8000173c:	02fc1033          	mulh	x0,x24,x15
    80001740:	001c1433          	sll	x8,x24,x1
    80001744:	0132d23b          	srlw	x4,x5,x19
    80001748:	027dd43b          	divuw	x8,x27,x7
    8000174c:	00c665b3          	or	x11,x12,x12
    80001750:	0317f2bb          	remuw	x5,x15,x17
    80001754:	40d288bb          	subw	x17,x5,x13
    80001758:	000b2233          	slt	x4,x22,x0
    8000175c:	0216e5b3          	rem	x11,x13,x1
    80001760:	03974b3b          	divw	x22,x14,x25
    80001764:	404fd533          	sra	x10,x31,x4
    80001768:	410d5f33          	sra	x30,x26,x16
    8000176c:	4010009b          	addiw	x1,x0,1025
    80001770:	01509093          	slli	x1,x1,0x15
    80001774:	9500b423          	sd	x16,-1720(x1)
    80001778:	9480b803          	ld	x16,-1720(x1)
    8000177c:	01eb4133          	xor	x2,x22,x30
    80001780:	02c3dfb3          	divu	x31,x7,x12
    80001784:	015b183b          	sllw	x16,x22,x21
    80001788:	005b73b3          	and	x7,x22,x5
    8000178c:	009a133b          	sllw	x6,x20,x9
    80001790:	00ab1833          	sll	x16,x22,x10
    80001794:	005f6633          	or	x12,x30,x5
    80001798:	01b53e33          	sltu	x28,x10,x27
    8000179c:	03f5aeb3          	mulhsu	x29,x11,x31
    800017a0:	02d10bb3          	mul	x23,x2,x13
    800017a4:	03fc7a33          	remu	x20,x24,x31
    800017a8:	03411cb3          	mulh	x25,x2,x20
    800017ac:	01d53533          	sltu	x10,x10,x29
    800017b0:	03970b3b          	mulw	x22,x14,x25
    800017b4:	03933e33          	mulhu	x28,x6,x25
    800017b8:	018a5e33          	srl	x28,x20,x24
    800017bc:	03eff43b          	remuw	x8,x31,x30
    800017c0:	0275c6bb          	divw	x13,x11,x7
    800017c4:	41c5d433          	sra	x8,x11,x28
    800017c8:	02bf2d33          	mulhsu	x26,x30,x11
    800017cc:	026918b3          	mulh	x17,x18,x6
    800017d0:	143ddd97          	auipc	x27,0x143dd
    800017d4:	03ef0133          	mul	x2,x30,x30
    800017d8:	011ddf33          	srl	x30,x27,x17
    800017dc:	00c742b3          	xor	x5,x14,x12
    800017e0:	0395da33          	divu	x20,x11,x25
    800017e4:	037092b3          	mulh	x5,x1,x23
    800017e8:	9ecf6c93          	ori	x25,x30,-1556
    800017ec:	0333ebb3          	rem	x23,x7,x19
    800017f0:	03efed33          	rem	x26,x31,x30
    800017f4:	014b07bb          	addw	x15,x22,x20
    800017f8:	035c3d33          	mulhu	x26,x24,x21
    800017fc:	03c4ed3b          	remw	x26,x9,x28
    80001800:	01c0963b          	sllw	x12,x1,x28
    80001804:	00090033          	add	x0,x18,x0
    80001808:	016baab3          	slt	x21,x23,x22
    8000180c:	0280c8bb          	divw	x17,x1,x8
    80001810:	03127abb          	remuw	x21,x4,x17
    80001814:	03b057bb          	divuw	x15,x0,x27
    80001818:	01dc5cbb          	srlw	x25,x24,x29
    8000181c:	00780e33          	add	x28,x16,x7
    80001820:	038c8ab3          	mul	x21,x25,x24
    80001824:	03a5c033          	div	x0,x11,x26
    80001828:	40a1d133          	sra	x2,x3,x10
    8000182c:	03e95ebb          	divuw	x29,x18,x30
    80001830:	037349bb          	divw	x19,x6,x23
    80001834:	411d8eb3          	sub	x29,x27,x17
    80001838:	00778bb3          	add	x23,x15,x7
    8000183c:	021579bb          	remuw	x19,x10,x1
    80001840:	41a5deb3          	sra	x29,x11,x26
    80001844:	034b68bb          	remw	x17,x22,x20
    80001848:	0383cd33          	div	x26,x7,x24
    8000184c:	035ff6b3          	remu	x13,x31,x21
    80001850:	03efa7b3          	mulhsu	x15,x31,x30
    80001854:	0148f4b3          	and	x9,x17,x20
    80001858:	03853c33          	mulhu	x24,x10,x24
    8000185c:	013bbeb3          	sltu	x29,x23,x19
    80001860:	01ed523b          	srlw	x4,x26,x30
    80001864:	01c90d33          	add	x26,x18,x28
    80001868:	036a8c33          	mul	x24,x21,x22
    8000186c:	409ed9b3          	sra	x19,x29,x9
    80001870:	008e92b3          	sll	x5,x29,x8
    80001874:	002f0bbb          	addw	x23,x30,x2
    80001878:	01160d3b          	addw	x26,x12,x17
    8000187c:	a858ba37          	lui	x20,0xa858b
    80001880:	0382d633          	divu	x12,x5,x24
    80001884:	0287f933          	remu	x18,x15,x8
    80001888:	41a656b3          	sra	x13,x12,x26
    8000188c:	0108d0bb          	srlw	x1,x17,x16
    80001890:	4010009b          	addiw	x1,x0,1025
    80001894:	01509093          	slli	x1,x1,0x15
    80001898:	0d20b823          	sd	x18,208(x1)
    8000189c:	0d00b903          	ld	x18,208(x1)
    800018a0:	03a14bbb          	divw	x23,x2,x26
    800018a4:	40900633          	sub	x12,x0,x9
    800018a8:	034d6cbb          	remw	x25,x26,x20
    800018ac:	025a57b3          	divu	x15,x20,x5
    800018b0:	005f87bb          	addw	x15,x31,x5
    800018b4:	031a9733          	mulh	x14,x21,x17
    800018b8:	41a0533b          	sraw	x6,x0,x26
    800018bc:	0231d93b          	divuw	x18,x3,x3
    800018c0:	002b67b3          	or	x15,x22,x2
    800018c4:	005a2733          	slt	x14,x20,x5
    800018c8:	018fea33          	or	x20,x31,x24
    800018cc:	022b0ab3          	mul	x21,x22,x2
    800018d0:	01a44ab3          	xor	x21,x8,x26
    800018d4:	4165dd3b          	sraw	x26,x11,x22
    800018d8:	00e02b33          	slt	x22,x0,x14
    800018dc:	01a5a2b3          	slt	x5,x11,x26
    800018e0:	020349bb          	divw	x19,x6,x0
    800018e4:	403480b3          	sub	x1,x9,x3
    800018e8:	40248dbb          	subw	x27,x9,x2
    800018ec:	0246a0b3          	mulhsu	x1,x13,x4
    800018f0:	0396403b          	divw	x0,x12,x25
    800018f4:	03d05f3b          	divuw	x30,x0,x29
    800018f8:	00be30b3          	sltu	x1,x28,x11
    800018fc:	001ec633          	xor	x12,x29,x1
    80001900:	02bcf3bb          	remuw	x7,x25,x11
    80001904:	02b98dbb          	mulw	x27,x19,x11
    80001908:	005d33b3          	sltu	x7,x26,x5
    8000190c:	01890f33          	add	x30,x18,x24
    80001910:	03eb5fb3          	divu	x31,x22,x30
    80001914:	00eba0b3          	slt	x1,x23,x14
    80001918:	011dbdb3          	sltu	x27,x27,x17
    8000191c:	01f407b3          	add	x15,x8,x31
    80001920:	023fafb3          	mulhsu	x31,x31,x3
    80001924:	02608133          	mul	x2,x1,x6
    80001928:	01b4c7b3          	xor	x15,x9,x27
    8000192c:	0306d4bb          	divuw	x9,x13,x16
    80001930:	4098d93b          	sraw	x18,x17,x9
    80001934:	02f6ad33          	mulhsu	x26,x13,x15
    80001938:	0378c43b          	divw	x8,x17,x23
    8000193c:	0240d73b          	divuw	x14,x1,x4
    80001940:	0360a6b3          	mulhsu	x13,x1,x22
    80001944:	410ddbbb          	sraw	x23,x27,x16
    80001948:	00091ab3          	sll	x21,x18,x0
    8000194c:	b5527c37          	lui	x24,0xb5527
    80001950:	029b8f33          	mul	x30,x23,x9
    80001954:	008317bb          	sllw	x15,x6,x8
    80001958:	00e83eb3          	sltu	x29,x16,x14
    8000195c:	036714b3          	mulh	x9,x14,x22
    80001960:	41f38f3b          	subw	x30,x7,x31
    80001964:	01b11d3b          	sllw	x26,x2,x27
    80001968:	0146ceb3          	xor	x29,x13,x20
    8000196c:	004d5e93          	srli	x29,x26,0x4
    80001970:	004ff733          	and	x14,x31,x4
    80001974:	034020b3          	mulhsu	x1,x0,x20
    80001978:	404f06b3          	sub	x13,x30,x4
    8000197c:	0219d9bb          	divuw	x19,x19,x1
    80001980:	0367d5b3          	divu	x11,x15,x22
    80001984:	418a0e33          	sub	x28,x20,x24
    80001988:	024590b3          	mulh	x1,x11,x4
    8000198c:	02e1e7b3          	rem	x15,x3,x14
    80001990:	4010009b          	addiw	x1,x0,1025
    80001994:	01509093          	slli	x1,x1,0x15
    80001998:	d6209223          	sh	x2,-668(x1)
    8000199c:	d6409103          	lh	x2,-668(x1)
    800019a0:	d640de03          	lhu	x28,-668(x1)
    800019a4:	01432f33          	slt	x30,x6,x20
    800019a8:	02f7de33          	divu	x28,x15,x15
    800019ac:	039f0c3b          	mulw	x24,x30,x25
    800019b0:	02087933          	remu	x18,x16,x0
    800019b4:	00502eb3          	slt	x29,x0,x5
    800019b8:	01704fb3          	xor	x31,x0,x23
    800019bc:	40c888b3          	sub	x17,x17,x12
    800019c0:	0258683b          	remw	x16,x16,x5
    800019c4:	010b123b          	sllw	x4,x22,x16
    800019c8:	41ad5e3b          	sraw	x28,x26,x26
    800019cc:	03a4d33b          	divuw	x6,x9,x26
    800019d0:	99bc1cb7          	lui	x25,0x99bc1
    800019d4:	02107a33          	remu	x20,x0,x1
    800019d8:	e9e27613          	andi	x12,x4,-354
    800019dc:	411b05bb          	subw	x11,x22,x17
    800019e0:	03b4ffb3          	remu	x31,x9,x27
    800019e4:	4010009b          	addiw	x1,x0,1025
    800019e8:	01509093          	slli	x1,x1,0x15
    800019ec:	74b0a623          	sw	x11,1868(x1)
    800019f0:	74c0a583          	lw	x11,1868(x1)
    800019f4:	74c0ea83          	lwu	x21,1868(x1)
    800019f8:	00d88033          	add	x0,x17,x13
    800019fc:	03eca5b3          	mulhsu	x11,x25,x30
    80001a00:	41eb873b          	subw	x14,x23,x30
    80001a04:	03b92db3          	mulhsu	x27,x18,x27
    80001a08:	02018333          	mul	x6,x3,x0
    80001a0c:	02361cb3          	mulh	x25,x12,x3
    80001a10:	03fa70bb          	remuw	x1,x20,x31
    80001a14:	0221aab3          	mulhsu	x21,x3,x2
    80001a18:	0128dfbb          	srlw	x31,x17,x18
    80001a1c:	00628833          	add	x16,x5,x6
    80001a20:	02a77a3b          	remuw	x20,x14,x10
    80001a24:	023b43bb          	divw	x7,x22,x3
    80001a28:	038373bb          	remuw	x7,x6,x24
    80001a2c:	001f8a3b          	addw	x20,x31,x1
    80001a30:	00a79ab3          	sll	x21,x15,x10
    80001a34:	0268b933          	mulhu	x18,x17,x6
    80001a38:	0302cb3b          	divw	x22,x5,x16
    80001a3c:	025b3db3          	mulhu	x27,x22,x5
    80001a40:	2564d7b7          	lui	x15,0x2564d
    80001a44:	03b863b3          	rem	x7,x16,x27
    80001a48:	02dc633b          	remw	x6,x24,x13
    80001a4c:	404e84bb          	subw	x9,x29,x4
    80001a50:	027583bb          	mulw	x7,x11,x7
    80001a54:	00050a3b          	addw	x20,x10,x0
    80001a58:	0046513b          	srlw	x2,x12,x4
    80001a5c:	03dee73b          	remw	x14,x29,x29
    80001a60:	6de90837          	lui	x16,0x6de90
    80001a64:	0062963b          	sllw	x12,x5,x6
    80001a68:	020986bb          	mulw	x13,x19,x0
    80001a6c:	0380d73b          	divuw	x14,x1,x24
    80001a70:	01c26433          	or	x8,x4,x28
    80001a74:	0258c533          	div	x10,x17,x5
    80001a78:	007a5933          	srl	x18,x20,x7
    80001a7c:	00449d3b          	sllw	x26,x9,x4
    80001a80:	01a91db3          	sll	x27,x18,x26
    80001a84:	411c8cb3          	sub	x25,x25,x17
    80001a88:	39d01037          	lui	x0,0x39d01
    80001a8c:	00110933          	add	x18,x2,x1
    80001a90:	026fc4b3          	div	x9,x31,x6
    80001a94:	40f68d33          	sub	x26,x13,x15
    80001a98:	4010009b          	addiw	x1,x0,1025
    80001a9c:	01509093          	slli	x1,x1,0x15
    80001aa0:	ee608c23          	sb	x6,-264(x1)
    80001aa4:	ef808303          	lb	x6,-264(x1)
    80001aa8:	ef80c683          	lbu	x13,-264(x1)
    80001aac:	416adbbb          	sraw	x23,x21,x22
    80001ab0:	4010009b          	addiw	x1,x0,1025
    80001ab4:	01509093          	slli	x1,x1,0x15
    80001ab8:	4380b023          	sd	x24,1056(x1)
    80001abc:	4200bc03          	ld	x24,1056(x1)
    80001ac0:	034d3f33          	mulhu	x30,x26,x20
    80001ac4:	4010009b          	addiw	x1,x0,1025
    80001ac8:	01509093          	slli	x1,x1,0x15
    80001acc:	4cd09f23          	sh	x13,1246(x1)
    80001ad0:	4de09683          	lh	x13,1246(x1)
    80001ad4:	4de0dc83          	lhu	x25,1246(x1)
    80001ad8:	0028ffb3          	and	x31,x17,x2
    80001adc:	414d00bb          	subw	x1,x26,x20
    80001ae0:	039a57b3          	divu	x15,x20,x25
    80001ae4:	0187863b          	addw	x12,x15,x24
    80001ae8:	0209c7bb          	divw	x15,x19,x0
    80001aec:	015a1bb3          	sll	x23,x20,x21
    80001af0:	03658e3b          	mulw	x28,x11,x22
    80001af4:	40265bb3          	sra	x23,x12,x2
    80001af8:	030be33b          	remw	x6,x23,x16
    80001afc:	008882b3          	add	x5,x17,x8
    80001b00:	0242793b          	remuw	x18,x4,x4
    80001b04:	02f233b3          	mulhu	x7,x4,x15
    80001b08:	00437ab3          	and	x21,x6,x4
    80001b0c:	028b65bb          	remw	x11,x22,x8
    80001b10:	020788b3          	mul	x17,x15,x0
    80001b14:	41fc5633          	sra	x12,x24,x31
    80001b18:	00e804b3          	add	x9,x16,x14
    80001b1c:	009a77b3          	and	x15,x20,x9
    80001b20:	035ff33b          	remuw	x6,x31,x21
    80001b24:	02a9573b          	divuw	x14,x18,x10
    80001b28:	013280b3          	add	x1,x5,x19
    80001b2c:	00745d3b          	srlw	x26,x8,x7
    80001b30:	41e9db3b          	sraw	x22,x19,x30
    80001b34:	03b3fdb3          	remu	x27,x7,x27
    80001b38:	4195583b          	sraw	x16,x10,x25
    80001b3c:	02863d33          	mulhu	x26,x12,x8
    80001b40:	01764733          	xor	x14,x12,x23
    80001b44:	022fdebb          	divuw	x29,x31,x2
    80001b48:	001f9db3          	sll	x27,x31,x1
    80001b4c:	00f28633          	add	x12,x5,x15
    80001b50:	03a0d733          	divu	x14,x1,x26
    80001b54:	03029733          	mulh	x14,x5,x16
    80001b58:	01c39c3b          	sllw	x24,x7,x28
    80001b5c:	4010009b          	addiw	x1,x0,1025
    80001b60:	01509093          	slli	x1,x1,0x15
    80001b64:	36a0aa23          	sw	x10,884(x1)
    80001b68:	3740a503          	lw	x10,884(x1)
    80001b6c:	3740ef83          	lwu	x31,884(x1)
    80001b70:	016926b3          	slt	x13,x18,x22
    80001b74:	01f6ffb3          	and	x31,x13,x31
    80001b78:	009058b3          	srl	x17,x0,x9
    80001b7c:	01b7ce33          	xor	x28,x15,x27
    80001b80:	026bd1b3          	divu	x3,x23,x6
    80001b84:	036fb233          	mulhu	x4,x31,x22
    80001b88:	01b0823b          	addw	x4,x1,x27
    80001b8c:	02a3ba33          	mulhu	x20,x7,x10
    80001b90:	035413b3          	mulh	x7,x8,x21
    80001b94:	015104bb          	addw	x9,x2,x21
    80001b98:	000e2933          	slt	x18,x28,x0
    80001b9c:	02d023b3          	mulhsu	x7,x0,x13
    80001ba0:	01c450bb          	srlw	x1,x8,x28
    80001ba4:	03ca1eb3          	mulh	x29,x20,x28
    80001ba8:	00cdb233          	sltu	x4,x27,x12
    80001bac:	0182cb33          	xor	x22,x5,x24
    80001bb0:	402f8abb          	subw	x21,x31,x2
    80001bb4:	000979b3          	and	x19,x18,x0
    80001bb8:	0348f53b          	remuw	x10,x17,x20
    80001bbc:	00c73cb3          	sltu	x25,x14,x12
    80001bc0:	0215da3b          	divuw	x20,x11,x1
    80001bc4:	039748bb          	divw	x17,x14,x25
    80001bc8:	03ae6ebb          	remw	x29,x28,x26
    80001bcc:	0336e03b          	remw	x0,x13,x19
    80001bd0:	4145841b          	addiw	x8,x11,1044 # ffffffff81bcc414 <_start+0xffffffff01bcc414>
    80001bd4:	40b10dbb          	subw	x27,x2,x11
    80001bd8:	0ee8841b          	addiw	x8,x17,238
    80001bdc:	02464d3b          	divw	x26,x12,x4
    80001be0:	014096b3          	sll	x13,x1,x20
    80001be4:	02472a33          	mulhsu	x20,x14,x4
    80001be8:	02fe8e33          	mul	x28,x29,x15
    80001bec:	023121b3          	mulhsu	x3,x2,x3
    80001bf0:	0016df3b          	srlw	x30,x13,x1
    80001bf4:	4010009b          	addiw	x1,x0,1025
    80001bf8:	01509093          	slli	x1,x1,0x15
    80001bfc:	7cd0b823          	sd	x13,2000(x1)
    80001c00:	7d00b683          	ld	x13,2000(x1)
    80001c04:	031332b3          	mulhu	x5,x6,x17
    80001c08:	00167933          	and	x18,x12,x1
    80001c0c:	023ba733          	mulhsu	x14,x23,x3
    80001c10:	41835cbb          	sraw	x25,x6,x24
    80001c14:	0184b733          	sltu	x14,x9,x24
    80001c18:	0171d733          	srl	x14,x3,x23
    80001c1c:	017207b3          	add	x15,x4,x23
    80001c20:	03e3633b          	remw	x6,x6,x30
    80001c24:	02b500b3          	mul	x1,x10,x11
    80001c28:	03b47fb3          	remu	x31,x8,x27
    80001c2c:	40c50eb3          	sub	x29,x10,x12
    80001c30:	00e37c33          	and	x24,x6,x14
    80001c34:	004399b3          	sll	x19,x7,x4
    80001c38:	02867c33          	remu	x24,x12,x8
    80001c3c:	01470833          	add	x16,x14,x20
    80001c40:	023d6733          	rem	x14,x26,x3
    80001c44:	4010009b          	addiw	x1,x0,1025
    80001c48:	01509093          	slli	x1,x1,0x15
    80001c4c:	a3b08523          	sb	x27,-1494(x1)
    80001c50:	a2a08d83          	lb	x27,-1494(x1)
    80001c54:	a2a0cc03          	lbu	x24,-1494(x1)
    80001c58:	02721133          	mulh	x2,x4,x7
    80001c5c:	03917d33          	remu	x26,x2,x25
    80001c60:	03f07c33          	remu	x24,x0,x31
    80001c64:	4101df33          	sra	x30,x3,x16
    80001c68:	5a7e2797          	auipc	x15,0x5a7e2
    80001c6c:	00e62333          	slt	x6,x12,x14
    80001c70:	028063bb          	remw	x7,x0,x8
    80001c74:	02cc55bb          	divuw	x11,x24,x12
    80001c78:	4132073b          	subw	x14,x4,x19
    80001c7c:	031dc1bb          	divw	x3,x27,x17
    80001c80:	039f28b3          	mulhsu	x17,x30,x25
    80001c84:	00625c33          	srl	x24,x4,x6
    80001c88:	004bfab3          	and	x21,x23,x4
    80001c8c:	03358cbb          	mulw	x25,x11,x19
    80001c90:	0299b1b3          	mulhu	x3,x19,x9
    80001c94:	02d16dbb          	remw	x27,x2,x13
    80001c98:	03c268bb          	remw	x17,x4,x28
    80001c9c:	003a32b3          	sltu	x5,x20,x3
    80001ca0:	000adabb          	srlw	x21,x21,x0
    80001ca4:	03bb5bb3          	divu	x23,x22,x27
    80001ca8:	af22db37          	lui	x22,0xaf22d
    80001cac:	408e533b          	sraw	x6,x28,x8
    80001cb0:	02df89b3          	mul	x19,x31,x13
    80001cb4:	009d0fb3          	add	x31,x26,x9
    80001cb8:	0276ea3b          	remw	x20,x13,x7
    80001cbc:	03f10d3b          	mulw	x26,x2,x31
    80001cc0:	00035f33          	srl	x30,x6,x0
    80001cc4:	76d00d17          	auipc	x26,0x76d00
    80001cc8:	01132233          	slt	x4,x6,x17
    80001ccc:	03796cbb          	remw	x25,x18,x23
    80001cd0:	41b3dc33          	sra	x24,x7,x27
    80001cd4:	01c5d333          	srl	x6,x11,x28
    80001cd8:	00056e33          	or	x28,x10,x0
    80001cdc:	40f9d1b3          	sra	x3,x19,x15
    80001ce0:	025f2a33          	mulhsu	x20,x30,x5
    80001ce4:	014150b3          	srl	x1,x2,x20
    80001ce8:	016c5f3b          	srlw	x30,x24,x22
    80001cec:	0317b133          	mulhu	x2,x15,x17
    80001cf0:	00100fb3          	add	x31,x0,x1
    80001cf4:	7d5ebb93          	sltiu	x23,x29,2005
    80001cf8:	01d56cb3          	or	x25,x10,x29
    80001cfc:	41d2553b          	sraw	x10,x4,x29
    80001d00:	1a50d297          	auipc	x5,0x1a50d
    80001d04:	0293f2bb          	remuw	x5,x7,x9
    80001d08:	0223813b          	mulw	x2,x7,x2
    80001d0c:	01abd3b3          	srl	x7,x23,x26
    80001d10:	007661b3          	or	x3,x12,x7
    80001d14:	008d0fb3          	add	x31,x26,x8
    80001d18:	007c8433          	add	x8,x25,x7
    80001d1c:	0217a733          	mulhsu	x14,x15,x1
    80001d20:	41760a33          	sub	x20,x12,x23
    80001d24:	00377a33          	and	x20,x14,x3
    80001d28:	03440333          	mul	x6,x8,x20
    80001d2c:	036f95b3          	mulh	x11,x31,x22
    80001d30:	0368f533          	remu	x10,x17,x22
    80001d34:	01493d33          	sltu	x26,x18,x20
    80001d38:	02990f3b          	mulw	x30,x18,x9
    80001d3c:	033ff0bb          	remuw	x1,x31,x19
    80001d40:	4010009b          	addiw	x1,x0,1025
    80001d44:	01509093          	slli	x1,x1,0x15
    80001d48:	ff708323          	sb	x23,-26(x1)
    80001d4c:	fe608b83          	lb	x23,-26(x1)
    80001d50:	fe60c783          	lbu	x15,-26(x1)
    80001d54:	006c163b          	sllw	x12,x24,x6
    80001d58:	02a9733b          	remuw	x6,x18,x10
    80001d5c:	038d3eb3          	mulhu	x29,x26,x24
    80001d60:	03b2e2bb          	remw	x5,x5,x27
    80001d64:	036d0d33          	mul	x26,x26,x22
    80001d68:	007117bb          	sllw	x15,x2,x7
    80001d6c:	033a11b3          	mulh	x3,x20,x19
    80001d70:	00614433          	xor	x8,x2,x6
    80001d74:	01370933          	add	x18,x14,x19
    80001d78:	000258bb          	srlw	x17,x4,x0
    80001d7c:	031220b3          	mulhsu	x1,x4,x17
    80001d80:	404907bb          	subw	x15,x18,x4
    80001d84:	41f0d23b          	sraw	x4,x1,x31
    80001d88:	035c7dbb          	remuw	x27,x24,x21
    80001d8c:	03b64033          	div	x0,x12,x27
    80001d90:	01d9b3b3          	sltu	x7,x19,x29
    80001d94:	01a317bb          	sllw	x15,x6,x26
    80001d98:	033aea3b          	remw	x20,x21,x19
    80001d9c:	0257c0b3          	div	x1,x15,x5
    80001da0:	01ada5b3          	slt	x11,x27,x26
    80001da4:	03ec0233          	mul	x4,x24,x30
    80001da8:	03e5633b          	remw	x6,x10,x30
    80001dac:	40a98d3b          	subw	x26,x19,x10
    80001db0:	40a950bb          	sraw	x1,x18,x10
    80001db4:	007714bb          	sllw	x9,x14,x7
    80001db8:	417f853b          	subw	x10,x31,x23
    80001dbc:	001c60b3          	or	x1,x24,x1
    80001dc0:	00d2ba33          	sltu	x20,x5,x13
    80001dc4:	4197d133          	sra	x2,x15,x25
    80001dc8:	03325233          	divu	x4,x4,x19
    80001dcc:	006d0cb3          	add	x25,x26,x6
    80001dd0:	0225efb3          	rem	x31,x11,x2
    80001dd4:	03c8a433          	mulhsu	x8,x17,x28
    80001dd8:	01139f3b          	sllw	x30,x7,x17
    80001ddc:	006bcc33          	xor	x24,x23,x6
    80001de0:	03c75933          	divu	x18,x14,x28
    80001de4:	40c60fbb          	subw	x31,x12,x12
    80001de8:	0107d83b          	srlw	x16,x15,x16
    80001dec:	02ffc433          	div	x8,x31,x15
    80001df0:	cf864f37          	lui	x30,0xcf864
    80001df4:	41c1513b          	sraw	x2,x2,x28
    80001df8:	020cf73b          	remuw	x14,x25,x0
    80001dfc:	036c06b3          	mul	x13,x24,x22
    80001e00:	03f162bb          	remw	x5,x2,x31
    80001e04:	41340ebb          	subw	x29,x8,x19
    80001e08:	022a81bb          	mulw	x3,x21,x2
    80001e0c:	038a5233          	divu	x4,x20,x24
    80001e10:	02623933          	mulhu	x18,x4,x6
    80001e14:	026086bb          	mulw	x13,x1,x6
    80001e18:	03ba9633          	mulh	x12,x21,x27
    80001e1c:	005f3cb3          	sltu	x25,x30,x5
    80001e20:	02c6083b          	mulw	x16,x12,x12
    80001e24:	036fdbb3          	divu	x23,x31,x22
    80001e28:	014e11b3          	sll	x3,x28,x20
    80001e2c:	0080ab33          	slt	x22,x1,x8
    80001e30:	40c55db3          	sra	x27,x10,x12
    80001e34:	03683a33          	mulhu	x20,x16,x22
    80001e38:	0264e033          	rem	x0,x9,x6
    80001e3c:	01d70733          	add	x14,x14,x29
    80001e40:	00ea5b3b          	srlw	x22,x20,x14
    80001e44:	00d01433          	sll	x8,x0,x13
    80001e48:	02a46eb3          	rem	x29,x8,x10
    80001e4c:	0384f2b3          	remu	x5,x9,x24
    80001e50:	41898eb3          	sub	x29,x19,x24
    80001e54:	408c8b3b          	subw	x22,x25,x8
    80001e58:	410ddd33          	sra	x26,x27,x16
    80001e5c:	01210d33          	add	x26,x2,x18
    80001e60:	0287fd33          	remu	x26,x15,x8
    80001e64:	03044cbb          	divw	x25,x8,x16
    80001e68:	03167f33          	remu	x30,x12,x17
    80001e6c:	0027abb3          	slt	x23,x15,x2
    80001e70:	01991fb3          	sll	x31,x18,x25
    80001e74:	01646033          	or	x0,x8,x22
    80001e78:	41fd88bb          	subw	x17,x27,x31
    80001e7c:	005bd03b          	srlw	x0,x23,x5
    80001e80:	419e8abb          	subw	x21,x29,x25
    80001e84:	4010009b          	addiw	x1,x0,1025
    80001e88:	01509093          	slli	x1,x1,0x15
    80001e8c:	bf70ae23          	sw	x23,-1028(x1)
    80001e90:	bfc0ab83          	lw	x23,-1028(x1)
    80001e94:	bfc0ef03          	lwu	x30,-1028(x1)
    80001e98:	00e65933          	srl	x18,x12,x14
    80001e9c:	40080abb          	subw	x21,x16,x0
    80001ea0:	008addbb          	srlw	x27,x21,x8
    80001ea4:	01664833          	xor	x16,x12,x22
    80001ea8:	01a2cd33          	xor	x26,x5,x26
    80001eac:	00b7843b          	addw	x8,x15,x11
    80001eb0:	00611833          	sll	x16,x2,x6
    80001eb4:	02434a33          	div	x20,x6,x4
    80001eb8:	03e0a533          	mulhsu	x10,x1,x30
    80001ebc:	012d8dbb          	addw	x27,x27,x18
    80001ec0:	0082dfbb          	srlw	x31,x5,x8
    80001ec4:	03ce73bb          	remuw	x7,x28,x28
    80001ec8:	0307da3b          	divuw	x20,x15,x16
    80001ecc:	026de03b          	remw	x0,x27,x6
    80001ed0:	01efa0b3          	slt	x1,x31,x30
    80001ed4:	414edb33          	sra	x22,x29,x20
    80001ed8:	005aa133          	slt	x2,x21,x5
    80001edc:	01ddd433          	srl	x8,x27,x29
    80001ee0:	03b204b3          	mul	x9,x4,x27
    80001ee4:	402d0ab3          	sub	x21,x26,x2
    80001ee8:	028048bb          	divw	x17,x0,x8
    80001eec:	03ce093b          	mulw	x18,x28,x28
    80001ef0:	007f9033          	sll	x0,x31,x7
    80001ef4:	01a7e1b3          	or	x3,x15,x26
    80001ef8:	00d2163b          	sllw	x12,x4,x13
    80001efc:	029c96b3          	mulh	x13,x25,x9
    80001f00:	0337cdb3          	div	x27,x15,x19
    80001f04:	4010009b          	addiw	x1,x0,1025
    80001f08:	01509093          	slli	x1,x1,0x15
    80001f0c:	7dd08aa3          	sb	x29,2005(x1)
    80001f10:	7d508e83          	lb	x29,2005(x1)
    80001f14:	7d50cb03          	lbu	x22,2005(x1)
    80001f18:	0221cd33          	div	x26,x3,x2
    80001f1c:	0174e133          	or	x2,x9,x23
    80001f20:	009886b3          	add	x13,x17,x9
    80001f24:	4000d3b3          	sra	x7,x1,x0
    80001f28:	01b8c8b3          	xor	x17,x17,x27
    80001f2c:	006bd4b3          	srl	x9,x23,x6
    80001f30:	408586bb          	subw	x13,x11,x8
    80001f34:	003974b3          	and	x9,x18,x3
    80001f38:	030c75b3          	remu	x11,x24,x16
    80001f3c:	0084a133          	slt	x2,x9,x8
    80001f40:	01b28eb3          	add	x29,x5,x27
    80001f44:	03abd133          	divu	x2,x23,x26
    80001f48:	00946eb3          	or	x29,x8,x9
    80001f4c:	4151d8bb          	sraw	x17,x3,x21
    80001f50:	016b5633          	srl	x12,x22,x22
    80001f54:	037e86b3          	mul	x13,x29,x23
    80001f58:	0194963b          	sllw	x12,x9,x25
    80001f5c:	403009bb          	subw	x19,x0,x3
    80001f60:	402ad33b          	sraw	x6,x21,x2
    80001f64:	02e646b3          	div	x13,x12,x14
    80001f68:	023250b3          	divu	x1,x4,x3
    80001f6c:	00ed933b          	sllw	x6,x27,x14
    80001f70:	02b9d5bb          	divuw	x11,x19,x11
    80001f74:	001e0bb3          	add	x23,x28,x1
    80001f78:	03733ab3          	mulhu	x21,x6,x23
    80001f7c:	0188983b          	sllw	x16,x17,x24
    80001f80:	01940fb3          	add	x31,x8,x25
    80001f84:	038418b3          	mulh	x17,x8,x24
    80001f88:	03ebb1b3          	mulhu	x3,x23,x30
    80001f8c:	00956e33          	or	x28,x10,x9
    80001f90:	03f08abb          	mulw	x21,x1,x31
    80001f94:	02e5c23b          	divw	x4,x11,x14
    80001f98:	0390ffbb          	remuw	x31,x1,x25
    80001f9c:	023cc233          	div	x4,x25,x3
    80001fa0:	013f0533          	add	x10,x30,x19
    80001fa4:	0213af33          	mulhsu	x30,x7,x1
    80001fa8:	dc018b1b          	addiw	x22,x3,-576 # ffffffffb3f53fbc <_start+0xffffffff33f53fbc>
    80001fac:	03425e3b          	divuw	x28,x4,x20
    80001fb0:	031afb33          	remu	x22,x21,x17
    80001fb4:	402dd6bb          	sraw	x13,x27,x2
    80001fb8:	02c36d33          	rem	x26,x6,x12
    80001fbc:	0369ae33          	mulhsu	x28,x19,x22
    80001fc0:	0327513b          	divuw	x2,x14,x18
    80001fc4:	03b47ebb          	remuw	x29,x8,x27
    80001fc8:	4045823b          	subw	x4,x11,x4
    80001fcc:	0342c6bb          	divw	x13,x5,x20
    80001fd0:	4010009b          	addiw	x1,x0,1025
    80001fd4:	01509093          	slli	x1,x1,0x15
    80001fd8:	86909f23          	sh	x9,-1922(x1)
    80001fdc:	87e09483          	lh	x9,-1922(x1)
    80001fe0:	87e0d403          	lhu	x8,-1922(x1)
    80001fe4:	0325e4bb          	remw	x9,x11,x18
    80001fe8:	0345b133          	mulhu	x2,x11,x20
    80001fec:	032a15b3          	mulh	x11,x20,x18
    80001ff0:	02b3eeb3          	rem	x29,x7,x11
    80001ff4:	033e0bbb          	mulw	x23,x28,x19
    80001ff8:	41305c3b          	sraw	x24,x0,x19
    80001ffc:	0367d2b3          	divu	x5,x15,x22
    80002000:	00aab2b3          	sltu	x5,x21,x10
    80002004:	00424333          	xor	x6,x4,x4
    80002008:	006b97bb          	sllw	x15,x23,x6
    8000200c:	03badabb          	divuw	x21,x21,x27
    80002010:	00412eb3          	slt	x29,x2,x4
    80002014:	4123db3b          	sraw	x22,x7,x18
    80002018:	00277633          	and	x12,x14,x2
    8000201c:	02c643bb          	divw	x7,x12,x12
    80002020:	02f6b4b3          	mulhu	x9,x13,x15
    80002024:	40a782bb          	subw	x5,x15,x10
    80002028:	036ee9b3          	rem	x19,x29,x22
    8000202c:	0128083b          	addw	x16,x16,x18
    80002030:	02b4f73b          	remuw	x14,x9,x11
    80002034:	010fd513          	srli	x10,x31,0x10
    80002038:	00cddbb3          	srl	x23,x27,x12
    8000203c:	404f853b          	subw	x10,x31,x4
    80002040:	4191593b          	sraw	x18,x2,x25
    80002044:	00563733          	sltu	x14,x12,x5
    80002048:	00439e3b          	sllw	x28,x7,x4
    8000204c:	01bf9833          	sll	x16,x31,x27
    80002050:	03e745bb          	divw	x11,x14,x30
    80002054:	02757a33          	remu	x20,x10,x7
    80002058:	0394ef3b          	remw	x30,x9,x25
    8000205c:	40558733          	sub	x14,x11,x5
    80002060:	035575b3          	remu	x11,x10,x21
    80002064:	00b9573b          	srlw	x14,x18,x11
    80002068:	02f2cdb3          	div	x27,x5,x15
    8000206c:	02196a3b          	remw	x20,x18,x1
    80002070:	034956bb          	divuw	x13,x18,x20
    80002074:	005087bb          	addw	x15,x1,x5
    80002078:	0311cdb3          	div	x27,x3,x17
    8000207c:	019c8f33          	add	x30,x25,x25
    80002080:	03a4fbb3          	remu	x23,x9,x26
    80002084:	40abd233          	sra	x4,x23,x10
    80002088:	022c4733          	div	x14,x24,x2
    8000208c:	02ac54bb          	divuw	x9,x24,x10
    80002090:	039607b3          	mul	x15,x12,x25
    80002094:	4010009b          	addiw	x1,x0,1025
    80002098:	01509093          	slli	x1,x1,0x15
    8000209c:	8c30b423          	sd	x3,-1848(x1)
    800020a0:	8c80b183          	ld	x3,-1848(x1)
    800020a4:	02bf633b          	remw	x6,x30,x11
    800020a8:	02b0eebb          	remw	x29,x1,x11
    800020ac:	0366c8bb          	divw	x17,x13,x22
    800020b0:	02529233          	mulh	x4,x5,x5
    800020b4:	4041d733          	sra	x14,x3,x4
    800020b8:	0339cf3b          	divw	x30,x19,x19
    800020bc:	0291443b          	divw	x8,x2,x9
    800020c0:	41bc8a33          	sub	x20,x25,x27
    800020c4:	01520dbb          	addw	x27,x4,x21
    800020c8:	02953ab3          	mulhu	x21,x10,x9
    800020cc:	00c3a7b7          	lui	x15,0xc3a
    800020d0:	40c90fbb          	subw	x31,x18,x12
    800020d4:	000436b3          	sltu	x13,x8,x0
    800020d8:	02ca0db3          	mul	x27,x20,x12
    800020dc:	99c9c317          	auipc	x6,0x99c9c
    800020e0:	00a28cb3          	add	x25,x5,x10
    800020e4:	00ec7a33          	and	x20,x24,x14
    800020e8:	0127db33          	srl	x22,x15,x18
    800020ec:	019200bb          	addw	x1,x4,x25
    800020f0:	0093aab3          	slt	x21,x7,x9
    800020f4:	40fcd733          	sra	x14,x25,x15
    800020f8:	023df13b          	remuw	x2,x27,x3
    800020fc:	41130bb3          	sub	x23,x6,x17
    80002100:	4010009b          	addiw	x1,x0,1025
    80002104:	01509093          	slli	x1,x1,0x15
    80002108:	652088a3          	sb	x18,1617(x1)
    8000210c:	65108903          	lb	x18,1617(x1)
    80002110:	6510ce83          	lbu	x29,1617(x1)
    80002114:	419b81bb          	subw	x3,x23,x25
    80002118:	005de3b3          	or	x7,x27,x5
    8000211c:	0216ac33          	mulhsu	x24,x13,x1
    80002120:	01194433          	xor	x8,x18,x17
    80002124:	0047cc33          	xor	x24,x15,x4
    80002128:	0210de3b          	divuw	x28,x1,x1
    8000212c:	4103023b          	subw	x4,x6,x16
    80002130:	0186da3b          	srlw	x20,x13,x24
    80002134:	000dd03b          	srlw	x0,x27,x0
    80002138:	4010009b          	addiw	x1,x0,1025
    8000213c:	01509093          	slli	x1,x1,0x15
    80002140:	ed209723          	sh	x18,-306(x1)
    80002144:	ece09903          	lh	x18,-306(x1)
    80002148:	ece0d983          	lhu	x19,-306(x1)
    8000214c:	00fde733          	or	x14,x27,x15
    80002150:	417cdfb3          	sra	x31,x25,x23
    80002154:	5e692893          	slti	x17,x18,1510
    80002158:	03ae5533          	divu	x10,x28,x26
    8000215c:	0300c833          	div	x16,x1,x16
    80002160:	016edab3          	srl	x21,x29,x22
    80002164:	03f5edb3          	rem	x27,x11,x31
    80002168:	00bf063b          	addw	x12,x30,x11
    8000216c:	02af403b          	divw	x0,x30,x10
    80002170:	019f2e33          	slt	x28,x30,x25
    80002174:	0370c23b          	divw	x4,x1,x23
    80002178:	03b51ab3          	mulh	x21,x10,x27
    8000217c:	021e02bb          	mulw	x5,x28,x1
    80002180:	03415bb3          	divu	x23,x2,x20
    80002184:	03a2b533          	mulhu	x10,x5,x26
    80002188:	00bc6db3          	or	x27,x24,x11
    8000218c:	009d5a3b          	srlw	x20,x26,x9
    80002190:	00661cbb          	sllw	x25,x12,x6
    80002194:	01ac0fb3          	add	x31,x24,x26
    80002198:	03c40db3          	mul	x27,x8,x28
    8000219c:	0045873b          	addw	x14,x11,x4
    800021a0:	033685b3          	mul	x11,x13,x19
    800021a4:	00c501bb          	addw	x3,x10,x12
    800021a8:	00be9b33          	sll	x22,x29,x11
    800021ac:	419dd6bb          	sraw	x13,x27,x25
    800021b0:	02b34c33          	div	x24,x6,x11
    800021b4:	0100dc3b          	srlw	x24,x1,x16
    800021b8:	0275ff33          	remu	x30,x11,x7
    800021bc:	03be583b          	divuw	x16,x28,x27
    800021c0:	03997433          	remu	x8,x18,x25
    800021c4:	00e81133          	sll	x2,x16,x14
    800021c8:	022bc2bb          	divw	x5,x23,x2
    800021cc:	01b7873b          	addw	x14,x15,x27
    800021d0:	404987b3          	sub	x15,x19,x4
    800021d4:	014cd5b3          	srl	x11,x25,x20
    800021d8:	025a59b3          	divu	x19,x20,x5
    800021dc:	01de8933          	add	x18,x29,x29
    800021e0:	0211cf3b          	divw	x30,x3,x1
    800021e4:	00f003bb          	addw	x7,x0,x15
    800021e8:	038b5033          	divu	x0,x22,x24
    800021ec:	411c06b3          	sub	x13,x24,x17
    800021f0:	03d10f3b          	mulw	x30,x2,x29
    800021f4:	02ab50b3          	divu	x1,x22,x10
    800021f8:	028bcebb          	divw	x29,x23,x8
    800021fc:	014d71b3          	and	x3,x26,x20
    80002200:	029e1f33          	mulh	x30,x28,x9
    80002204:	0363dcbb          	divuw	x25,x7,x22
    80002208:	00608bb3          	add	x23,x1,x6
    8000220c:	41b15b33          	sra	x22,x2,x27
    80002210:	02634db3          	div	x27,x6,x6
    80002214:	027d7b3b          	remuw	x22,x26,x7
    80002218:	02a9a233          	mulhsu	x4,x19,x10
    8000221c:	01277d33          	and	x26,x14,x18
    80002220:	039119b3          	mulh	x19,x2,x25
    80002224:	0365773b          	remuw	x14,x10,x22
    80002228:	01caafb3          	slt	x31,x21,x28
    8000222c:	00009e33          	sll	x28,x1,x0
    80002230:	005db933          	sltu	x18,x27,x5
    80002234:	032cd733          	divu	x14,x25,x18
    80002238:	03c1cab3          	div	x21,x3,x28
    8000223c:	014857b3          	srl	x15,x16,x20
    80002240:	41e85833          	sra	x16,x16,x30
    80002244:	026d4ab3          	div	x21,x26,x6
    80002248:	cad6e713          	ori	x14,x13,-851
    8000224c:	01aaefb3          	or	x31,x21,x26
    80002250:	41df5bb3          	sra	x23,x30,x29
    80002254:	40208d33          	sub	x26,x1,x2
    80002258:	419d043b          	subw	x8,x26,x25
    8000225c:	0284e9b3          	rem	x19,x9,x8
    80002260:	020cc633          	div	x12,x25,x0
    80002264:	02f90d33          	mul	x26,x18,x15
    80002268:	037bd133          	divu	x2,x23,x23
    8000226c:	0340623b          	remw	x4,x0,x20
    80002270:	0286e1b3          	rem	x3,x13,x8
    80002274:	01a4c8b3          	xor	x17,x9,x26
    80002278:	400f053b          	subw	x10,x30,x0
    8000227c:	01daddb3          	srl	x27,x21,x29
    80002280:	02f67033          	remu	x0,x12,x15
    80002284:	00317cb3          	and	x25,x2,x3
    80002288:	0037beb3          	sltu	x29,x15,x3
    8000228c:	40dc51bb          	sraw	x3,x24,x13
    80002290:	02ef80bb          	mulw	x1,x31,x14
    80002294:	0362723b          	remuw	x4,x4,x22
    80002298:	0099c5b3          	xor	x11,x19,x9
    8000229c:	417a073b          	subw	x14,x20,x23
    800022a0:	0273cfbb          	divw	x31,x7,x7
    800022a4:	0115a9b3          	slt	x19,x11,x17
    800022a8:	418e0fbb          	subw	x31,x28,x24
    800022ac:	f1e37893          	andi	x17,x6,-226
    800022b0:	00b9b5b3          	sltu	x11,x19,x11
    800022b4:	01d29133          	sll	x2,x5,x29
    800022b8:	00e002b3          	add	x5,x0,x14
    800022bc:	00050b33          	add	x22,x10,x0
    800022c0:	415453b3          	sra	x7,x8,x21
    800022c4:	03f9c0bb          	divw	x1,x19,x31
    800022c8:	037dc13b          	divw	x2,x27,x23
    800022cc:	00d602bb          	addw	x5,x12,x13
    800022d0:	03c373bb          	remuw	x7,x6,x28
    800022d4:	030634b3          	mulhu	x9,x12,x16
    800022d8:	02990a33          	mul	x20,x18,x9
    800022dc:	02efc03b          	divw	x0,x31,x14
    800022e0:	03f2ecb3          	rem	x25,x5,x31
    800022e4:	034beeb3          	rem	x29,x23,x20
    800022e8:	0356c0bb          	divw	x1,x13,x21
    800022ec:	035aaeb3          	mulhsu	x29,x21,x21
    800022f0:	02dac4bb          	divw	x9,x21,x13
    800022f4:	015bdbbb          	srlw	x23,x23,x21
    800022f8:	d39c0c13          	addi	x24,x24,-711 # ffffffffb5526d39 <_start+0xffffffff35526d39>
    800022fc:	0076a933          	slt	x18,x13,x7
    80002300:	4010009b          	addiw	x1,x0,1025
    80002304:	01509093          	slli	x1,x1,0x15
    80002308:	07d0b823          	sd	x29,112(x1)
    8000230c:	0700be83          	ld	x29,112(x1)
    80002310:	01bd183b          	sllw	x16,x26,x27
    80002314:	01084133          	xor	x2,x16,x16
    80002318:	036efdbb          	remuw	x27,x29,x22
    8000231c:	02fda933          	mulhsu	x18,x27,x15
    80002320:	03f982bb          	mulw	x5,x19,x31
    80002324:	013ad933          	srl	x18,x21,x19
    80002328:	00e4acb3          	slt	x25,x9,x14
    8000232c:	4010009b          	addiw	x1,x0,1025
    80002330:	01509093          	slli	x1,x1,0x15
    80002334:	a85087a3          	sb	x5,-1393(x1)
    80002338:	a8f08283          	lb	x5,-1393(x1)
    8000233c:	a8f0c583          	lbu	x11,-1393(x1)
    80002340:	02810833          	mul	x16,x2,x8
    80002344:	01e849b3          	xor	x19,x16,x30
    80002348:	006c43b3          	xor	x7,x24,x6
    8000234c:	02fd2633          	mulhsu	x12,x26,x15
    80002350:	00d6eeb3          	or	x29,x13,x13
    80002354:	03acd233          	divu	x4,x25,x26
    80002358:	021c9233          	mulh	x4,x25,x1
    8000235c:	0380d2b3          	divu	x5,x1,x24
    80002360:	02c4ca3b          	divw	x20,x9,x12
    80002364:	035f6c33          	rem	x24,x30,x21
    80002368:	021bf9b3          	remu	x19,x23,x1
    8000236c:	034840bb          	divw	x1,x16,x20
    80002370:	03d347bb          	divw	x15,x6,x29
    80002374:	02077fbb          	remuw	x31,x14,x0
    80002378:	01571ab3          	sll	x21,x14,x21
    8000237c:	404d053b          	subw	x10,x26,x4
    80002380:	00b00433          	add	x8,x0,x11
    80002384:	03ca6eb3          	rem	x29,x20,x28
    80002388:	012aad33          	slt	x26,x21,x18
    8000238c:	03b7eebb          	remw	x29,x15,x27
    80002390:	02ca8c3b          	mulw	x24,x21,x12
    80002394:	40e154bb          	sraw	x9,x2,x14
    80002398:	024d26b3          	mulhsu	x13,x26,x4
    8000239c:	54a33f17          	auipc	x30,0x54a33
    800023a0:	02b4bdb3          	mulhu	x27,x9,x11
    800023a4:	00c8e1b3          	or	x3,x17,x12
    800023a8:	412088b3          	sub	x17,x1,x18
    800023ac:	02080dbb          	mulw	x27,x16,x0
    800023b0:	402ed53b          	sraw	x10,x29,x2
    800023b4:	0313efb3          	rem	x31,x7,x17
    800023b8:	02b089b3          	mul	x19,x1,x11
    800023bc:	4134563b          	sraw	x12,x8,x19
    800023c0:	0115d1bb          	srlw	x3,x11,x17
    800023c4:	033dffbb          	remuw	x31,x27,x19
    800023c8:	5b175bb7          	lui	x23,0x5b175
    800023cc:	015e15bb          	sllw	x11,x28,x21
    800023d0:	037babb3          	mulhsu	x23,x23,x23
    800023d4:	01907233          	and	x4,x0,x25
    800023d8:	c4126db7          	lui	x27,0xc4126
    800023dc:	01da17bb          	sllw	x15,x20,x29
    800023e0:	0645a317          	auipc	x6,0x645a
    800023e4:	031a4cbb          	divw	x25,x20,x17
    800023e8:	b638fcb7          	lui	x25,0xb638f
    800023ec:	4010009b          	addiw	x1,x0,1025
    800023f0:	01509093          	slli	x1,x1,0x15
    800023f4:	a950b823          	sd	x21,-1392(x1)
    800023f8:	a900ba83          	ld	x21,-1392(x1)
    800023fc:	02589033          	mulh	x0,x17,x5
    80002400:	01770733          	add	x14,x14,x23
    80002404:	41018033          	sub	x0,x3,x16
    80002408:	001996bb          	sllw	x13,x19,x1
    8000240c:	40df5b3b          	sraw	x22,x30,x13
    80002410:	0031e6b3          	or	x13,x3,x3
    80002414:	02aad33b          	divuw	x6,x21,x10
    80002418:	00703bb3          	sltu	x23,x0,x7
    8000241c:	002e5ebb          	srlw	x29,x28,x2
    80002420:	41aa523b          	sraw	x4,x20,x26
    80002424:	00dd8b3b          	addw	x22,x27,x13
    80002428:	00169d33          	sll	x26,x13,x1
    8000242c:	00ce8b33          	add	x22,x29,x12
    80002430:	4010009b          	addiw	x1,x0,1025
    80002434:	01509093          	slli	x1,x1,0x15
    80002438:	ca80ac23          	sw	x8,-840(x1)
    8000243c:	cb80a403          	lw	x8,-840(x1)
    80002440:	cb80e903          	lwu	x18,-840(x1)
    80002444:	0316e1b3          	rem	x3,x13,x17
    80002448:	0252683b          	remw	x16,x4,x5
    8000244c:	031bafb3          	mulhsu	x31,x23,x17
    80002450:	00a009bb          	addw	x19,x0,x10
    80002454:	02add7bb          	divuw	x15,x27,x10
    80002458:	036e43b3          	div	x7,x28,x22
    8000245c:	020539b3          	mulhu	x19,x10,x0
    80002460:	034d4cb3          	div	x25,x26,x20
    80002464:	027b6e33          	rem	x28,x22,x7
    80002468:	400b863b          	subw	x12,x23,x0
    8000246c:	4167d633          	sra	x12,x15,x22
    80002470:	01fc92bb          	sllw	x5,x25,x31
    80002474:	031d7fbb          	remuw	x31,x26,x17
    80002478:	03a3bd33          	mulhu	x26,x7,x26
    8000247c:	01fb8cbb          	addw	x25,x23,x31
    80002480:	004b0fbb          	addw	x31,x22,x4
    80002484:	41b10933          	sub	x18,x2,x27
    80002488:	405a5233          	sra	x4,x20,x5
    8000248c:	025c713b          	remuw	x2,x24,x5
    80002490:	021b96b3          	mulh	x13,x23,x1
    80002494:	02cc1e33          	mulh	x28,x24,x12
    80002498:	41890933          	sub	x18,x18,x24
    8000249c:	01a3dc3b          	srlw	x24,x7,x26
    800024a0:	031006b3          	mul	x13,x0,x17
    800024a4:	41420dbb          	subw	x27,x4,x20
    800024a8:	03cca033          	mulhsu	x0,x25,x28
    800024ac:	4010009b          	addiw	x1,x0,1025
    800024b0:	01509093          	slli	x1,x1,0x15
    800024b4:	eaf09923          	sh	x15,-334(x1)
    800024b8:	eb209783          	lh	x15,-334(x1)
    800024bc:	eb20df83          	lhu	x31,-334(x1)
    800024c0:	00679f33          	sll	x30,x15,x6
    800024c4:	02db873b          	mulw	x14,x23,x13
    800024c8:	0289abb3          	mulhsu	x23,x19,x8
    800024cc:	03992833          	mulhsu	x16,x18,x25
    800024d0:	037deebb          	remw	x29,x27,x23
    800024d4:	030c9233          	mulh	x4,x25,x16
    800024d8:	404308b3          	sub	x17,x6,x4
    800024dc:	01767c33          	and	x24,x12,x23
    800024e0:	40afd433          	sra	x8,x31,x10
    800024e4:	008c08b3          	add	x17,x24,x8
    800024e8:	00c09cbb          	sllw	x25,x1,x12
    800024ec:	011a1c3b          	sllw	x24,x20,x17
    800024f0:	00ba59b3          	srl	x19,x20,x11
    800024f4:	4010009b          	addiw	x1,x0,1025
    800024f8:	01509093          	slli	x1,x1,0x15
    800024fc:	d70083a3          	sb	x16,-665(x1)
    80002500:	d6708803          	lb	x16,-665(x1)
    80002504:	d670c103          	lbu	x2,-665(x1)
    80002508:	00a5ec33          	or	x24,x11,x10
    8000250c:	01166933          	or	x18,x12,x17
    80002510:	4037043b          	subw	x8,x14,x3
    80002514:	01c811bb          	sllw	x3,x16,x28
    80002518:	406f5f33          	sra	x30,x30,x6
    8000251c:	00716833          	or	x16,x2,x7
    80002520:	414e8233          	sub	x4,x29,x20
    80002524:	032f4abb          	divw	x21,x30,x18
    80002528:	019d50b3          	srl	x1,x26,x25
    8000252c:	03268f3b          	mulw	x30,x13,x18
    80002530:	016f3633          	sltu	x12,x30,x22
    80002534:	02bd4fbb          	divw	x31,x26,x11
    80002538:	004f6d33          	or	x26,x30,x4
    8000253c:	0076bd33          	sltu	x26,x13,x7
    80002540:	02eed733          	divu	x14,x29,x14
    80002544:	018d09b3          	add	x19,x26,x24
    80002548:	01980733          	add	x14,x16,x25
    8000254c:	41c45033          	sra	x0,x8,x28
    80002550:	4010009b          	addiw	x1,x0,1025
    80002554:	01509093          	slli	x1,x1,0x15
    80002558:	0a308e23          	sb	x3,188(x1)
    8000255c:	0bc08183          	lb	x3,188(x1)
    80002560:	0bc0cc03          	lbu	x24,188(x1)
    80002564:	409e5c3b          	sraw	x24,x28,x9
    80002568:	4010009b          	addiw	x1,x0,1025
    8000256c:	01509093          	slli	x1,x1,0x15
    80002570:	eb50bc23          	sd	x21,-328(x1)
    80002574:	eb80ba83          	ld	x21,-328(x1)
    80002578:	034ba8b3          	mulhsu	x17,x23,x20
    8000257c:	03d195b3          	mulh	x11,x3,x29
    80002580:	014f56b3          	srl	x13,x30,x20
    80002584:	416f8ab3          	sub	x21,x31,x22
    80002588:	034e69b3          	rem	x19,x28,x20
    8000258c:	0282833b          	mulw	x6,x5,x8
    80002590:	0258bf33          	mulhu	x30,x17,x5
    80002594:	40d58abb          	subw	x21,x11,x13
    80002598:	02566c3b          	remw	x24,x12,x5
    8000259c:	02ba013b          	mulw	x2,x20,x11
    800025a0:	02f65eb3          	divu	x29,x12,x15
    800025a4:	0078053b          	addw	x10,x16,x7
    800025a8:	045fc097          	auipc	x1,0x45fc
    800025ac:	0036073b          	addw	x14,x12,x3
    800025b0:	021d1fb3          	mulh	x31,x26,x1
    800025b4:	02fb53b3          	divu	x7,x22,x15
    800025b8:	01c22233          	slt	x4,x4,x28
    800025bc:	409dd533          	sra	x10,x27,x9
    800025c0:	03f9ff3b          	remuw	x30,x19,x31
    800025c4:	d64b5917          	auipc	x18,0xd64b5
    800025c8:	0382c933          	div	x18,x5,x24
    800025cc:	021361bb          	remw	x3,x6,x1
    800025d0:	02b950b3          	divu	x1,x18,x11
    800025d4:	003ea4b3          	slt	x9,x29,x3
    800025d8:	418b57bb          	sraw	x15,x22,x24
    800025dc:	02478233          	mul	x4,x15,x4
    800025e0:	4193083b          	subw	x16,x6,x25
    800025e4:	03791cb3          	mulh	x25,x18,x23
    800025e8:	02e2a133          	mulhsu	x2,x5,x14
    800025ec:	00e68d33          	add	x26,x13,x14
    800025f0:	407a5133          	sra	x2,x20,x7
    800025f4:	a758b6b7          	lui	x13,0xa758b
    800025f8:	41f787b3          	sub	x15,x15,x31
    800025fc:	410a58bb          	sraw	x17,x20,x16
    80002600:	015ea133          	slt	x2,x29,x21
    80002604:	00f30fbb          	addw	x31,x6,x15
    80002608:	03abfabb          	remuw	x21,x23,x26
    8000260c:	0289a233          	mulhsu	x4,x19,x8
    80002610:	03144fbb          	divw	x31,x8,x17
    80002614:	0312fa3b          	remuw	x20,x5,x17
    80002618:	00320eb3          	add	x29,x4,x3
    8000261c:	031d2133          	mulhsu	x2,x26,x17
    80002620:	07f4d2b7          	lui	x5,0x7f4d
    80002624:	00955bb3          	srl	x23,x10,x9
    80002628:	027e613b          	remw	x2,x28,x7
    8000262c:	02a1ca33          	div	x20,x3,x10
    80002630:	03979633          	mulh	x12,x15,x25
    80002634:	00a15eb3          	srl	x29,x2,x10
    80002638:	017d63b3          	or	x7,x26,x23
    8000263c:	03634a33          	div	x20,x6,x22
    80002640:	032bcebb          	divw	x29,x23,x18
    80002644:	01a3f933          	and	x18,x7,x26
    80002648:	00c345b3          	xor	x11,x6,x12
    8000264c:	0139ad33          	slt	x26,x19,x19
    80002650:	e9aa5637          	lui	x12,0xe9aa5
    80002654:	017402b3          	add	x5,x8,x23
    80002658:	023568bb          	remw	x17,x10,x3
    8000265c:	00a914b3          	sll	x9,x18,x10
    80002660:	03f7053b          	mulw	x10,x14,x31
    80002664:	ce1fa837          	lui	x16,0xce1fa
    80002668:	02a23d33          	mulhu	x26,x4,x10
    8000266c:	010d6633          	or	x12,x26,x16
    80002670:	0395ffb3          	remu	x31,x11,x25
    80002674:	0040963b          	sllw	x12,x1,x4
    80002678:	402d8cbb          	subw	x25,x27,x2
    8000267c:	0376a633          	mulhsu	x12,x13,x23
    80002680:	03760233          	mul	x4,x12,x23
    80002684:	00979e3b          	sllw	x28,x15,x9
    80002688:	033dfc3b          	remuw	x24,x27,x19
    8000268c:	4178d73b          	sraw	x14,x17,x23
    80002690:	028b52bb          	divuw	x5,x22,x8
    80002694:	41a1833b          	subw	x6,x3,x26
    80002698:	02a5fd3b          	remuw	x26,x11,x10
    8000269c:	01902f33          	slt	x30,x0,x25
    800026a0:	01dc2733          	slt	x14,x24,x29
    800026a4:	0294fb3b          	remuw	x22,x9,x9
    800026a8:	014b1b3b          	sllw	x22,x22,x20
    800026ac:	41d45c3b          	sraw	x24,x8,x29
    800026b0:	01c101bb          	addw	x3,x2,x28
    800026b4:	01ff6033          	or	x0,x30,x31
    800026b8:	03264433          	div	x8,x12,x18
    800026bc:	01ae91bb          	sllw	x3,x29,x26
    800026c0:	02fa5b3b          	divuw	x22,x20,x15
    800026c4:	0262aeb3          	mulhsu	x29,x5,x6
    800026c8:	03bf2a33          	mulhsu	x20,x30,x27
    800026cc:	01c8c9b3          	xor	x19,x17,x28
    800026d0:	032ae43b          	remw	x8,x21,x18
    800026d4:	03ca1f33          	mulh	x30,x20,x28
    800026d8:	03c5ce3b          	divw	x28,x11,x28
    800026dc:	028d633b          	remw	x6,x26,x8
    800026e0:	00968633          	add	x12,x13,x9
    800026e4:	02bbaeb3          	mulhsu	x29,x23,x11
    800026e8:	034c4d3b          	divw	x26,x24,x20
    800026ec:	0176533b          	srlw	x6,x12,x23
    800026f0:	02d05c33          	divu	x24,x0,x13
    800026f4:	009b59b3          	srl	x19,x22,x9
    800026f8:	01a5d53b          	srlw	x10,x11,x26
    800026fc:	4139d73b          	sraw	x14,x19,x19
    80002700:	02cce3bb          	remw	x7,x25,x12
    80002704:	033758b3          	divu	x17,x14,x19
    80002708:	02159c33          	mulh	x24,x11,x1
    8000270c:	03c2bdb3          	mulhu	x27,x5,x28
    80002710:	03ad94b3          	mulh	x9,x27,x26
    80002714:	218a6a93          	ori	x21,x20,536
    80002718:	010b2833          	slt	x16,x22,x16
    8000271c:	0324f73b          	remuw	x14,x9,x18
    80002720:	0034de3b          	srlw	x28,x9,x3
    80002724:	0016d333          	srl	x6,x13,x1
    80002728:	0207c1bb          	divw	x3,x15,x0
    8000272c:	00bf803b          	addw	x0,x31,x11
    80002730:	006b1633          	sll	x12,x22,x6
    80002734:	40128ab3          	sub	x21,x5,x1
    80002738:	00b5bf33          	sltu	x30,x11,x11
    8000273c:	02436e3b          	remw	x28,x6,x4
    80002740:	01599433          	sll	x8,x19,x21
    80002744:	038aeb3b          	remw	x22,x21,x24
    80002748:	01210c3b          	addw	x24,x2,x18
    8000274c:	010dd6b3          	srl	x13,x27,x16
    80002750:	01478ebb          	addw	x29,x15,x20
    80002754:	01ed0733          	add	x14,x26,x30
    80002758:	030ad7b3          	divu	x15,x21,x16
    8000275c:	007499bb          	sllw	x19,x9,x7
    80002760:	0390fdbb          	remuw	x27,x1,x25
    80002764:	00a7e233          	or	x4,x15,x10
    80002768:	41ddd033          	sra	x0,x27,x29
    8000276c:	40f7513b          	sraw	x2,x14,x15
    80002770:	025b8fbb          	mulw	x31,x23,x5
    80002774:	026f65b3          	rem	x11,x30,x6
    80002778:	0174ee33          	or	x28,x9,x23
    8000277c:	0083dc33          	srl	x24,x7,x8
    80002780:	002e2d33          	slt	x26,x28,x2
    80002784:	01a50d3b          	addw	x26,x10,x26
    80002788:	009748b3          	xor	x17,x14,x9
    8000278c:	00270fbb          	addw	x31,x14,x2
    80002790:	0171b133          	sltu	x2,x3,x23
    80002794:	0276ee33          	rem	x28,x13,x7
    80002798:	406507bb          	subw	x15,x10,x6
    8000279c:	0329debb          	divuw	x29,x19,x18
    800027a0:	03b2703b          	remuw	x0,x4,x27
    800027a4:	032d61b3          	rem	x3,x26,x18
    800027a8:	40610e3b          	subw	x28,x2,x6
    800027ac:	036fa933          	mulhsu	x18,x31,x22
    800027b0:	018c4733          	xor	x14,x24,x24
    800027b4:	03a46cb3          	rem	x25,x8,x26
    800027b8:	0337e933          	rem	x18,x15,x19
    800027bc:	018b00bb          	addw	x1,x22,x24
    800027c0:	02ccd6b3          	divu	x13,x25,x12
    800027c4:	9ea3a613          	slti	x12,x7,-1558
    800027c8:	00843433          	sltu	x8,x8,x8
    800027cc:	416e5f33          	sra	x30,x28,x22
    800027d0:	0177f933          	and	x18,x15,x23
    800027d4:	4010009b          	addiw	x1,x0,1025
    800027d8:	01509093          	slli	x1,x1,0x15
    800027dc:	d8d0b023          	sd	x13,-640(x1) # 845fe328 <_start+0x45fe328>
    800027e0:	d800b683          	ld	x13,-640(x1)
    800027e4:	02234cb3          	div	x25,x6,x2
    800027e8:	016ae933          	or	x18,x21,x22
    800027ec:	01f5533b          	srlw	x6,x10,x31
    800027f0:	03b3dbb3          	divu	x23,x7,x27
    800027f4:	41a55fbb          	sraw	x31,x10,x26
    800027f8:	02a0c933          	div	x18,x1,x10
    800027fc:	03f8cabb          	divw	x21,x17,x31
    80002800:	404fd63b          	sraw	x12,x31,x4
    80002804:	00fb2f33          	slt	x30,x22,x15
    80002808:	01545f33          	srl	x30,x8,x21
    8000280c:	41540fbb          	subw	x31,x8,x21
    80002810:	01dc66b3          	or	x13,x24,x29
    80002814:	00d0b033          	sltu	x0,x1,x13
    80002818:	02c74a3b          	divw	x20,x14,x12
    8000281c:	00fd1f33          	sll	x30,x26,x15
    80002820:	02a2fc3b          	remuw	x24,x5,x10
    80002824:	001052b3          	srl	x5,x0,x1
    80002828:	01c61d33          	sll	x26,x12,x28
    8000282c:	0363e53b          	remw	x10,x7,x22
    80002830:	02cb59b3          	divu	x19,x22,x12
    80002834:	00ae893b          	addw	x18,x29,x10
    80002838:	008932b3          	sltu	x5,x18,x8
    8000283c:	03a15c3b          	divuw	x24,x2,x26
    80002840:	034cc33b          	divw	x6,x25,x20
    80002844:	02b950bb          	divuw	x1,x18,x11
    80002848:	01f90b33          	add	x22,x18,x31
    8000284c:	0111c933          	xor	x18,x3,x17
    80002850:	01f007bb          	addw	x15,x0,x31
    80002854:	0274ee33          	rem	x28,x9,x7
    80002858:	02346d3b          	remw	x26,x8,x3
    8000285c:	00bba533          	slt	x10,x23,x11
    80002860:	41248433          	sub	x8,x9,x18
    80002864:	02c845bb          	divw	x11,x16,x12
    80002868:	01aa9313          	slli	x6,x21,0x1a
    8000286c:	407900b3          	sub	x1,x18,x7
    80002870:	414652b3          	sra	x5,x12,x20
    80002874:	0148a833          	slt	x16,x17,x20
    80002878:	4010009b          	addiw	x1,x0,1025
    8000287c:	01509093          	slli	x1,x1,0x15
    80002880:	3370ac23          	sw	x23,824(x1)
    80002884:	3380ab83          	lw	x23,824(x1)
    80002888:	3380e783          	lwu	x15,824(x1)
    8000288c:	40818d33          	sub	x26,x3,x8
    80002890:	02498033          	mul	x0,x19,x4
    80002894:	038181b3          	mul	x3,x3,x24
    80002898:	007c5fbb          	srlw	x31,x24,x7
    8000289c:	0310a333          	mulhsu	x6,x1,x17
    800028a0:	026b0333          	mul	x6,x22,x6
    800028a4:	4045813b          	subw	x2,x11,x4
    800028a8:	02bebcb3          	mulhu	x25,x29,x11
    800028ac:	03c6b6b3          	mulhu	x13,x13,x28
    800028b0:	4010003b          	subw	x0,x0,x1
    800028b4:	00b10433          	add	x8,x2,x11
    800028b8:	03e1f73b          	remuw	x14,x3,x30
    800028bc:	034ab7b3          	mulhu	x15,x21,x20
    800028c0:	01c0f333          	and	x6,x1,x28
    800028c4:	028683bb          	mulw	x7,x13,x8
    800028c8:	0363b333          	mulhu	x6,x7,x22
    800028cc:	022838b3          	mulhu	x17,x16,x2
    800028d0:	029a5ebb          	divuw	x29,x20,x9
    800028d4:	02cd94b3          	mulh	x9,x27,x12
    800028d8:	031f2433          	mulhsu	x8,x30,x17
    800028dc:	0334c0b3          	div	x1,x9,x19
    800028e0:	00f18bbb          	addw	x23,x3,x15
    800028e4:	0200afb3          	mulhsu	x31,x1,x0
    800028e8:	0011e733          	or	x14,x3,x1
    800028ec:	023f61bb          	remw	x3,x30,x3
    800028f0:	013ab433          	sltu	x8,x21,x19
    800028f4:	01c80033          	add	x0,x16,x28
    800028f8:	00285a3b          	srlw	x20,x16,x2
    800028fc:	03cf4abb          	divw	x21,x30,x28
    80002900:	00822333          	slt	x6,x4,x8
    80002904:	03f3f033          	remu	x0,x7,x31
    80002908:	027759bb          	divuw	x19,x14,x7
    8000290c:	02654033          	div	x0,x10,x6
    80002910:	039ed93b          	divuw	x18,x29,x25
    80002914:	5b1f4693          	xori	x13,x30,1457
    80002918:	02f83db3          	mulhu	x27,x16,x15
    8000291c:	009c0cb3          	add	x25,x24,x9
    80002920:	00d267b3          	or	x15,x4,x13
    80002924:	0053f5b3          	and	x11,x7,x5
    80002928:	005fd233          	srl	x4,x31,x5
    8000292c:	01636733          	or	x14,x6,x22
    80002930:	01099d33          	sll	x26,x19,x16
    80002934:	0143da3b          	srlw	x20,x7,x20
    80002938:	00b2963b          	sllw	x12,x5,x11
    8000293c:	024a2133          	mulhsu	x2,x20,x4
    80002940:	028ca033          	mulhsu	x0,x25,x8
    80002944:	0376cfbb          	divw	x31,x13,x23
    80002948:	4010009b          	addiw	x1,x0,1025
    8000294c:	01509093          	slli	x1,x1,0x15
    80002950:	9180b023          	sd	x24,-1792(x1)
    80002954:	9000bc03          	ld	x24,-1792(x1)
    80002958:	00f18c33          	add	x24,x3,x15
    8000295c:	032ee83b          	remw	x16,x29,x18
    80002960:	03d3dd33          	divu	x26,x7,x29
    80002964:	414258bb          	sraw	x17,x4,x20
    80002968:	0312c7bb          	divw	x15,x5,x17
    8000296c:	033100b3          	mul	x1,x2,x19
    80002970:	007f993b          	sllw	x18,x31,x7
    80002974:	023a45bb          	divw	x11,x20,x3
    80002978:	03aa86b3          	mul	x13,x21,x26
    8000297c:	03f7e7bb          	remw	x15,x15,x31
    80002980:	02fa15b3          	mulh	x11,x20,x15
    80002984:	0211eab3          	rem	x21,x3,x1
    80002988:	032d8fbb          	mulw	x31,x27,x18
    8000298c:	402dd293          	srai	x5,x27,0x2
    80002990:	00e030b3          	sltu	x1,x0,x14
    80002994:	01af8833          	add	x16,x31,x26
    80002998:	01b88fb3          	add	x31,x17,x27
    8000299c:	02dd0cb3          	mul	x25,x26,x13
    800029a0:	4165db33          	sra	x22,x11,x22
    800029a4:	009b60b3          	or	x1,x22,x9
    800029a8:	03dc093b          	mulw	x18,x24,x29
    800029ac:	001d03b3          	add	x7,x26,x1
    800029b0:	41aad9b3          	sra	x19,x21,x26
    800029b4:	0314f9b3          	remu	x19,x9,x17
    800029b8:	4001073b          	subw	x14,x2,x0
    800029bc:	03c4ab33          	mulhsu	x22,x9,x28
    800029c0:	0394a6b3          	mulhsu	x13,x9,x25
    800029c4:	03a77033          	remu	x0,x14,x26
    800029c8:	41fad79b          	sraiw	x15,x21,0x1f
    800029cc:	03e82533          	mulhsu	x10,x16,x30
    800029d0:	008b1db3          	sll	x27,x22,x8
    800029d4:	035a4ebb          	divw	x29,x20,x21
    800029d8:	0324843b          	mulw	x8,x9,x18
    800029dc:	00d6153b          	sllw	x10,x12,x13
    800029e0:	020104bb          	mulw	x9,x2,x0
    800029e4:	038000bb          	mulw	x1,x0,x24
    800029e8:	025e47bb          	divw	x15,x28,x5
    800029ec:	bd168e37          	lui	x28,0xbd168
    800029f0:	030e9933          	mulh	x18,x29,x16
    800029f4:	01ea02b3          	add	x5,x20,x30
    800029f8:	0273cfbb          	divw	x31,x7,x7
    800029fc:	006483b3          	add	x7,x9,x6
    80002a00:	0082e3b3          	or	x7,x5,x8
    80002a04:	02bfa9b3          	mulhsu	x19,x31,x11
    80002a08:	001635b3          	sltu	x11,x12,x1
    80002a0c:	036ee633          	rem	x12,x29,x22
    80002a10:	40c15bbb          	sraw	x23,x2,x12
    80002a14:	02750f3b          	mulw	x30,x10,x7
    80002a18:	00d38033          	add	x0,x7,x13
    80002a1c:	012b84b3          	add	x9,x23,x18
    80002a20:	00d76a33          	or	x20,x14,x13
    80002a24:	02eb5cbb          	divuw	x25,x22,x14
    80002a28:	03c964bb          	remw	x9,x18,x28
    80002a2c:	03770e3b          	mulw	x28,x14,x23
    80002a30:	0384c03b          	divw	x0,x9,x24
    80002a34:	40595f33          	sra	x30,x18,x5
    80002a38:	0235fb3b          	remuw	x22,x11,x3
    80002a3c:	4017d433          	sra	x8,x15,x1
    80002a40:	02fd8433          	mul	x8,x27,x15
    80002a44:	01e1b4b3          	sltu	x9,x3,x30
    80002a48:	03b4bcb3          	mulhu	x25,x9,x27
    80002a4c:	00860233          	add	x4,x12,x8
    80002a50:	03c8fab3          	remu	x21,x17,x28
    80002a54:	0116dab3          	srl	x21,x13,x17
    80002a58:	41df0cb3          	sub	x25,x30,x29
    80002a5c:	027f4233          	div	x4,x30,x7
    80002a60:	037de7bb          	remw	x15,x27,x23
    80002a64:	027168b3          	rem	x17,x2,x7
    80002a68:	024195b3          	mulh	x11,x3,x4
    80002a6c:	026faf33          	mulhsu	x30,x31,x6
    80002a70:	005e5633          	srl	x12,x28,x5
    80002a74:	03e4df33          	divu	x30,x9,x30
    80002a78:	03045e3b          	divuw	x28,x8,x16
    80002a7c:	02227633          	remu	x12,x4,x2
    80002a80:	00ff18b3          	sll	x17,x30,x15
    80002a84:	038bc633          	div	x12,x23,x24
    80002a88:	02e2643b          	remw	x8,x4,x14
    80002a8c:	009916b3          	sll	x13,x18,x9
    80002a90:	4174d333          	sra	x6,x9,x23
    80002a94:	018be6b3          	or	x13,x23,x24
    80002a98:	0024983b          	sllw	x16,x9,x2
    80002a9c:	00aa3f33          	sltu	x30,x20,x10
    80002aa0:	02c1f23b          	remuw	x4,x3,x12
    80002aa4:	f7e09c97          	auipc	x25,0xf7e09
    80002aa8:	02f372bb          	remuw	x5,x6,x15
    80002aac:	01d656bb          	srlw	x13,x12,x29
    80002ab0:	4010009b          	addiw	x1,x0,1025
    80002ab4:	01509093          	slli	x1,x1,0x15
    80002ab8:	86b09323          	sh	x11,-1946(x1)
    80002abc:	86609583          	lh	x11,-1946(x1)
    80002ac0:	8660dc03          	lhu	x24,-1946(x1)
    80002ac4:	01bb01bb          	addw	x3,x22,x27
    80002ac8:	01ad503b          	srlw	x0,x26,x26
    80002acc:	037deabb          	remw	x21,x27,x23
    80002ad0:	0273fab3          	remu	x21,x7,x7
    80002ad4:	0077d2bb          	srlw	x5,x15,x7
    80002ad8:	01d638b3          	sltu	x17,x12,x29
    80002adc:	013f3033          	sltu	x0,x30,x19
    80002ae0:	0333733b          	remuw	x6,x6,x19
    80002ae4:	012a37b3          	sltu	x15,x20,x18
    80002ae8:	03ee7333          	remu	x6,x28,x30
    80002aec:	03836d3b          	remw	x26,x6,x24
    80002af0:	414e07b3          	sub	x15,x28,x20
    80002af4:	00109f3b          	sllw	x30,x1,x1
    80002af8:	00faabb3          	slt	x23,x21,x15
    80002afc:	02388033          	mul	x0,x17,x3
    80002b00:	dcc0a2b7          	lui	x5,0xdcc0a
    80002b04:	039aed3b          	remw	x26,x21,x25
    80002b08:	01b8b2b3          	sltu	x5,x17,x27
    80002b0c:	010575b3          	and	x11,x10,x16
    80002b10:	02b9ccbb          	divw	x25,x19,x11
    80002b14:	41d4563b          	sraw	x12,x8,x29
    80002b18:	00322933          	slt	x18,x4,x3
    80002b1c:	02b0c733          	div	x14,x1,x11
    80002b20:	0367ee33          	rem	x28,x15,x22
    80002b24:	00936933          	or	x18,x6,x9
    80002b28:	02af803b          	mulw	x0,x31,x10
    80002b2c:	00b7a533          	slt	x10,x15,x11
    80002b30:	03d7b433          	mulhu	x8,x15,x29
    80002b34:	03525fbb          	divuw	x31,x4,x21
    80002b38:	41d0d3bb          	sraw	x7,x1,x29
    80002b3c:	01025693          	srli	x13,x4,0x10
    80002b40:	03a5d0bb          	divuw	x1,x11,x26
    80002b44:	02f1cab3          	div	x21,x3,x15
    80002b48:	032579bb          	remuw	x19,x10,x18
    80002b4c:	035090b3          	mulh	x1,x1,x21
    80002b50:	40ea8633          	sub	x12,x21,x14
    80002b54:	025228b3          	mulhsu	x17,x4,x5
    80002b58:	028b1533          	mulh	x10,x22,x8
    80002b5c:	45598a17          	auipc	x20,0x45598
    80002b60:	03335a3b          	divuw	x20,x6,x19
    80002b64:	03709fb3          	mulh	x31,x1,x23
    80002b68:	017ce8b3          	or	x17,x25,x23
    80002b6c:	02937533          	remu	x10,x6,x9
    80002b70:	035bc0bb          	divw	x1,x23,x21
    80002b74:	02e5eab3          	rem	x21,x11,x14
    80002b78:	407250b3          	sra	x1,x4,x7
    80002b7c:	025fa733          	mulhsu	x14,x31,x5
    80002b80:	00bca033          	slt	x0,x25,x11
    80002b84:	41365ab3          	sra	x21,x12,x19
    80002b88:	03ea52b3          	divu	x5,x20,x30
    80002b8c:	01ec3233          	sltu	x4,x24,x30
    80002b90:	0034bc33          	sltu	x24,x9,x3
    80002b94:	020cf433          	remu	x8,x25,x0
    80002b98:	02d1b2b3          	mulhu	x5,x3,x13
    80002b9c:	02c55bbb          	divuw	x23,x10,x12
    80002ba0:	b0ee7b97          	auipc	x23,0xb0ee7
    80002ba4:	01cfcdb3          	xor	x27,x31,x28
    80002ba8:	01bc943b          	sllw	x8,x25,x27
    80002bac:	00d93133          	sltu	x2,x18,x13
    80002bb0:	015b99b3          	sll	x19,x23,x21
    80002bb4:	004d78b3          	and	x17,x26,x4
    80002bb8:	00280e3b          	addw	x28,x16,x2
    80002bbc:	00018eb3          	add	x29,x3,x0
    80002bc0:	41040833          	sub	x16,x8,x16
    80002bc4:	01cc3a33          	sltu	x20,x24,x28
    80002bc8:	0039a4b3          	slt	x9,x19,x3
    80002bcc:	0151583b          	srlw	x16,x2,x21
    80002bd0:	027e52bb          	divuw	x5,x28,x7
    80002bd4:	0244b6b3          	mulhu	x13,x9,x4
    80002bd8:	024178bb          	remuw	x17,x2,x4
    80002bdc:	a9244313          	xori	x6,x8,-1390
    80002be0:	40600f33          	sub	x30,x0,x6
    80002be4:	0392de3b          	divuw	x28,x5,x25
    80002be8:	034ee133          	rem	x2,x29,x20
    80002bec:	03eb91b3          	mulh	x3,x23,x30
    80002bf0:	0332c6b3          	div	x13,x5,x19
    80002bf4:	01fad2b3          	srl	x5,x21,x31
    80002bf8:	0191073b          	addw	x14,x2,x25
    80002bfc:	40575633          	sra	x12,x14,x5
    80002c00:	409404bb          	subw	x9,x8,x9
    80002c04:	03bc56bb          	divuw	x13,x24,x27
    80002c08:	008fa1b3          	slt	x3,x31,x8
    80002c0c:	0142533b          	srlw	x6,x4,x20
    80002c10:	0223473b          	divw	x14,x6,x2
    80002c14:	00135b3b          	srlw	x22,x6,x1
    80002c18:	3d8b0813          	addi	x16,x22,984 # ffffffffaf22d3d8 <_start+0xffffffff2f22d3d8>
    80002c1c:	01376233          	or	x4,x14,x19
    80002c20:	028cd1b3          	divu	x3,x25,x8
    80002c24:	02e3f1b3          	remu	x3,x7,x14
    80002c28:	004e71b3          	and	x3,x28,x4
    80002c2c:	41a1da33          	sra	x20,x3,x26
    80002c30:	03b82c33          	mulhsu	x24,x16,x27
    80002c34:	034b2bb3          	mulhsu	x23,x22,x20
    80002c38:	03b4d6bb          	divuw	x13,x9,x27
    80002c3c:	403adfbb          	sraw	x31,x21,x3
    80002c40:	017e71b3          	and	x3,x28,x23
    80002c44:	414987bb          	subw	x15,x19,x20
    80002c48:	01497fb3          	and	x31,x18,x20
    80002c4c:	008133b3          	sltu	x7,x2,x8
    80002c50:	021184bb          	mulw	x9,x3,x1
    80002c54:	03c17333          	remu	x6,x2,x28
    80002c58:	018888b3          	add	x17,x17,x24
    80002c5c:	0258bc33          	mulhu	x24,x17,x5
    80002c60:	00f54eb3          	xor	x29,x10,x15
    80002c64:	027edfbb          	divuw	x31,x29,x7
    80002c68:	01665c33          	srl	x24,x12,x22
    80002c6c:	41160f33          	sub	x30,x12,x17
    80002c70:	41228833          	sub	x16,x5,x18
    80002c74:	02034cbb          	divw	x25,x6,x0
    80002c78:	50b34cb7          	lui	x25,0x50b34
    80002c7c:	41e2813b          	subw	x2,x5,x30
    80002c80:	402958b3          	sra	x17,x18,x2
    80002c84:	40a652b3          	sra	x5,x12,x10
    80002c88:	02430fb3          	mul	x31,x6,x4
    80002c8c:	01356533          	or	x10,x10,x19
    80002c90:	027cc133          	div	x2,x25,x7
    80002c94:	016b75b3          	and	x11,x22,x22
    80002c98:	00ce8533          	add	x10,x29,x12
    80002c9c:	029575b3          	remu	x11,x10,x9
    80002ca0:	6b72c213          	xori	x4,x5,1719
    80002ca4:	03829333          	mulh	x6,x5,x24
    80002ca8:	02c485bb          	mulw	x11,x9,x12
    80002cac:	03d026b3          	mulhsu	x13,x0,x29
    80002cb0:	025c6b3b          	remw	x22,x24,x5
    80002cb4:	025a51bb          	divuw	x3,x20,x5
    80002cb8:	02b85b33          	divu	x22,x16,x11
    80002cbc:	41b78db3          	sub	x27,x15,x27
    80002cc0:	00f535b3          	sltu	x11,x10,x15
    80002cc4:	c4ce4613          	xori	x12,x28,-948
    80002cc8:	00709d3b          	sllw	x26,x1,x7
    80002ccc:	02189833          	mulh	x16,x17,x1
    80002cd0:	00601e33          	sll	x28,x0,x6
    80002cd4:	0222b6b3          	mulhu	x13,x5,x2
    80002cd8:	41d10733          	sub	x14,x2,x29
    80002cdc:	4113583b          	sraw	x16,x6,x17
    80002ce0:	40015c33          	sra	x24,x2,x0
    80002ce4:	031eafb3          	mulhsu	x31,x29,x17
    80002ce8:	0139f2b3          	and	x5,x19,x19
    80002cec:	41365fbb          	sraw	x31,x12,x19
    80002cf0:	02e3cbb3          	div	x23,x7,x14
    80002cf4:	0118d93b          	srlw	x18,x17,x17
    80002cf8:	02c9e03b          	remw	x0,x19,x12
    80002cfc:	02e60833          	mul	x16,x12,x14
    80002d00:	025129b3          	mulhsu	x19,x2,x5
    80002d04:	00cd2bb3          	slt	x23,x26,x12
    80002d08:	0116043b          	addw	x8,x12,x17
    80002d0c:	02cdcfbb          	divw	x31,x27,x12
    80002d10:	020a5a3b          	divuw	x20,x20,x0
    80002d14:	03e7c933          	div	x18,x15,x30
    80002d18:	00bb873b          	addw	x14,x23,x11
    80002d1c:	03ac2ab3          	mulhsu	x21,x24,x26
    80002d20:	4042d0b3          	sra	x1,x5,x4
    80002d24:	412f8f3b          	subw	x30,x31,x18
    80002d28:	01d6d23b          	srlw	x4,x13,x29
    80002d2c:	011a6bb3          	or	x23,x20,x17
    80002d30:	01d61a3b          	sllw	x20,x12,x29
    80002d34:	40ee86bb          	subw	x13,x29,x14
    80002d38:	02e2adb3          	mulhsu	x27,x5,x14
    80002d3c:	011ac7b3          	xor	x15,x21,x17
    80002d40:	02b0e433          	rem	x8,x1,x11
    80002d44:	41db07b3          	sub	x15,x22,x29
    80002d48:	01e9b5b3          	sltu	x11,x19,x30
    80002d4c:	02a9f63b          	remuw	x12,x19,x10
    80002d50:	01b388bb          	addw	x17,x7,x27
    80002d54:	03a30db3          	mul	x27,x6,x26
    80002d58:	00118cbb          	addw	x25,x3,x1
    80002d5c:	01d9d5b3          	srl	x11,x19,x29
    80002d60:	005cdd33          	srl	x26,x25,x5
    80002d64:	0333f7b3          	remu	x15,x7,x19
    80002d68:	03200fb3          	mul	x31,x0,x18
    80002d6c:	03948333          	mul	x6,x9,x25
    80002d70:	019baf33          	slt	x30,x23,x25
    80002d74:	41700133          	sub	x2,x0,x23
    80002d78:	030008bb          	mulw	x17,x0,x16
    80002d7c:	01b2503b          	srlw	x0,x4,x27
    80002d80:	407987bb          	subw	x15,x19,x7
    80002d84:	00eb11bb          	sllw	x3,x22,x14
    80002d88:	008a0eb3          	add	x29,x20,x8
    80002d8c:	0009143b          	sllw	x8,x18,x0
    80002d90:	0275ceb3          	div	x29,x11,x7
    80002d94:	033f74b3          	remu	x9,x30,x19
    80002d98:	434dd793          	srai	x15,x27,0x34
    80002d9c:	404b0c33          	sub	x24,x22,x4
    80002da0:	41948b3b          	subw	x22,x9,x25
    80002da4:	030ed0bb          	divuw	x1,x29,x16
    80002da8:	00359933          	sll	x18,x11,x3
    80002dac:	02eab533          	mulhu	x10,x21,x14
    80002db0:	403ad4bb          	sraw	x9,x21,x3
    80002db4:	02cd84bb          	mulw	x9,x27,x12
    80002db8:	014bd63b          	srlw	x12,x23,x20
    80002dbc:	03b7bcb3          	mulhu	x25,x15,x27
    80002dc0:	019375b3          	and	x11,x6,x25
    80002dc4:	024d503b          	divuw	x0,x26,x4
    80002dc8:	01d295b3          	sll	x11,x5,x29
    80002dcc:	026aeb33          	rem	x22,x21,x6
    80002dd0:	022e1e33          	mulh	x28,x28,x2
    80002dd4:	4010009b          	addiw	x1,x0,1025
    80002dd8:	01509093          	slli	x1,x1,0x15
    80002ddc:	40409b23          	sh	x4,1046(x1)
    80002de0:	41609203          	lh	x4,1046(x1)
    80002de4:	4160d883          	lhu	x17,1046(x1)
    80002de8:	0314d93b          	divuw	x18,x9,x17
    80002dec:	036c7e3b          	remuw	x28,x24,x22
    80002df0:	404cd533          	sra	x10,x25,x4
    80002df4:	024f4a3b          	divw	x20,x30,x4
    80002df8:	011b2233          	slt	x4,x22,x17
    80002dfc:	41820d3b          	subw	x26,x4,x24
    80002e00:	4010009b          	addiw	x1,x0,1025
    80002e04:	01509093          	slli	x1,x1,0x15
    80002e08:	d5409323          	sh	x20,-698(x1)
    80002e0c:	d4609a03          	lh	x20,-698(x1)
    80002e10:	d460d183          	lhu	x3,-698(x1)
    80002e14:	022c82bb          	mulw	x5,x25,x2
    80002e18:	0322b533          	mulhu	x10,x5,x18
    80002e1c:	40a3503b          	sraw	x0,x6,x10
    80002e20:	4010009b          	addiw	x1,x0,1025
    80002e24:	01509093          	slli	x1,x1,0x15
    80002e28:	b1309b23          	sh	x19,-1258(x1)
    80002e2c:	b1609983          	lh	x19,-1258(x1)
    80002e30:	b160da03          	lhu	x20,-1258(x1)
    80002e34:	00278b3b          	addw	x22,x15,x2
    80002e38:	02736c33          	rem	x24,x6,x7
    80002e3c:	03d19333          	mulh	x6,x3,x29
    80002e40:	0028adb3          	slt	x27,x17,x2
    80002e44:	013e1693          	slli	x13,x28,0x13
    80002e48:	03395a33          	divu	x20,x18,x19
    80002e4c:	01b34733          	xor	x14,x6,x27
    80002e50:	0158eab3          	or	x21,x17,x21
    80002e54:	034aa833          	mulhsu	x16,x21,x20
    80002e58:	0314c433          	div	x8,x9,x17
    80002e5c:	01d35a3b          	srlw	x20,x6,x29
    80002e60:	03f64bbb          	divw	x23,x12,x31
    80002e64:	03fae533          	rem	x10,x21,x31
    80002e68:	0147c5b3          	xor	x11,x15,x20
    80002e6c:	4010009b          	addiw	x1,x0,1025
    80002e70:	01509093          	slli	x1,x1,0x15
    80002e74:	b2709823          	sh	x7,-1232(x1)
    80002e78:	b3009383          	lh	x7,-1232(x1)
    80002e7c:	b300d003          	lhu	x0,-1232(x1)
    80002e80:	021f0a3b          	mulw	x20,x30,x1
    80002e84:	027ff533          	remu	x10,x31,x7
    80002e88:	02e8a233          	mulhsu	x4,x17,x14
    80002e8c:	0245f133          	remu	x2,x11,x4
    80002e90:	0083053b          	addw	x10,x6,x8
    80002e94:	013960b3          	or	x1,x18,x19
    80002e98:	414403bb          	subw	x7,x8,x20
    80002e9c:	00a26d33          	or	x26,x4,x10
    80002ea0:	0297b233          	mulhu	x4,x15,x9
    80002ea4:	02165b3b          	divuw	x22,x12,x1
    80002ea8:	01dfb933          	sltu	x18,x31,x29
    80002eac:	007442b3          	xor	x5,x8,x7
    80002eb0:	03a293b3          	mulh	x7,x5,x26
    80002eb4:	038f7b3b          	remuw	x22,x30,x24
    80002eb8:	03ccf133          	remu	x2,x25,x28
    80002ebc:	022b8eb3          	mul	x29,x23,x2
    80002ec0:	018508b3          	add	x17,x10,x24
    80002ec4:	01191333          	sll	x6,x18,x17
    80002ec8:	41eedb33          	sra	x22,x29,x30
    80002ecc:	00490dbb          	addw	x27,x18,x4
    80002ed0:	0098f3b3          	and	x7,x17,x9
    80002ed4:	01c78abb          	addw	x21,x15,x28
    80002ed8:	001ae933          	or	x18,x21,x1
    80002edc:	003adf1b          	srliw	x30,x21,0x3
    80002ee0:	0031103b          	sllw	x0,x2,x3
    80002ee4:	023a893b          	mulw	x18,x21,x3
    80002ee8:	41878a33          	sub	x20,x15,x24
    80002eec:	024891b3          	mulh	x3,x17,x4
    80002ef0:	02fe9233          	mulh	x4,x29,x15
    80002ef4:	0078dcbb          	srlw	x25,x17,x7
    80002ef8:	40fe5bbb          	sraw	x23,x28,x15
    80002efc:	017ed83b          	srlw	x16,x29,x23
    80002f00:	01102f33          	slt	x30,x0,x17
    80002f04:	01a48a3b          	addw	x20,x9,x26
    80002f08:	01afce33          	xor	x28,x31,x26
    80002f0c:	0206f8b3          	remu	x17,x13,x0
    80002f10:	0289e53b          	remw	x10,x19,x8
    80002f14:	02db2f33          	mulhsu	x30,x22,x13
    80002f18:	000f0433          	add	x8,x30,x0
    80002f1c:	4010009b          	addiw	x1,x0,1025
    80002f20:	01509093          	slli	x1,x1,0x15
    80002f24:	5c209d23          	sh	x2,1498(x1)
    80002f28:	5da09103          	lh	x2,1498(x1)
    80002f2c:	5da0d203          	lhu	x4,1498(x1)
    80002f30:	01425c33          	srl	x24,x4,x20
    80002f34:	03bd5133          	divu	x2,x26,x27
    80002f38:	0290d6b3          	divu	x13,x1,x9
    80002f3c:	0150a8b3          	slt	x17,x1,x21
    80002f40:	03fa97b3          	mulh	x15,x21,x31
    80002f44:	02d9a133          	mulhsu	x2,x19,x13
    80002f48:	0330a433          	mulhsu	x8,x1,x19
    80002f4c:	004dde3b          	srlw	x28,x27,x4
    80002f50:	01267233          	and	x4,x12,x18
    80002f54:	03c44833          	div	x16,x8,x28
    80002f58:	020dd233          	divu	x4,x27,x0
    80002f5c:	4010009b          	addiw	x1,x0,1025
    80002f60:	01509093          	slli	x1,x1,0x15
    80002f64:	e140ac23          	sw	x20,-488(x1)
    80002f68:	e180aa03          	lw	x20,-488(x1)
    80002f6c:	e180ef83          	lwu	x31,-488(x1)
    80002f70:	01cc1cb3          	sll	x25,x24,x28
    80002f74:	03c0083b          	mulw	x16,x0,x28
    80002f78:	413bd7bb          	sraw	x15,x23,x19
    80002f7c:	022182bb          	mulw	x5,x3,x2
    80002f80:	41fd0633          	sub	x12,x26,x31
    80002f84:	0299f033          	remu	x0,x19,x9
    80002f88:	035372b3          	remu	x5,x6,x21
    80002f8c:	40d25233          	sra	x4,x4,x13
    80002f90:	00097133          	and	x2,x18,x0
    80002f94:	00bd50bb          	srlw	x1,x26,x11
    80002f98:	40630bb3          	sub	x23,x6,x6
    80002f9c:	02900ab3          	mul	x21,x0,x9
    80002fa0:	02782bb3          	mulhsu	x23,x16,x7
    80002fa4:	4010009b          	addiw	x1,x0,1025
    80002fa8:	01509093          	slli	x1,x1,0x15
    80002fac:	a700bc23          	sd	x16,-1416(x1)
    80002fb0:	a780b803          	ld	x16,-1416(x1)
    80002fb4:	0373c93b          	divw	x18,x7,x23
    80002fb8:	4010009b          	addiw	x1,x0,1025
    80002fbc:	01509093          	slli	x1,x1,0x15
    80002fc0:	d7b083a3          	sb	x27,-665(x1)
    80002fc4:	d6708d83          	lb	x27,-665(x1)
    80002fc8:	d670c003          	lbu	x0,-665(x1)
    80002fcc:	03eefab3          	remu	x21,x29,x30
    80002fd0:	0174013b          	addw	x2,x8,x23
    80002fd4:	406589bb          	subw	x19,x11,x6
    80002fd8:	029fb4b3          	mulhu	x9,x31,x9
    80002fdc:	00bd1eb3          	sll	x29,x26,x11
    80002fe0:	02564cbb          	divw	x25,x12,x5
    80002fe4:	0380c5b3          	div	x11,x1,x24
    80002fe8:	00055f33          	srl	x30,x10,x0
    80002fec:	401d00bb          	subw	x1,x26,x1
    80002ff0:	72bc4193          	xori	x3,x24,1835
    80002ff4:	402f83b3          	sub	x7,x31,x2
    80002ff8:	02299eb3          	mulh	x29,x19,x2
    80002ffc:	4188dc33          	sra	x24,x17,x24
    80003000:	03a907b3          	mul	x15,x18,x26
    80003004:	003062b3          	or	x5,x0,x3
    80003008:	02f3c9b3          	div	x19,x7,x15
    8000300c:	00d9123b          	sllw	x4,x18,x13
    80003010:	01e5d0bb          	srlw	x1,x11,x30
    80003014:	014cdab3          	srl	x21,x25,x20
    80003018:	02359ab3          	mulh	x21,x11,x3
    8000301c:	02930933          	mul	x18,x6,x9
    80003020:	00a05433          	srl	x8,x0,x10
    80003024:	419c08b3          	sub	x17,x24,x25
    80003028:	02af79b3          	remu	x19,x30,x10
    8000302c:	02d77f3b          	remuw	x30,x14,x13
    80003030:	00ebe033          	or	x0,x23,x14
    80003034:	0228c5b3          	div	x11,x17,x2
    80003038:	01ebfd33          	and	x26,x23,x30
    8000303c:	418905bb          	subw	x11,x18,x24
    80003040:	0355ee3b          	remw	x28,x11,x21
    80003044:	03c05bbb          	divuw	x23,x0,x28
    80003048:	0258fb33          	remu	x22,x17,x5
    8000304c:	03134b33          	div	x22,x6,x17
    80003050:	01d115bb          	sllw	x11,x2,x29
    80003054:	02a67c3b          	remuw	x24,x12,x10
    80003058:	02fee53b          	remw	x10,x29,x15
    8000305c:	02c67b3b          	remuw	x22,x12,x12
    80003060:	40f200b3          	sub	x1,x4,x15
    80003064:	40505cbb          	sraw	x25,x0,x5
    80003068:	008a78b3          	and	x17,x20,x8
    8000306c:	00e0033b          	addw	x6,x0,x14
    80003070:	01153d33          	sltu	x26,x10,x17
    80003074:	01f136b3          	sltu	x13,x2,x31
    80003078:	03c3bb33          	mulhu	x22,x7,x28
    8000307c:	03374bbb          	divw	x23,x14,x19
    80003080:	00e67033          	and	x0,x12,x14
    80003084:	0060fb33          	and	x22,x1,x6
    80003088:	038a3133          	mulhu	x2,x20,x24
    8000308c:	4010009b          	addiw	x1,x0,1025
    80003090:	01509093          	slli	x1,x1,0x15
    80003094:	a1d0b423          	sd	x29,-1528(x1)
    80003098:	a080be83          	ld	x29,-1528(x1)
    8000309c:	0020e3b3          	or	x7,x1,x2
    800030a0:	02fff8bb          	remuw	x17,x31,x15
    800030a4:	018f6db3          	or	x27,x30,x24
    800030a8:	03093d33          	mulhu	x26,x18,x16
    800030ac:	03496733          	rem	x14,x18,x20
    800030b0:	412d53bb          	sraw	x7,x26,x18
    800030b4:	400b87b3          	sub	x15,x23,x0
    800030b8:	41080bbb          	subw	x23,x16,x16
    800030bc:	01f1db9b          	srliw	x23,x3,0x1f
    800030c0:	026240bb          	divw	x1,x4,x6
    800030c4:	016c81b3          	add	x3,x25,x22
    800030c8:	015f2033          	slt	x0,x30,x21
    800030cc:	d52dc237          	lui	x4,0xd52dc
    800030d0:	03c555b3          	divu	x11,x10,x28
    800030d4:	036f1233          	mulh	x4,x30,x22
    800030d8:	03ea2f33          	mulhsu	x30,x20,x30
    800030dc:	037ba133          	mulhsu	x2,x23,x23
    800030e0:	026ca4b3          	mulhsu	x9,x25,x6
    800030e4:	014e983b          	sllw	x16,x29,x20
    800030e8:	02d80333          	mul	x6,x16,x13
    800030ec:	015161b3          	or	x3,x2,x21
    800030f0:	0353b7b3          	mulhu	x15,x7,x21
    800030f4:	0201bcb3          	mulhu	x25,x3,x0
    800030f8:	10047c37          	lui	x24,0x10047
    800030fc:	00d087bb          	addw	x15,x1,x13
    80003100:	413a8a33          	sub	x20,x21,x19
    80003104:	01a780bb          	addw	x1,x15,x26
    80003108:	02d6c93b          	divw	x18,x13,x13
    8000310c:	024f59bb          	divuw	x19,x30,x4
    80003110:	02ebe7bb          	remw	x15,x23,x14
    80003114:	2595a093          	slti	x1,x11,601
    80003118:	03f5a4b3          	mulhsu	x9,x11,x31
    8000311c:	029b47bb          	divw	x15,x22,x9
    80003120:	41045ab3          	sra	x21,x8,x16
    80003124:	01a2963b          	sllw	x12,x5,x26
    80003128:	4010009b          	addiw	x1,x0,1025
    8000312c:	01509093          	slli	x1,x1,0x15
    80003130:	dfa09f23          	sh	x26,-514(x1)
    80003134:	dfe09d03          	lh	x26,-514(x1)
    80003138:	dfe0d183          	lhu	x3,-514(x1)
    8000313c:	02f106bb          	mulw	x13,x2,x15
    80003140:	402b8b33          	sub	x22,x23,x2
    80003144:	01e078b3          	and	x17,x0,x30
    80003148:	03e0db3b          	divuw	x22,x1,x30
    8000314c:	522b2697          	auipc	x13,0x522b2
    80003150:	0309c5b3          	div	x11,x19,x16
    80003154:	0192debb          	srlw	x29,x5,x25
    80003158:	01475e33          	srl	x28,x14,x20
    8000315c:	012c21b3          	slt	x3,x24,x18
    80003160:	0329e3bb          	remw	x7,x19,x18
    80003164:	016859b3          	srl	x19,x16,x22
    80003168:	03dfd0bb          	divuw	x1,x31,x29
    8000316c:	034556bb          	divuw	x13,x10,x20
    80003170:	02ca9fb3          	mulh	x31,x21,x12
    80003174:	4d2c4e93          	xori	x29,x24,1234
    80003178:	010ae5b3          	or	x11,x21,x16
    8000317c:	01bc4033          	xor	x0,x24,x27
    80003180:	000be133          	or	x2,x23,x0
    80003184:	4010009b          	addiw	x1,x0,1025
    80003188:	01509093          	slli	x1,x1,0x15
    8000318c:	b6709c23          	sh	x7,-1160(x1)
    80003190:	b7809383          	lh	x7,-1160(x1)
    80003194:	b780de83          	lhu	x29,-1160(x1)
    80003198:	01c6d6bb          	srlw	x13,x13,x28
    8000319c:	402885b3          	sub	x11,x17,x2
    800031a0:	412fdabb          	sraw	x21,x31,x18
    800031a4:	037e68bb          	remw	x17,x28,x23
    800031a8:	02517fbb          	remuw	x31,x2,x5
    800031ac:	0242c03b          	divw	x0,x5,x4
    800031b0:	034596b3          	mulh	x13,x11,x20
    800031b4:	4152d79b          	sraiw	x15,x5,0x15
    800031b8:	01cdfb33          	and	x22,x27,x28
    800031bc:	002100b3          	add	x1,x2,x2
    800031c0:	00a52333          	slt	x6,x10,x10
    800031c4:	038c7f33          	remu	x30,x24,x24
    800031c8:	007292b3          	sll	x5,x5,x7
    800031cc:	0368adb3          	mulhsu	x27,x17,x22
    800031d0:	03c71eb3          	mulh	x29,x14,x28
    800031d4:	01a02033          	slt	x0,x0,x26
    800031d8:	02da7ebb          	remuw	x29,x20,x13
    800031dc:	015e42b3          	xor	x5,x28,x21
    800031e0:	01bb27b3          	slt	x15,x22,x27
    800031e4:	00a2903b          	sllw	x0,x5,x10
    800031e8:	00a68e3b          	addw	x28,x13,x10
    800031ec:	0078fdb3          	and	x27,x17,x7
    800031f0:	03b08333          	mul	x6,x1,x27
    800031f4:	03ccd7bb          	divuw	x15,x25,x28
    800031f8:	01497cb3          	and	x25,x18,x20
    800031fc:	40c5d7bb          	sraw	x15,x11,x12
    80003200:	01fc01bb          	addw	x3,x24,x31
    80003204:	0398e433          	rem	x8,x17,x25
    80003208:	03ec5833          	divu	x16,x24,x30
    8000320c:	0362e0bb          	remw	x1,x5,x22
    80003210:	40c60db3          	sub	x27,x12,x12
    80003214:	01b1d79b          	srliw	x15,x3,0x1b
    80003218:	02c74c33          	div	x24,x14,x12
    8000321c:	00fb939b          	slliw	x7,x23,0xf
    80003220:	0212793b          	remuw	x18,x4,x1
    80003224:	000cd09b          	srliw	x1,x25,0x0
    80003228:	00979933          	sll	x18,x15,x9
    8000322c:	40e400bb          	subw	x1,x8,x14
    80003230:	01839933          	sll	x18,x7,x24
    80003234:	d01c7693          	andi	x13,x24,-767
    80003238:	011538b3          	sltu	x17,x10,x17
    8000323c:	01c259b3          	srl	x19,x4,x28
    80003240:	00a4de9b          	srliw	x29,x9,0xa
    80003244:	0225aeb3          	mulhsu	x29,x11,x2
    80003248:	0315f933          	remu	x18,x11,x17
    8000324c:	026fdb3b          	divuw	x22,x31,x6
    80003250:	02c9e9b3          	rem	x19,x19,x12
    80003254:	411b0133          	sub	x2,x22,x17
    80003258:	0213863b          	mulw	x12,x7,x1
    8000325c:	01ffe233          	or	x4,x31,x31
    80003260:	0079b433          	sltu	x8,x19,x7
    80003264:	02f5023b          	mulw	x4,x10,x15
    80003268:	036467bb          	remw	x15,x8,x22
    8000326c:	f82d2717          	auipc	x14,0xf82d2
    80003270:	02d50fbb          	mulw	x31,x10,x13
    80003274:	ffb18793          	addi	x15,x3,-5
    80003278:	02cec93b          	divw	x18,x29,x12
    8000327c:	41cc59b3          	sra	x19,x24,x28
    80003280:	400cd713          	srai	x14,x25,0x0
    80003284:	02a1c533          	div	x10,x3,x10
    80003288:	03bd023b          	mulw	x4,x26,x27
    8000328c:	00ef823b          	addw	x4,x31,x14
    80003290:	025f4bb3          	div	x23,x30,x5
    80003294:	004e913b          	sllw	x2,x29,x4
    80003298:	01838833          	add	x16,x7,x24
    8000329c:	02610d3b          	mulw	x26,x2,x6
    800032a0:	002ec233          	xor	x4,x29,x2
    800032a4:	410cd1b3          	sra	x3,x25,x16
    800032a8:	000128b3          	slt	x17,x2,x0
    800032ac:	5d30f093          	andi	x1,x1,1491
    800032b0:	414cddbb          	sraw	x27,x25,x20
    800032b4:	012698b3          	sll	x17,x13,x18
    800032b8:	027388b3          	mul	x17,x7,x7
    800032bc:	03435133          	divu	x2,x6,x20
    800032c0:	012e19b3          	sll	x19,x28,x18
    800032c4:	02053633          	mulhu	x12,x10,x0
    800032c8:	018a0fbb          	addw	x31,x20,x24
    800032cc:	03a8f133          	remu	x2,x17,x26
    800032d0:	4161549b          	sraiw	x9,x2,0x16
    800032d4:	02c738b3          	mulhu	x17,x14,x12
    800032d8:	00911b33          	sll	x22,x2,x9
    800032dc:	40f7d437          	lui	x8,0x40f7d
    800032e0:	02bd1d33          	mulh	x26,x26,x11
    800032e4:	00d25d33          	srl	x26,x4,x13
    800032e8:	41ad0533          	sub	x10,x26,x26
    800032ec:	03ef8cbb          	mulw	x25,x31,x30
    800032f0:	03ca403b          	divw	x0,x20,x28
    800032f4:	015e963b          	sllw	x12,x29,x21
    800032f8:	0381f6b3          	remu	x13,x3,x24
    800032fc:	01835a3b          	srlw	x20,x6,x24
    80003300:	4010009b          	addiw	x1,x0,1025
    80003304:	01509093          	slli	x1,x1,0x15
    80003308:	cb9082a3          	sb	x25,-859(x1)
    8000330c:	ca508c83          	lb	x25,-859(x1)
    80003310:	ca50c283          	lbu	x5,-859(x1)
    80003314:	00d14db3          	xor	x27,x2,x13
    80003318:	03db7633          	remu	x12,x22,x29
    8000331c:	03588ab3          	mul	x21,x17,x21
    80003320:	0185a2b3          	slt	x5,x11,x24
    80003324:	00a3013b          	addw	x2,x6,x10
    80003328:	40d450b3          	sra	x1,x8,x13
    8000332c:	012b3b33          	sltu	x22,x22,x18
    80003330:	40b6d3bb          	sraw	x7,x13,x11
    80003334:	022c0bb3          	mul	x23,x24,x2
    80003338:	012b6333          	or	x6,x22,x18
    8000333c:	01873c33          	sltu	x24,x14,x24
    80003340:	0267c0bb          	divw	x1,x15,x6
    80003344:	02c63733          	mulhu	x14,x12,x12
    80003348:	0026b233          	sltu	x4,x13,x2
    8000334c:	40bc8133          	sub	x2,x25,x11
    80003350:	01fcaa33          	slt	x20,x25,x31
    80003354:	03b64f33          	div	x30,x12,x27
    80003358:	00f188b3          	add	x17,x3,x15
    8000335c:	00100b33          	add	x22,x0,x1
    80003360:	0314de3b          	divuw	x28,x9,x17
    80003364:	0119523b          	srlw	x4,x18,x17
    80003368:	02403633          	mulhu	x12,x0,x4
    8000336c:	02346fb3          	rem	x31,x8,x3
    80003370:	038c9593          	slli	x11,x25,0x38
    80003374:	02bc1033          	mulh	x0,x24,x11
    80003378:	4010009b          	addiw	x1,x0,1025
    8000337c:	01509093          	slli	x1,x1,0x15
    80003380:	15c09323          	sh	x28,326(x1)
    80003384:	14609e03          	lh	x28,326(x1)
    80003388:	1460d883          	lhu	x17,326(x1)
    8000338c:	03e38a3b          	mulw	x20,x7,x30
    80003390:	036808b3          	mul	x17,x16,x22
    80003394:	413fdb33          	sra	x22,x31,x19
    80003398:	029f67b3          	rem	x15,x30,x9
    8000339c:	03e593b3          	mulh	x7,x11,x30
    800033a0:	0158d8bb          	srlw	x17,x17,x21
    800033a4:	01efcb33          	xor	x22,x31,x30
    800033a8:	00d5b633          	sltu	x12,x11,x13
    800033ac:	401301bb          	subw	x3,x6,x1
    800033b0:	03be5f33          	divu	x30,x28,x27
    800033b4:	031947bb          	divw	x15,x18,x17
    800033b8:	0199f933          	and	x18,x19,x25
    800033bc:	01d29e3b          	sllw	x28,x5,x29
    800033c0:	036182b3          	mul	x5,x3,x22
    800033c4:	02881bb3          	mulh	x23,x16,x8
    800033c8:	02a80733          	mul	x14,x16,x10
    800033cc:	03ef7ebb          	remuw	x29,x30,x30
    800033d0:	00c056b3          	srl	x13,x0,x12
    800033d4:	03e8c0bb          	divw	x1,x17,x30
    800033d8:	03e4c1bb          	divw	x3,x9,x30
    800033dc:	007a8d3b          	addw	x26,x21,x7
    800033e0:	01303bb3          	sltu	x23,x0,x19
    800033e4:	0102bdb3          	sltu	x27,x5,x16
    800033e8:	40c28933          	sub	x18,x5,x12
    800033ec:	4010009b          	addiw	x1,x0,1025
    800033f0:	01509093          	slli	x1,x1,0x15
    800033f4:	f4e09923          	sh	x14,-174(x1)
    800033f8:	f5209703          	lh	x14,-174(x1)
    800033fc:	f520db03          	lhu	x22,-174(x1)
    80003400:	01911d33          	sll	x26,x2,x25
    80003404:	02342d33          	mulhsu	x26,x8,x3
    80003408:	406350b3          	sra	x1,x6,x6
    8000340c:	40f384bb          	subw	x9,x7,x15
    80003410:	00879d3b          	sllw	x26,x15,x8
    80003414:	006f98b3          	sll	x17,x31,x6
    80003418:	02a57b3b          	remuw	x22,x10,x10
    8000341c:	03caf6bb          	remuw	x13,x21,x28
    80003420:	039a6abb          	remw	x21,x20,x25
    80003424:	021c783b          	remuw	x16,x24,x1
    80003428:	01c38fb3          	add	x31,x7,x28
    8000342c:	459d4217          	auipc	x4,0x459d4
    80003430:	01a9143b          	sllw	x8,x18,x26
    80003434:	02ba753b          	remuw	x10,x20,x11
    80003438:	4052d8bb          	sraw	x17,x5,x5
    8000343c:	03917333          	remu	x6,x2,x25
    80003440:	0176e9b3          	or	x19,x13,x23
    80003444:	0137d633          	srl	x12,x15,x19
    80003448:	03e1ebb3          	rem	x23,x3,x30
    8000344c:	032bdab3          	divu	x21,x23,x18
    80003450:	0350633b          	remw	x6,x0,x21
    80003454:	006f8cbb          	addw	x25,x31,x6
    80003458:	001a9933          	sll	x18,x21,x1
    8000345c:	015187bb          	addw	x15,x3,x21
    80003460:	02b78ab3          	mul	x21,x15,x11
    80003464:	005687bb          	addw	x15,x13,x5
    80003468:	01d1d43b          	srlw	x8,x3,x29
    8000346c:	028c45b3          	div	x11,x24,x8
    80003470:	414ed6bb          	sraw	x13,x29,x20
    80003474:	011207bb          	addw	x15,x4,x17
    80003478:	40335833          	sra	x16,x6,x3
    8000347c:	01e8c233          	xor	x4,x17,x30
    80003480:	039287bb          	mulw	x15,x5,x25
    80003484:	02dec733          	div	x14,x29,x13
    80003488:	4010009b          	addiw	x1,x0,1025
    8000348c:	01509093          	slli	x1,x1,0x15
    80003490:	8ec09e23          	sh	x12,-1796(x1)
    80003494:	8fc09603          	lh	x12,-1796(x1)
    80003498:	8fc0d603          	lhu	x12,-1796(x1)
    8000349c:	032599b3          	mulh	x19,x11,x18
    800034a0:	4177563b          	sraw	x12,x14,x23
    800034a4:	03a59833          	mulh	x16,x11,x26
    800034a8:	012212b3          	sll	x5,x4,x18
    800034ac:	00106ab3          	or	x21,x0,x1
    800034b0:	030901b3          	mul	x3,x18,x16
    800034b4:	41ad81bb          	subw	x3,x27,x26
    800034b8:	005739b3          	sltu	x19,x14,x5
    800034bc:	00eef533          	and	x10,x29,x14
    800034c0:	0203ed33          	rem	x26,x7,x0
    800034c4:	40dad533          	sra	x10,x21,x13
    800034c8:	01e9863b          	addw	x12,x19,x30
    800034cc:	039601b3          	mul	x3,x12,x25
    800034d0:	00114833          	xor	x16,x2,x1
    800034d4:	41fa8f33          	sub	x30,x21,x31
    800034d8:	02500db3          	mul	x27,x0,x5
    800034dc:	01e6d4b3          	srl	x9,x13,x30
    800034e0:	038e403b          	divw	x0,x28,x24
    800034e4:	03867eb3          	remu	x29,x12,x24
    800034e8:	007a813b          	addw	x2,x21,x7
    800034ec:	401502b3          	sub	x5,x10,x1
    800034f0:	03ecd9bb          	divuw	x19,x25,x30
    800034f4:	0152acb3          	slt	x25,x5,x21
    800034f8:	0340ef3b          	remw	x30,x1,x20
    800034fc:	01abafb3          	slt	x31,x23,x26
    80003500:	4010009b          	addiw	x1,x0,1025
    80003504:	01509093          	slli	x1,x1,0x15
    80003508:	48a09523          	sh	x10,1162(x1)
    8000350c:	48a09503          	lh	x10,1162(x1)
    80003510:	48a0d683          	lhu	x13,1162(x1)
    80003514:	025e9533          	mulh	x10,x29,x5
    80003518:	01f01733          	sll	x14,x0,x31
    8000351c:	0045f433          	and	x8,x11,x4
    80003520:	018019b3          	sll	x19,x0,x24
    80003524:	00fc6433          	or	x8,x24,x15
    80003528:	0152c233          	xor	x4,x5,x21
    8000352c:	02a88c3b          	mulw	x24,x17,x10
    80003530:	000098bb          	sllw	x17,x1,x0
    80003534:	03412ab3          	mulhsu	x21,x2,x20
    80003538:	01e66533          	or	x10,x12,x30
    8000353c:	003262b3          	or	x5,x4,x3
    80003540:	40760c3b          	subw	x24,x12,x7
    80003544:	029ca9b3          	mulhsu	x19,x25,x9
    80003548:	038b4b3b          	divw	x22,x22,x24
    8000354c:	01858233          	add	x4,x11,x24
    80003550:	41435fbb          	sraw	x31,x6,x20
    80003554:	41395633          	sra	x12,x18,x19
    80003558:	0219f2bb          	remuw	x5,x19,x1
    8000355c:	40a057b3          	sra	x15,x0,x10
    80003560:	0365cb33          	div	x22,x11,x22
    80003564:	02f1be33          	mulhu	x28,x3,x15
    80003568:	001d02bb          	addw	x5,x26,x1
    8000356c:	0217da33          	divu	x20,x15,x1
    80003570:	01493f33          	sltu	x30,x18,x20
    80003574:	41188633          	sub	x12,x17,x17
    80003578:	02064233          	div	x4,x12,x0
    8000357c:	020b01bb          	mulw	x3,x22,x0
    80003580:	0256dfb3          	divu	x31,x13,x5
    80003584:	02d458b3          	divu	x17,x8,x13
    80003588:	01e8cfb3          	xor	x31,x17,x30
    8000358c:	01d2d13b          	srlw	x2,x5,x29
    80003590:	03cf64bb          	remw	x9,x30,x28
    80003594:	02ecd63b          	divuw	x12,x25,x14
    80003598:	02056abb          	remw	x21,x10,x0
    8000359c:	0122a8b3          	slt	x17,x5,x18
    800035a0:	01e0c8b3          	xor	x17,x1,x30
    800035a4:	02bdbc33          	mulhu	x24,x27,x11
    800035a8:	0326bdb3          	mulhu	x27,x13,x18
    800035ac:	028bfab3          	remu	x21,x23,x8
    800035b0:	0108863b          	addw	x12,x17,x16
    800035b4:	031d6d33          	rem	x26,x26,x17
    800035b8:	407251b3          	sra	x3,x4,x7
    800035bc:	024eefb3          	rem	x31,x29,x4
    800035c0:	025ab633          	mulhu	x12,x21,x5
    800035c4:	017eb2b3          	sltu	x5,x29,x23
    800035c8:	009fd69b          	srliw	x13,x31,0x9
    800035cc:	41de033b          	subw	x6,x28,x29
    800035d0:	032e7733          	remu	x14,x28,x18
    800035d4:	03a27eb3          	remu	x29,x4,x26
    800035d8:	0160e333          	or	x6,x1,x22
    800035dc:	03c1d53b          	divuw	x10,x3,x28
    800035e0:	a6aaad17          	auipc	x26,0xa6aaa
    800035e4:	0328fcb3          	remu	x25,x17,x18
    800035e8:	036f8abb          	mulw	x21,x31,x22
    800035ec:	0258fb3b          	remuw	x22,x17,x5
    800035f0:	0112fe33          	and	x28,x5,x17
    800035f4:	01c1ca33          	xor	x20,x3,x28
    800035f8:	030b773b          	remuw	x14,x22,x16
    800035fc:	034d8333          	mul	x6,x27,x20
    80003600:	03089433          	mulh	x8,x17,x16
    80003604:	03a22833          	mulhsu	x16,x4,x26
    80003608:	003722b3          	slt	x5,x14,x3
    8000360c:	415e8b33          	sub	x22,x29,x21
    80003610:	03bb833b          	mulw	x6,x23,x27
    80003614:	e6238eb7          	lui	x29,0xe6238
    80003618:	028dcb3b          	divw	x22,x27,x8
    8000361c:	0027d13b          	srlw	x2,x15,x2
    80003620:	4010009b          	addiw	x1,x0,1025
    80003624:	01509093          	slli	x1,x1,0x15
    80003628:	e8809e23          	sh	x8,-356(x1)
    8000362c:	e9c09403          	lh	x8,-356(x1)
    80003630:	e9c0d303          	lhu	x6,-356(x1)
    80003634:	02df4633          	div	x12,x30,x13
    80003638:	0267723b          	remuw	x4,x14,x6
    8000363c:	02416e3b          	remw	x28,x2,x4
    80003640:	03b8c83b          	divw	x16,x17,x27
    80003644:	03735cbb          	divuw	x25,x6,x23
    80003648:	412ddeb3          	sra	x29,x27,x18
    8000364c:	022ee13b          	remw	x2,x29,x2
    80003650:	01eaefb3          	or	x31,x21,x30
    80003654:	03d71433          	mulh	x8,x14,x29
    80003658:	00951bb3          	sll	x23,x10,x9
    8000365c:	40e885b3          	sub	x11,x17,x14
    80003660:	00aaf133          	and	x2,x21,x10
    80003664:	037b5633          	divu	x12,x22,x23
    80003668:	00b1b333          	sltu	x6,x3,x11
    8000366c:	034be5bb          	remw	x11,x23,x20
    80003670:	41e4d03b          	sraw	x0,x9,x30
    80003674:	02ad87bb          	mulw	x15,x27,x10
    80003678:	40badcb3          	sra	x25,x21,x11
    8000367c:	00761b33          	sll	x22,x12,x7
    80003680:	410080bb          	subw	x1,x1,x16
    80003684:	00626fb3          	or	x31,x4,x6
    80003688:	4010009b          	addiw	x1,x0,1025
    8000368c:	01509093          	slli	x1,x1,0x15
    80003690:	6bd0a823          	sw	x29,1712(x1)
    80003694:	6b00ae83          	lw	x29,1712(x1)
    80003698:	6b00e503          	lwu	x10,1712(x1)
    8000369c:	02c963bb          	remw	x7,x18,x12
    800036a0:	03b12233          	mulhsu	x4,x2,x27
    800036a4:	00491733          	sll	x14,x18,x4
    800036a8:	01f310b3          	sll	x1,x6,x31
    800036ac:	0130b833          	sltu	x16,x1,x19
    800036b0:	0358853b          	mulw	x10,x17,x21
    800036b4:	016501b3          	add	x3,x10,x22
    800036b8:	030a0c3b          	mulw	x24,x20,x16
    800036bc:	0320803b          	mulw	x0,x1,x18
    800036c0:	03650933          	mul	x18,x10,x22
    800036c4:	007982b3          	add	x5,x19,x7
    800036c8:	02364abb          	divw	x21,x12,x3
    800036cc:	411cdbbb          	sraw	x23,x25,x17
    800036d0:	00a5f333          	and	x6,x11,x10
    800036d4:	01070b33          	add	x22,x14,x16
    800036d8:	40a65533          	sra	x10,x12,x10
    800036dc:	02c3073b          	mulw	x14,x6,x12
    800036e0:	02a68333          	mul	x6,x13,x10
    800036e4:	03a84abb          	divw	x21,x16,x26
    800036e8:	037a8bbb          	mulw	x23,x21,x23
    800036ec:	0193d13b          	srlw	x2,x7,x25
    800036f0:	411c81b3          	sub	x3,x25,x17
    800036f4:	0160173b          	sllw	x14,x0,x22
    800036f8:	02067bb3          	remu	x23,x12,x0
    800036fc:	0242e033          	rem	x0,x5,x4
    80003700:	41fad3bb          	sraw	x7,x21,x31
    80003704:	03da7eb3          	remu	x29,x20,x29
    80003708:	00a7863b          	addw	x12,x15,x10
    8000370c:	000f60b3          	or	x1,x30,x0
    80003710:	03370e3b          	mulw	x28,x14,x19
    80003714:	016afd33          	and	x26,x21,x22
    80003718:	01c8973b          	sllw	x14,x17,x28
    8000371c:	01279533          	sll	x10,x15,x18
    80003720:	4050debb          	sraw	x29,x1,x5
    80003724:	86da3f93          	sltiu	x31,x20,-1939
    80003728:	40238b3b          	subw	x22,x7,x2
    8000372c:	40a384b3          	sub	x9,x7,x10
    80003730:	014973b3          	and	x7,x18,x20
    80003734:	01183733          	sltu	x14,x16,x17
    80003738:	413480bb          	subw	x1,x9,x19
    8000373c:	03591b33          	mulh	x22,x18,x21
    80003740:	40d003bb          	subw	x7,x0,x13
    80003744:	02774ab3          	div	x21,x14,x7
    80003748:	41ff0ebb          	subw	x29,x30,x31
    8000374c:	00725333          	srl	x6,x4,x7
    80003750:	0063fe33          	and	x28,x7,x6
    80003754:	03a6dc33          	divu	x24,x13,x26
    80003758:	00ab04bb          	addw	x9,x22,x10
    8000375c:	408a5333          	sra	x6,x20,x8
    80003760:	012e17b3          	sll	x15,x28,x18
    80003764:	4010009b          	addiw	x1,x0,1025
    80003768:	01509093          	slli	x1,x1,0x15
    8000376c:	3800b823          	sd	x0,912(x1)
    80003770:	3900b003          	ld	x0,912(x1)
    80003774:	039c0433          	mul	x8,x24,x25
    80003778:	01226a33          	or	x20,x4,x18
    8000377c:	cc44a137          	lui	x2,0xcc44a
    80003780:	02f4c5bb          	divw	x11,x9,x15
    80003784:	031d19b3          	mulh	x19,x26,x17
    80003788:	011bfb33          	and	x22,x23,x17
    8000378c:	02fb1db3          	mulh	x27,x22,x15
    80003790:	003c82b3          	add	x5,x25,x3
    80003794:	01ce1f33          	sll	x30,x28,x28
    80003798:	02dbe83b          	remw	x16,x23,x13
    8000379c:	03311c33          	mulh	x24,x2,x19
    800037a0:	03d30c33          	mul	x24,x6,x29
    800037a4:	012d32b3          	sltu	x5,x26,x18
    800037a8:	02ff60bb          	remw	x1,x30,x15
    800037ac:	03c4abb3          	mulhsu	x23,x9,x28
    800037b0:	028a2533          	mulhsu	x10,x20,x8
    800037b4:	402d07b3          	sub	x15,x26,x2
    800037b8:	0217473b          	divw	x14,x14,x1
    800037bc:	03c64cb3          	div	x25,x12,x28
    800037c0:	5208df97          	auipc	x31,0x5208d
    800037c4:	03e407bb          	mulw	x15,x8,x30
    800037c8:	d77a0d1b          	addiw	x26,x20,-649 # ffffffffc559a8d3 <_start+0xffffffff4559a8d3>
    800037cc:	00ffb933          	sltu	x18,x31,x15
    800037d0:	014f13b3          	sll	x7,x30,x20
    800037d4:	00516d33          	or	x26,x2,x5
    800037d8:	00ba893b          	addw	x18,x21,x11
    800037dc:	409d5db3          	sra	x27,x26,x9
    800037e0:	00dd30b3          	sltu	x1,x26,x13
    800037e4:	0010ba33          	sltu	x20,x1,x1
    800037e8:	02e0c1b3          	div	x3,x1,x14
    800037ec:	02a1543b          	divuw	x8,x2,x10
    800037f0:	40970fbb          	subw	x31,x14,x9
    800037f4:	03c2f133          	remu	x2,x5,x28
    800037f8:	03284db3          	div	x27,x16,x18
    800037fc:	03e86abb          	remw	x21,x16,x30
    80003800:	02ff4f3b          	divw	x30,x30,x15
    80003804:	01599733          	sll	x14,x19,x21
    80003808:	00551eb3          	sll	x29,x10,x5
    8000380c:	03c6ff33          	remu	x30,x13,x28
    80003810:	02db9593          	slli	x11,x23,0x2d
    80003814:	02ed1633          	mulh	x12,x26,x14
    80003818:	00009033          	sll	x0,x1,x0
    8000381c:	0103db33          	srl	x22,x7,x16
    80003820:	02a83bb3          	mulhu	x23,x16,x10
    80003824:	0338063b          	mulw	x12,x16,x19
    80003828:	02afdc3b          	divuw	x24,x31,x10
    8000382c:	002165b3          	or	x11,x2,x2
    80003830:	025bf333          	remu	x6,x23,x5
    80003834:	4036d333          	sra	x6,x13,x3
    80003838:	00e24433          	xor	x8,x4,x14
    8000383c:	01652bb3          	slt	x23,x10,x22
    80003840:	00343633          	sltu	x12,x8,x3
    80003844:	00b84933          	xor	x18,x16,x11
    80003848:	016c9d3b          	sllw	x26,x25,x22
    8000384c:	034ae433          	rem	x8,x21,x20
    80003850:	00a719b3          	sll	x19,x14,x10
    80003854:	00a3dcbb          	srlw	x25,x7,x10
    80003858:	026a8133          	mul	x2,x21,x6
    8000385c:	0323bdb3          	mulhu	x27,x7,x18
    80003860:	02fe3fb3          	mulhu	x31,x28,x15
    80003864:	02cf1433          	mulh	x8,x30,x12
    80003868:	03ded5b3          	divu	x11,x29,x29
    8000386c:	00609093          	slli	x1,x1,0x6
    80003870:	031d7b33          	remu	x22,x26,x17
    80003874:	41b90bbb          	subw	x23,x18,x27
    80003878:	00b50733          	add	x14,x10,x11
    8000387c:	0297f6b3          	remu	x13,x15,x9
    80003880:	02506833          	rem	x16,x0,x5
    80003884:	0394f533          	remu	x10,x9,x25
    80003888:	433b5293          	srai	x5,x22,0x33
    8000388c:	00205d33          	srl	x26,x0,x2
    80003890:	02b040b3          	div	x1,x0,x11
    80003894:	01200fb3          	add	x31,x0,x18
    80003898:	0260f133          	remu	x2,x1,x6
    8000389c:	40578abb          	subw	x21,x15,x5
    800038a0:	026768bb          	remw	x17,x14,x6
    800038a4:	03a96cbb          	remw	x25,x18,x26
    800038a8:	025cd03b          	divuw	x0,x25,x5
    800038ac:	0399543b          	divuw	x8,x18,x25
    800038b0:	b3bb5517          	auipc	x10,0xb3bb5
    800038b4:	008905bb          	addw	x11,x18,x8
    800038b8:	039c0233          	mul	x4,x24,x25
    800038bc:	021015b3          	mulh	x11,x0,x1
    800038c0:	01fa8dbb          	addw	x27,x21,x31
    800038c4:	4010009b          	addiw	x1,x0,1025
    800038c8:	01509093          	slli	x1,x1,0x15
    800038cc:	ea50bc23          	sd	x5,-328(x1)
    800038d0:	eb80b283          	ld	x5,-328(x1)
    800038d4:	0237b9b3          	mulhu	x19,x15,x3
    800038d8:	01440a3b          	addw	x20,x8,x20
    800038dc:	0246493b          	divw	x18,x12,x4
    800038e0:	41430a33          	sub	x20,x6,x20
    800038e4:	011db0b3          	sltu	x1,x27,x17
    800038e8:	415ade3b          	sraw	x28,x21,x21
    800038ec:	01f46933          	or	x18,x8,x31
    800038f0:	0000db3b          	srlw	x22,x1,x0
    800038f4:	03c3b233          	mulhu	x4,x7,x28
    800038f8:	4147d9b3          	sra	x19,x15,x20
    800038fc:	01a86ab3          	or	x21,x16,x26
    80003900:	009d18b3          	sll	x17,x26,x9
    80003904:	03609bb3          	mulh	x23,x1,x22
    80003908:	00f09833          	sll	x16,x1,x15
    8000390c:	03fce2bb          	remw	x5,x25,x31
    80003910:	4010009b          	addiw	x1,x0,1025
    80003914:	01509093          	slli	x1,x1,0x15
    80003918:	3900b023          	sd	x16,896(x1)
    8000391c:	3800b803          	ld	x16,896(x1)
    80003920:	406287bb          	subw	x15,x5,x6
    80003924:	0385c933          	div	x18,x11,x24
    80003928:	4010009b          	addiw	x1,x0,1025
    8000392c:	01509093          	slli	x1,x1,0x15
    80003930:	72809423          	sh	x8,1832(x1)
    80003934:	72809403          	lh	x8,1832(x1)
    80003938:	7280dc03          	lhu	x24,1832(x1)
    8000393c:	02a7713b          	remuw	x2,x14,x10
    80003940:	400b8ab3          	sub	x21,x23,x0
    80003944:	02a53a33          	mulhu	x20,x10,x10
    80003948:	020ebab3          	mulhu	x21,x29,x0
    8000394c:	01559c33          	sll	x24,x11,x21
    80003950:	03ce0cbb          	mulw	x25,x28,x28
    80003954:	003d9f33          	sll	x30,x27,x3
    80003958:	02708733          	mul	x14,x1,x7
    8000395c:	417107b3          	sub	x15,x2,x23
    80003960:	00af1ebb          	sllw	x29,x30,x10
    80003964:	4010009b          	addiw	x1,x0,1025
    80003968:	01509093          	slli	x1,x1,0x15
    8000396c:	a8a08fa3          	sb	x10,-1377(x1)
    80003970:	a9f08503          	lb	x10,-1377(x1)
    80003974:	a9f0c683          	lbu	x13,-1377(x1)
    80003978:	004dec33          	or	x24,x27,x4
    8000397c:	00cec833          	xor	x16,x29,x12
    80003980:	022668b3          	rem	x17,x12,x2
    80003984:	03979eb3          	mulh	x29,x15,x25
    80003988:	024975b3          	remu	x11,x18,x4
    8000398c:	022d3eb3          	mulhu	x29,x26,x2
    80003990:	0337bfb3          	mulhu	x31,x15,x19
    80003994:	03684b33          	div	x22,x16,x22
    80003998:	015b5ebb          	srlw	x29,x22,x21
    8000399c:	011f1b3b          	sllw	x22,x30,x17
    800039a0:	02720433          	mul	x8,x4,x7
    800039a4:	01cab0b3          	sltu	x1,x21,x28
    800039a8:	025d99b3          	mulh	x19,x27,x5
    800039ac:	0117513b          	srlw	x2,x14,x17
    800039b0:	013334b3          	sltu	x9,x6,x19
    800039b4:	40665533          	sra	x10,x12,x6
    800039b8:	03ac14b3          	mulh	x9,x24,x26
    800039bc:	40e9593b          	sraw	x18,x18,x14
    800039c0:	01da10bb          	sllw	x1,x20,x29
    800039c4:	01f3c9b3          	xor	x19,x7,x31
    800039c8:	0025e5b3          	or	x11,x11,x2
    800039cc:	004431b3          	sltu	x3,x8,x4
    800039d0:	019cab33          	slt	x22,x25,x25
    800039d4:	03b2c733          	div	x14,x5,x27
    800039d8:	00a92bb3          	slt	x23,x18,x10
    800039dc:	01a89b3b          	sllw	x22,x17,x26
    800039e0:	02c00ebb          	mulw	x29,x0,x12
    800039e4:	40d40b3b          	subw	x22,x8,x13
    800039e8:	021149b3          	div	x19,x2,x1
    800039ec:	01877033          	and	x0,x14,x24
    800039f0:	40b250bb          	sraw	x1,x4,x11
    800039f4:	0281753b          	remuw	x10,x2,x8
    800039f8:	025b833b          	mulw	x6,x23,x5
    800039fc:	00208a3b          	addw	x20,x1,x2
    80003a00:	026ccab3          	div	x21,x25,x6
    80003a04:	40f90433          	sub	x8,x18,x15
    80003a08:	008bcbb3          	xor	x23,x23,x8
    80003a0c:	03af0a3b          	mulw	x20,x30,x26
    80003a10:	40e6d433          	sra	x8,x13,x14
    80003a14:	0187f3b3          	and	x7,x15,x24
    80003a18:	02322d33          	mulhsu	x26,x4,x3
    80003a1c:	02888d33          	mul	x26,x17,x8
    80003a20:	0016dfb3          	srl	x31,x13,x1
    80003a24:	017e85bb          	addw	x11,x29,x23
    80003a28:	01365cb3          	srl	x25,x12,x19
    80003a2c:	01aca8b3          	slt	x17,x25,x26
    80003a30:	036d5c3b          	divuw	x24,x26,x22
    80003a34:	02984833          	div	x16,x16,x9
    80003a38:	414a5a93          	srai	x21,x20,0x14
    80003a3c:	03d4ce33          	div	x28,x9,x29
    80003a40:	03b95dbb          	divuw	x27,x18,x27
    80003a44:	0266e0bb          	remw	x1,x13,x6
    80003a48:	02bccc33          	div	x24,x25,x11
    80003a4c:	2a8746b7          	lui	x13,0x2a874
    80003a50:	032e4733          	div	x14,x28,x18
    80003a54:	01eba433          	slt	x8,x23,x30
    80003a58:	03bd28b3          	mulhsu	x17,x26,x27
    80003a5c:	01ff9ebb          	sllw	x29,x31,x31
    80003a60:	01fc5cb3          	srl	x25,x24,x31
    80003a64:	02db79bb          	remuw	x19,x22,x13
    80003a68:	01636633          	or	x12,x6,x22
    80003a6c:	01182433          	slt	x8,x16,x17
    80003a70:	0236e7b3          	rem	x15,x13,x3
    80003a74:	402ad73b          	sraw	x14,x21,x2
    80003a78:	017e9413          	slli	x8,x29,0x17
    80003a7c:	028b603b          	remw	x0,x22,x8
    80003a80:	022856bb          	divuw	x13,x16,x2
    80003a84:	02d9abb3          	mulhsu	x23,x19,x13
    80003a88:	41fc5b3b          	sraw	x22,x24,x31
    80003a8c:	017d2bb3          	slt	x23,x26,x23
    80003a90:	009188bb          	addw	x17,x3,x9
    80003a94:	411adcbb          	sraw	x25,x21,x17
    80003a98:	02cd8633          	mul	x12,x27,x12
    80003a9c:	016213bb          	sllw	x7,x4,x22
    80003aa0:	014b8a3b          	addw	x20,x23,x20
    80003aa4:	027770bb          	remuw	x1,x14,x7
    80003aa8:	00a65fb3          	srl	x31,x12,x10
    80003aac:	02133233          	mulhu	x4,x6,x1
    80003ab0:	41988cb3          	sub	x25,x17,x25
    80003ab4:	02d4eabb          	remw	x21,x9,x13
    80003ab8:	03a86533          	rem	x10,x16,x26
    80003abc:	01271a33          	sll	x20,x14,x18
    80003ac0:	00e15ab3          	srl	x21,x2,x14
    80003ac4:	01e15bbb          	srlw	x23,x2,x30
    80003ac8:	fbd4cd13          	xori	x26,x9,-67
    80003acc:	014f17b3          	sll	x15,x30,x20
    80003ad0:	019599b3          	sll	x19,x11,x25
    80003ad4:	416d043b          	subw	x8,x26,x22
    80003ad8:	4094533b          	sraw	x6,x8,x9
    80003adc:	40010b3b          	subw	x22,x2,x0
    80003ae0:	4010009b          	addiw	x1,x0,1025
    80003ae4:	01509093          	slli	x1,x1,0x15
    80003ae8:	4e4083a3          	sb	x4,1255(x1)
    80003aec:	4e708203          	lb	x4,1255(x1)
    80003af0:	4e70cb03          	lbu	x22,1255(x1)
    80003af4:	0187b3b3          	sltu	x7,x15,x24
    80003af8:	4157093b          	subw	x18,x14,x21
    80003afc:	4047003b          	subw	x0,x14,x4
    80003b00:	00da04bb          	addw	x9,x20,x13
    80003b04:	009b2d33          	slt	x26,x22,x9
    80003b08:	03567633          	remu	x12,x12,x21
    80003b0c:	00f73133          	sltu	x2,x14,x15
    80003b10:	40805db3          	sra	x27,x0,x8
    80003b14:	0021d333          	srl	x6,x3,x2
    80003b18:	00a53c33          	sltu	x24,x10,x10
    80003b1c:	02869fb3          	mulh	x31,x13,x8
    80003b20:	414ed9b3          	sra	x19,x29,x20
    80003b24:	4023593b          	sraw	x18,x6,x2
    80003b28:	a9e83b37          	lui	x22,0xa9e83
    80003b2c:	00e89e33          	sll	x28,x17,x14
    80003b30:	0101d633          	srl	x12,x3,x16
    80003b34:	03c20333          	mul	x6,x4,x28
    80003b38:	411b5c33          	sra	x24,x22,x17
    80003b3c:	0272dabb          	divuw	x21,x5,x7
    80003b40:	0205fc33          	remu	x24,x11,x0
    80003b44:	03ed4833          	div	x16,x26,x30
    80003b48:	00ec0833          	add	x16,x24,x14
    80003b4c:	00dec1b3          	xor	x3,x29,x13
    80003b50:	0115a2b3          	slt	x5,x11,x17
    80003b54:	01b26933          	or	x18,x4,x27
    80003b58:	00615b3b          	srlw	x22,x2,x6
    80003b5c:	01a5579b          	srliw	x15,x10,0x1a
    80003b60:	03281333          	mulh	x6,x16,x18
    80003b64:	009db233          	sltu	x4,x27,x9
    80003b68:	51a48793          	addi	x15,x9,1306
    80003b6c:	01c5d63b          	srlw	x12,x11,x28
    80003b70:	f5ae5837          	lui	x16,0xf5ae5
    80003b74:	03c2d3b3          	divu	x7,x5,x28
    80003b78:	01125fbb          	srlw	x31,x4,x17
    80003b7c:	0338c833          	div	x16,x17,x19
    80003b80:	0053a733          	slt	x14,x7,x5
    80003b84:	40b388bb          	subw	x17,x7,x11
    80003b88:	002d2b33          	slt	x22,x26,x2
    80003b8c:	4010009b          	addiw	x1,x0,1025
    80003b90:	01509093          	slli	x1,x1,0x15
    80003b94:	084088a3          	sb	x4,145(x1)
    80003b98:	09108203          	lb	x4,145(x1)
    80003b9c:	0910ce83          	lbu	x29,145(x1)
    80003ba0:	40b287b3          	sub	x15,x5,x11
    80003ba4:	02db7f3b          	remuw	x30,x22,x13
    80003ba8:	01f7123b          	sllw	x4,x14,x31
    80003bac:	0372d233          	divu	x4,x5,x23
    80003bb0:	00f2afb3          	slt	x31,x5,x15
    80003bb4:	01d92433          	slt	x8,x18,x29
    80003bb8:	013d5933          	srl	x18,x26,x19
    80003bbc:	03362eb3          	mulhsu	x29,x12,x19
    80003bc0:	03c17d3b          	remuw	x26,x2,x28
    80003bc4:	03ca543b          	divuw	x8,x20,x28
    80003bc8:	0282c633          	div	x12,x5,x8
    80003bcc:	00dd37b3          	sltu	x15,x26,x13
    80003bd0:	02080c33          	mul	x24,x16,x0
    80003bd4:	4088833b          	subw	x6,x17,x8
    80003bd8:	02b41833          	mulh	x16,x8,x11
    80003bdc:	03757ab3          	remu	x21,x10,x23
    80003be0:	032be8bb          	remw	x17,x23,x18
    80003be4:	023aa3b3          	mulhsu	x7,x21,x3
    80003be8:	031068bb          	remw	x17,x0,x17
    80003bec:	0271c4b3          	div	x9,x3,x7
    80003bf0:	02c7e3b3          	rem	x7,x15,x12
    80003bf4:	00bc99bb          	sllw	x19,x25,x11
    80003bf8:	41f9d4b3          	sra	x9,x19,x31
    80003bfc:	039643b3          	div	x7,x12,x25
    80003c00:	03e7d2bb          	divuw	x5,x15,x30
    80003c04:	008827b3          	slt	x15,x16,x8
    80003c08:	01eab2b3          	sltu	x5,x21,x30
    80003c0c:	017e7d33          	and	x26,x28,x23
    80003c10:	02bb7133          	remu	x2,x22,x11
    80003c14:	03257fbb          	remuw	x31,x10,x18
    80003c18:	4154deb3          	sra	x29,x9,x21
    80003c1c:	41a48c3b          	subw	x24,x9,x26
    80003c20:	03d65633          	divu	x12,x12,x29
    80003c24:	03c015b3          	mulh	x11,x0,x28
    80003c28:	02e44bbb          	divw	x23,x8,x14
    80003c2c:	03575333          	divu	x6,x14,x21
    80003c30:	019f9533          	sll	x10,x31,x25
    80003c34:	02fe53bb          	divuw	x7,x28,x15
    80003c38:	024910b3          	mulh	x1,x18,x4
    80003c3c:	01754fb3          	xor	x31,x10,x23
    80003c40:	00f9f433          	and	x8,x19,x15
    80003c44:	0120043b          	addw	x8,x0,x18
    80003c48:	009095b3          	sll	x11,x1,x9
    80003c4c:	0159ab33          	slt	x22,x19,x21
    80003c50:	020239b3          	mulhu	x19,x4,x0
    80003c54:	41bf5433          	sra	x8,x30,x27
    80003c58:	004481bb          	addw	x3,x9,x4
    80003c5c:	40d98a3b          	subw	x20,x19,x13
    80003c60:	03988733          	mul	x14,x17,x25
    80003c64:	037cebbb          	remw	x23,x25,x23
    80003c68:	02964533          	div	x10,x12,x9
    80003c6c:	00c47a33          	and	x20,x8,x12
    80003c70:	01da0abb          	addw	x21,x20,x29
    80003c74:	03cd7c33          	remu	x24,x26,x28
    80003c78:	03a98c3b          	mulw	x24,x19,x26
    80003c7c:	4010009b          	addiw	x1,x0,1025
    80003c80:	01509093          	slli	x1,x1,0x15
    80003c84:	f5b09d23          	sh	x27,-166(x1)
    80003c88:	f5a09d83          	lh	x27,-166(x1)
    80003c8c:	f5a0d203          	lhu	x4,-166(x1)
    80003c90:	022192b3          	mulh	x5,x3,x2
    80003c94:	00f97b33          	and	x22,x18,x15
    80003c98:	4010009b          	addiw	x1,x0,1025
    80003c9c:	01509093          	slli	x1,x1,0x15
    80003ca0:	4580b823          	sd	x24,1104(x1)
    80003ca4:	4500bc03          	ld	x24,1104(x1)
    80003ca8:	01dd3d33          	sltu	x26,x26,x29
    80003cac:	02c59e33          	mulh	x28,x11,x12
    80003cb0:	03b3d8bb          	divuw	x17,x7,x27
    80003cb4:	439ede13          	srai	x28,x29,0x39
    80003cb8:	0319b4b3          	mulhu	x9,x19,x17
    80003cbc:	00de0c33          	add	x24,x28,x13
    80003cc0:	ff022fb7          	lui	x31,0xff022
    80003cc4:	03f0fbb3          	remu	x23,x1,x31
    80003cc8:	02fbe33b          	remw	x6,x23,x15
    80003ccc:	415bd233          	sra	x4,x23,x21
    80003cd0:	4070d83b          	sraw	x16,x1,x7
    80003cd4:	03507333          	remu	x6,x0,x21
    80003cd8:	007ab4b3          	sltu	x9,x21,x7
    80003cdc:	00cb1ab3          	sll	x21,x22,x12
    80003ce0:	01f01233          	sll	x4,x0,x31
    80003ce4:	006b9fb3          	sll	x31,x23,x6
    80003ce8:	000c003b          	addw	x0,x24,x0
    80003cec:	01111233          	sll	x4,x2,x17
    80003cf0:	00fdf033          	and	x0,x27,x15
    80003cf4:	40b586b3          	sub	x13,x11,x11
    80003cf8:	038b7233          	remu	x4,x22,x24
    80003cfc:	4130d93b          	sraw	x18,x1,x19
    80003d00:	03865bb3          	divu	x23,x12,x24
    80003d04:	00b3ec33          	or	x24,x7,x11
    80003d08:	03759db3          	mulh	x27,x11,x23
    80003d0c:	40bfd6b3          	sra	x13,x31,x11
    80003d10:	4010009b          	addiw	x1,x0,1025
    80003d14:	01509093          	slli	x1,x1,0x15
    80003d18:	c5109e23          	sh	x17,-932(x1)
    80003d1c:	c5c09883          	lh	x17,-932(x1)
    80003d20:	c5c0d783          	lhu	x15,-932(x1)
    80003d24:	01285bb3          	srl	x23,x16,x18
    80003d28:	02f73233          	mulhu	x4,x14,x15
    80003d2c:	0028c8b3          	xor	x17,x17,x2
    80003d30:	03bff8bb          	remuw	x17,x31,x27
    80003d34:	02a3b233          	mulhu	x4,x7,x10
    80003d38:	02db513b          	divuw	x2,x22,x13
    80003d3c:	01327bb3          	and	x23,x4,x19
    80003d40:	027ccf3b          	divw	x30,x25,x7
    80003d44:	02dc28b3          	mulhsu	x17,x24,x13
    80003d48:	02bd2833          	mulhsu	x16,x26,x11
    80003d4c:	027424b3          	mulhsu	x9,x8,x7
    80003d50:	4010009b          	addiw	x1,x0,1025
    80003d54:	01509093          	slli	x1,x1,0x15
    80003d58:	fae09223          	sh	x14,-92(x1)
    80003d5c:	fa409703          	lh	x14,-92(x1)
    80003d60:	fa40de03          	lhu	x28,-92(x1)
    80003d64:	00cbd333          	srl	x6,x23,x12
    80003d68:	02dd0e3b          	mulw	x28,x26,x13
    80003d6c:	0191dfb3          	srl	x31,x3,x25
    80003d70:	0235b433          	mulhu	x8,x11,x3
    80003d74:	03bfe4bb          	remw	x9,x31,x27
    80003d78:	411fde3b          	sraw	x28,x31,x17
    80003d7c:	0194ef33          	or	x30,x9,x25
    80003d80:	016b4933          	xor	x18,x22,x22
    80003d84:	4010009b          	addiw	x1,x0,1025
    80003d88:	01509093          	slli	x1,x1,0x15
    80003d8c:	0c409623          	sh	x4,204(x1)
    80003d90:	0cc09203          	lh	x4,204(x1)
    80003d94:	0cc0d403          	lhu	x8,204(x1)
    80003d98:	03ed1433          	mulh	x8,x26,x30
    80003d9c:	013e1633          	sll	x12,x28,x19
    80003da0:	00778fb3          	add	x31,x15,x7
    80003da4:	010530b3          	sltu	x1,x10,x16
    80003da8:	02107cbb          	remuw	x25,x0,x1
    80003dac:	9eddba97          	auipc	x21,0x9eddb
    80003db0:	40a354b3          	sra	x9,x6,x10
    80003db4:	03a963bb          	remw	x7,x18,x26
    80003db8:	03bb2b33          	mulhsu	x22,x22,x27
    80003dbc:	028c62b3          	rem	x5,x24,x8
    80003dc0:	00b63bb3          	sltu	x23,x12,x11
    80003dc4:	0271bfb3          	mulhu	x31,x3,x7
    80003dc8:	02c359b3          	divu	x19,x6,x12
    80003dcc:	028ef433          	remu	x8,x29,x8
    80003dd0:	001b6ab3          	or	x21,x22,x1
    80003dd4:	0285e533          	rem	x10,x11,x8
    80003dd8:	00e53833          	sltu	x16,x10,x14
    80003ddc:	0319ac33          	mulhsu	x24,x19,x17
    80003de0:	41b28c3b          	subw	x24,x5,x27
    80003de4:	41bc0c33          	sub	x24,x24,x27
    80003de8:	41d08e3b          	subw	x28,x1,x29
    80003dec:	0b12a413          	slti	x8,x5,177
    80003df0:	039329b3          	mulhsu	x19,x6,x25
    80003df4:	019c7a33          	and	x20,x24,x25
    80003df8:	032df6bb          	remuw	x13,x27,x18
    80003dfc:	0311f7b3          	remu	x15,x3,x17
    80003e00:	02e50f33          	mul	x30,x10,x14
    80003e04:	02e68833          	mul	x16,x13,x14
    80003e08:	03beee33          	rem	x28,x29,x27
    80003e0c:	0063df33          	srl	x30,x7,x6
    80003e10:	0303ddbb          	divuw	x27,x7,x16
    80003e14:	026a9933          	mulh	x18,x21,x6
    80003e18:	03743bb3          	mulhu	x23,x8,x23
    80003e1c:	022f0c3b          	mulw	x24,x30,x2
    80003e20:	02932fb3          	mulhsu	x31,x6,x9
    80003e24:	4010009b          	addiw	x1,x0,1025
    80003e28:	01509093          	slli	x1,x1,0x15
    80003e2c:	afe08ba3          	sb	x30,-1289(x1)
    80003e30:	af708f03          	lb	x30,-1289(x1)
    80003e34:	af70c903          	lbu	x18,-1289(x1)
    80003e38:	017eacb3          	slt	x25,x29,x23
    80003e3c:	413083bb          	subw	x7,x1,x19
    80003e40:	01790933          	add	x18,x18,x23
    80003e44:	03cffc3b          	remuw	x24,x31,x28
    80003e48:	bc026f97          	auipc	x31,0xbc026
    80003e4c:	011f0fbb          	addw	x31,x30,x17
    80003e50:	0175dd3b          	srlw	x26,x11,x23
    80003e54:	003038b3          	sltu	x17,x0,x3
    80003e58:	5cdfe537          	lui	x10,0x5cdfe
    80003e5c:	41aa5a33          	sra	x20,x20,x26
    80003e60:	0063a9b3          	slt	x19,x7,x6
    80003e64:	4010009b          	addiw	x1,x0,1025
    80003e68:	01509093          	slli	x1,x1,0x15
    80003e6c:	5680a423          	sw	x8,1384(x1)
    80003e70:	5680a403          	lw	x8,1384(x1)
    80003e74:	5680eb03          	lwu	x22,1384(x1)
    80003e78:	00ace1b3          	or	x3,x25,x10
    80003e7c:	039581bb          	mulw	x3,x11,x25
    80003e80:	02d24a3b          	divw	x20,x4,x13
    80003e84:	01cc8333          	add	x6,x25,x28
    80003e88:	022e8fb3          	mul	x31,x29,x2
    80003e8c:	019c56bb          	srlw	x13,x24,x25
    80003e90:	41428833          	sub	x16,x5,x20
    80003e94:	00d43db3          	sltu	x27,x8,x13
    80003e98:	412d5dbb          	sraw	x27,x26,x18
    80003e9c:	03568bb3          	mul	x23,x13,x21
    80003ea0:	0293dfbb          	divuw	x31,x7,x9
    80003ea4:	02a809b3          	mul	x19,x16,x10
    80003ea8:	410c0a33          	sub	x20,x24,x16
    80003eac:	0255a333          	mulhsu	x6,x11,x5
    80003eb0:	009f9a3b          	sllw	x20,x31,x9
    80003eb4:	02395133          	divu	x2,x18,x3
    80003eb8:	2246a737          	lui	x14,0x2246a
    80003ebc:	038c7dbb          	remuw	x27,x24,x24
    80003ec0:	00aa0d33          	add	x26,x20,x10
    80003ec4:	038e0bb3          	mul	x23,x28,x24
    80003ec8:	004ea6b3          	slt	x13,x29,x4
    80003ecc:	026ac6bb          	divw	x13,x21,x6
    80003ed0:	40e450b3          	sra	x1,x8,x14
    80003ed4:	40d88c3b          	subw	x24,x17,x13
    80003ed8:	02d648bb          	divw	x17,x12,x13
    80003edc:	026d7e33          	remu	x28,x26,x6
    80003ee0:	017160b3          	or	x1,x2,x23
    80003ee4:	005cd63b          	srlw	x12,x25,x5
    80003ee8:	02bf4c3b          	divw	x24,x30,x11
    80003eec:	024552b3          	divu	x5,x10,x4
    80003ef0:	010c0eb3          	add	x29,x24,x16
    80003ef4:	4071583b          	sraw	x16,x2,x7
    80003ef8:	00980a33          	add	x20,x16,x9
    80003efc:	0313d9b3          	divu	x19,x7,x17
    80003f00:	02df0033          	mul	x0,x30,x13
    80003f04:	033df1b3          	remu	x3,x27,x19
    80003f08:	409e0bbb          	subw	x23,x28,x9
    80003f0c:	03bf083b          	mulw	x16,x30,x27
    80003f10:	021182b3          	mul	x5,x3,x1
    80003f14:	036c633b          	remw	x6,x24,x22
    80003f18:	017204bb          	addw	x9,x4,x23
    80003f1c:	01ef2b33          	slt	x22,x30,x30
    80003f20:	0076dbbb          	srlw	x23,x13,x7
    80003f24:	02657abb          	remuw	x21,x10,x6
    80003f28:	018f87bb          	addw	x15,x31,x24
    80003f2c:	401e55bb          	sraw	x11,x28,x1
    80003f30:	02756433          	rem	x8,x10,x7
    80003f34:	005c7333          	and	x6,x24,x5
    80003f38:	039be3b3          	rem	x7,x23,x25
    80003f3c:	036664b3          	rem	x9,x12,x22
    80003f40:	41b20f3b          	subw	x30,x4,x27
    80003f44:	4010009b          	addiw	x1,x0,1025
    80003f48:	01509093          	slli	x1,x1,0x15
    80003f4c:	4d609723          	sh	x22,1230(x1)
    80003f50:	4ce09b03          	lh	x22,1230(x1)
    80003f54:	4ce0dc83          	lhu	x25,1230(x1)
    80003f58:	01f8adb3          	slt	x27,x17,x31
    80003f5c:	012b0ab3          	add	x21,x22,x18
    80003f60:	02d2d93b          	divuw	x18,x5,x13
    80003f64:	00612033          	slt	x0,x2,x6
    80003f68:	014a3ab3          	sltu	x21,x20,x20
    80003f6c:	033bb033          	mulhu	x0,x23,x19
    80003f70:	01bdf033          	and	x0,x27,x27
    80003f74:	03e41433          	mulh	x8,x8,x30
    80003f78:	0290e2bb          	remw	x5,x1,x9
    80003f7c:	4010009b          	addiw	x1,x0,1025
    80003f80:	01509093          	slli	x1,x1,0x15
    80003f84:	6990bc23          	sd	x25,1688(x1)
    80003f88:	6980bc83          	ld	x25,1688(x1)
    80003f8c:	02441133          	mulh	x2,x8,x4
    80003f90:	02d97c33          	remu	x24,x18,x13
    80003f94:	01559c3b          	sllw	x24,x11,x21
    80003f98:	011e1e33          	sll	x28,x28,x17
    80003f9c:	037fc63b          	divw	x12,x31,x23
    80003fa0:	00108abb          	addw	x21,x1,x1
    80003fa4:	0397efbb          	remw	x31,x15,x25
    80003fa8:	01b25e3b          	srlw	x28,x4,x27
    80003fac:	01cbd33b          	srlw	x6,x23,x28
    80003fb0:	0165a2b3          	slt	x5,x11,x22
    80003fb4:	402e84b3          	sub	x9,x29,x2
    80003fb8:	03337f33          	remu	x30,x6,x19
    80003fbc:	03eb5533          	divu	x10,x22,x30
    80003fc0:	03fccf3b          	divw	x30,x25,x31
    80003fc4:	015477b3          	and	x15,x8,x21
    80003fc8:	00bb8dbb          	addw	x27,x23,x11
    80003fcc:	01daf233          	and	x4,x21,x29
    80003fd0:	018b6e33          	or	x28,x22,x24
    80003fd4:	03eddd33          	divu	x26,x27,x30
    80003fd8:	02136bbb          	remw	x23,x6,x1
    80003fdc:	01af6733          	or	x14,x30,x26
    80003fe0:	02c1f03b          	remuw	x0,x3,x12
    80003fe4:	402480b3          	sub	x1,x9,x2
    80003fe8:	0154aab3          	slt	x21,x9,x21
    80003fec:	00c4b933          	sltu	x18,x9,x12
    80003ff0:	03e1c6b3          	div	x13,x3,x30
    80003ff4:	025a783b          	remuw	x16,x20,x5
    80003ff8:	005ea433          	slt	x8,x29,x5
    80003ffc:	41ecd833          	sra	x16,x25,x30
    80004000:	41dcd43b          	sraw	x8,x25,x29
    80004004:	02ab53bb          	divuw	x7,x22,x10
    80004008:	0099d7b3          	srl	x15,x19,x9
    8000400c:	4010009b          	addiw	x1,x0,1025
    80004010:	01509093          	slli	x1,x1,0x15
    80004014:	c2a0a823          	sw	x10,-976(x1)
    80004018:	c300a503          	lw	x10,-976(x1)
    8000401c:	c300e283          	lwu	x5,-976(x1)
    80004020:	03214b3b          	divw	x22,x2,x18
    80004024:	014b2197          	auipc	x3,0x14b2
    80004028:	010051b3          	srl	x3,x0,x16
    8000402c:	03e62433          	mulhsu	x8,x12,x30
    80004030:	006ed0bb          	srlw	x1,x29,x6
    80004034:	02caf8bb          	remuw	x17,x21,x12
    80004038:	0309663b          	remw	x12,x18,x16
    8000403c:	033bae33          	mulhsu	x28,x23,x19
    80004040:	014de3b3          	or	x7,x27,x20
    80004044:	034d4f33          	div	x30,x26,x20
    80004048:	bfb0b917          	auipc	x18,0xbfb0b
    8000404c:	03dafcb3          	remu	x25,x21,x29
    80004050:	009bd2b3          	srl	x5,x23,x9
    80004054:	030e43bb          	divw	x7,x28,x16
    80004058:	01896233          	or	x4,x18,x24
    8000405c:	1c3a1597          	auipc	x11,0x1c3a1
    80004060:	03f75dbb          	divuw	x27,x14,x31
    80004064:	40398733          	sub	x14,x19,x3
    80004068:	40ce8133          	sub	x2,x29,x12
    8000406c:	0273e833          	rem	x16,x7,x7
    80004070:	eeebccb7          	lui	x25,0xeeebc
    80004074:	00a688b3          	add	x17,x13,x10
    80004078:	017c4733          	xor	x14,x24,x23
    8000407c:	025bb333          	mulhu	x6,x23,x5
    80004080:	039c11b3          	mulh	x3,x24,x25
    80004084:	02cb95b3          	mulh	x11,x23,x12
    80004088:	03cd4fbb          	divw	x31,x26,x28
    8000408c:	016cd1bb          	srlw	x3,x25,x22
    80004090:	006b86bb          	addw	x13,x23,x6
    80004094:	00c149b3          	xor	x19,x2,x12
    80004098:	036c9eb3          	mulh	x29,x25,x22
    8000409c:	02b8e633          	rem	x12,x17,x11
    800040a0:	000996b3          	sll	x13,x19,x0
    800040a4:	03e789b3          	mul	x19,x15,x30
    800040a8:	0186f1b3          	and	x3,x13,x24
    800040ac:	03290ab3          	mul	x21,x18,x18
    800040b0:	02a07833          	remu	x16,x0,x10
    800040b4:	4154de33          	sra	x28,x9,x21
    800040b8:	011d9c33          	sll	x24,x27,x17
    800040bc:	0171f2b3          	and	x5,x3,x23
    800040c0:	00a61fb3          	sll	x31,x12,x10
    800040c4:	015085b3          	add	x11,x1,x21
    800040c8:	4193d9bb          	sraw	x19,x7,x25
    800040cc:	01ea1233          	sll	x4,x20,x30
    800040d0:	02bb1cb3          	mulh	x25,x22,x11
    800040d4:	406b8b33          	sub	x22,x23,x6
    800040d8:	4010009b          	addiw	x1,x0,1025
    800040dc:	01509093          	slli	x1,x1,0x15
    800040e0:	2c0088a3          	sb	x0,721(x1)
    800040e4:	2d108003          	lb	x0,721(x1)
    800040e8:	2d10ca03          	lbu	x20,721(x1)
    800040ec:	03f416b3          	mulh	x13,x8,x31
    800040f0:	412e50b3          	sra	x1,x28,x18
    800040f4:	03f08ebb          	mulw	x29,x1,x31
    800040f8:	d4a9a237          	lui	x4,0xd4a9a
    800040fc:	00b4923b          	sllw	x4,x9,x11
    80004100:	4115883b          	subw	x16,x11,x17
    80004104:	032a48b3          	div	x17,x20,x18
    80004108:	02731833          	mulh	x16,x6,x7
    8000410c:	030599b3          	mulh	x19,x11,x16
    80004110:	02bafb33          	remu	x22,x21,x11
    80004114:	0067f733          	and	x14,x15,x6
    80004118:	008c9bbb          	sllw	x23,x25,x8
    8000411c:	02c17d33          	remu	x26,x2,x12
    80004120:	41dad933          	sra	x18,x21,x29
    80004124:	03a42233          	mulhsu	x4,x8,x26
    80004128:	01485db3          	srl	x27,x16,x20
    8000412c:	4010009b          	addiw	x1,x0,1025
    80004130:	01509093          	slli	x1,x1,0x15
    80004134:	6120bc23          	sd	x18,1560(x1)
    80004138:	6180b903          	ld	x18,1560(x1)
    8000413c:	02dfb633          	mulhu	x12,x31,x13
    80004140:	03a6003b          	mulw	x0,x12,x26
    80004144:	0031823b          	addw	x4,x3,x3
    80004148:	02acaab3          	mulhsu	x21,x25,x10
    8000414c:	03aa4ab3          	div	x21,x20,x26
    80004150:	02d4c83b          	divw	x16,x9,x13
    80004154:	038d9933          	mulh	x18,x27,x24
    80004158:	018b83b3          	add	x7,x23,x24
    8000415c:	023b3d33          	mulhu	x26,x22,x3
    80004160:	4089003b          	subw	x0,x18,x8
    80004164:	00f71fbb          	sllw	x31,x14,x15
    80004168:	0002b933          	sltu	x18,x5,x0
    8000416c:	00d7d1b3          	srl	x3,x15,x13
    80004170:	4190833b          	subw	x6,x1,x25
    80004174:	02976bb3          	rem	x23,x14,x9
    80004178:	4010009b          	addiw	x1,x0,1025
    8000417c:	01509093          	slli	x1,x1,0x15
    80004180:	b470aa23          	sw	x7,-1196(x1)
    80004184:	b540a383          	lw	x7,-1196(x1)
    80004188:	b540e183          	lwu	x3,-1196(x1)
    8000418c:	0327563b          	divuw	x12,x14,x18
    80004190:	01a20fbb          	addw	x31,x4,x26
    80004194:	00d718bb          	sllw	x17,x14,x13
    80004198:	02698fb3          	mul	x31,x19,x6
    8000419c:	023588bb          	mulw	x17,x11,x3
    800041a0:	03e3c033          	div	x0,x7,x30
    800041a4:	0385e033          	rem	x0,x11,x24
    800041a8:	4010009b          	addiw	x1,x0,1025
    800041ac:	01509093          	slli	x1,x1,0x15
    800041b0:	ac00b023          	sd	x0,-1344(x1)
    800041b4:	ac00b003          	ld	x0,-1344(x1)
    800041b8:	02a54bb3          	div	x23,x10,x10
    800041bc:	402082b3          	sub	x5,x1,x2
    800041c0:	03ae6133          	rem	x2,x28,x26
    800041c4:	02a1b433          	mulhu	x8,x3,x10
    800041c8:	0388ad33          	mulhsu	x26,x17,x24
    800041cc:	01a4e2b3          	or	x5,x9,x26
    800041d0:	01762933          	slt	x18,x12,x23
    800041d4:	0390cb3b          	divw	x22,x1,x25
    800041d8:	417e843b          	subw	x8,x29,x23
    800041dc:	03b939b3          	mulhu	x19,x18,x27
    800041e0:	02432bb3          	mulhsu	x23,x6,x4
    800041e4:	01f90a3b          	addw	x20,x18,x31
    800041e8:	01eeb033          	sltu	x0,x29,x30
    800041ec:	03846fb3          	rem	x31,x8,x24
    800041f0:	02f34ebb          	divw	x29,x6,x15
    800041f4:	4031d2bb          	sraw	x5,x3,x3
    800041f8:	02d1fa3b          	remuw	x20,x3,x13
    800041fc:	01c8aab3          	slt	x21,x17,x28
    80004200:	034f6133          	rem	x2,x30,x20
    80004204:	400e0933          	sub	x18,x28,x0
    80004208:	01a72133          	slt	x2,x14,x26
    8000420c:	41fd08bb          	subw	x17,x26,x31
    80004210:	00777f33          	and	x30,x14,x7
    80004214:	4010009b          	addiw	x1,x0,1025
    80004218:	01509093          	slli	x1,x1,0x15
    8000421c:	fcd09723          	sh	x13,-50(x1)
    80004220:	fce09683          	lh	x13,-50(x1)
    80004224:	fce0df03          	lhu	x30,-50(x1)
    80004228:	022474b3          	remu	x9,x8,x2
    8000422c:	40cd56b3          	sra	x13,x26,x12
    80004230:	003bea33          	or	x20,x23,x3
    80004234:	02a661b3          	rem	x3,x12,x10
    80004238:	010681bb          	addw	x3,x13,x16
    8000423c:	416dd233          	sra	x4,x27,x22
    80004240:	0337c833          	div	x16,x15,x19
    80004244:	02b1f8b3          	remu	x17,x3,x11
    80004248:	c4cfec37          	lui	x24,0xc4cfe
    8000424c:	006ca0b3          	slt	x1,x25,x6
    80004250:	01d1d033          	srl	x0,x3,x29
    80004254:	02faf433          	remu	x8,x21,x15
    80004258:	41fad333          	sra	x6,x21,x31
    8000425c:	038c8cb3          	mul	x25,x25,x24
    80004260:	001ceb33          	or	x22,x25,x1
    80004264:	0136aab3          	slt	x21,x13,x19
    80004268:	03d36a33          	rem	x20,x6,x29
    8000426c:	0193d033          	srl	x0,x7,x25
    80004270:	00ac3fb3          	sltu	x31,x24,x10
    80004274:	0284b033          	mulhu	x0,x9,x8
    80004278:	00466db3          	or	x27,x12,x4
    8000427c:	01d81a33          	sll	x20,x16,x29
    80004280:	91837293          	andi	x5,x6,-1768
    80004284:	02d9d533          	divu	x10,x19,x13
    80004288:	01d79a33          	sll	x20,x15,x29
    8000428c:	00bba3b3          	slt	x7,x23,x11
    80004290:	025250b3          	divu	x1,x4,x5
    80004294:	40110e33          	sub	x28,x2,x1
    80004298:	0219fb3b          	remuw	x22,x19,x1
    8000429c:	03bce23b          	remw	x4,x25,x27
    800042a0:	0017ecb3          	or	x25,x15,x1
    800042a4:	0163b033          	sltu	x0,x7,x22
    800042a8:	03945833          	divu	x16,x8,x25
    800042ac:	030dfebb          	remuw	x29,x27,x16
    800042b0:	41d951b3          	sra	x3,x18,x29
    800042b4:	03e3a133          	mulhsu	x2,x7,x30
    800042b8:	03896b3b          	remw	x22,x18,x24
    800042bc:	01d79c33          	sll	x24,x15,x29
    800042c0:	01b0af33          	slt	x30,x1,x27
    800042c4:	01175433          	srl	x8,x14,x17
    800042c8:	01900833          	add	x16,x0,x25
    800042cc:	0121db3b          	srlw	x22,x3,x18
    800042d0:	01e493b3          	sll	x7,x9,x30
    800042d4:	00e0eeb3          	or	x29,x1,x14
    800042d8:	01145fb3          	srl	x31,x8,x17
    800042dc:	0361b533          	mulhu	x10,x3,x22
    800042e0:	00e4b4b3          	sltu	x9,x9,x14
    800042e4:	00f90733          	add	x14,x18,x15
    800042e8:	0373023b          	mulw	x4,x6,x23
    800042ec:	0238b233          	mulhu	x4,x17,x3
    800042f0:	01a432b3          	sltu	x5,x8,x26
    800042f4:	03034fb3          	div	x31,x6,x16
    800042f8:	6eb67817          	auipc	x16,0x6eb67
    800042fc:	03af5d33          	divu	x26,x30,x26
    80004300:	027326b3          	mulhsu	x13,x6,x7
    80004304:	01a9dc33          	srl	x24,x19,x26
    80004308:	0375f133          	remu	x2,x11,x23
    8000430c:	01618e33          	add	x28,x3,x22
    80004310:	03e13433          	mulhu	x8,x2,x30
    80004314:	00ac2f33          	slt	x30,x24,x10
    80004318:	01c132b3          	sltu	x5,x2,x28
    8000431c:	0094b933          	sltu	x18,x9,x9
    80004320:	021026b3          	mulhsu	x13,x0,x1
    80004324:	02198a33          	mul	x20,x19,x1
    80004328:	03f5e533          	rem	x10,x11,x31
    8000432c:	01ade9b3          	or	x19,x27,x26
    80004330:	01f846b3          	xor	x13,x16,x31
    80004334:	0d7fb213          	sltiu	x4,x31,215
    80004338:	4019063b          	subw	x12,x18,x1
    8000433c:	0265f43b          	remuw	x8,x11,x6
    80004340:	00cb7133          	and	x2,x22,x12
    80004344:	0380dcb3          	divu	x25,x1,x24
    80004348:	039e6ab3          	rem	x21,x28,x25
    8000434c:	025a7233          	remu	x4,x20,x5
    80004350:	03da59b3          	divu	x19,x20,x29
    80004354:	41ad52b3          	sra	x5,x26,x26
    80004358:	02f589b3          	mul	x19,x11,x15
    8000435c:	418e053b          	subw	x10,x28,x24
    80004360:	0085d433          	srl	x8,x11,x8
    80004364:	02db1233          	mulh	x4,x22,x13
    80004368:	410d0fbb          	subw	x31,x26,x16
    8000436c:	02e86733          	rem	x14,x16,x14
    80004370:	02681c33          	mulh	x24,x16,x6
    80004374:	40b552b3          	sra	x5,x10,x11
    80004378:	029ebd33          	mulhu	x26,x29,x9
    8000437c:	73f70d93          	addi	x27,x14,1855 # 2246a73f <_start-0x5db958c1>
    80004380:	00613bb3          	sltu	x23,x2,x6
    80004384:	40880a3b          	subw	x20,x16,x8
    80004388:	40840233          	sub	x4,x8,x8
    8000438c:	03dfc533          	div	x10,x31,x29
    80004390:	03c689b3          	mul	x19,x13,x28
    80004394:	03b755b3          	divu	x11,x14,x27
    80004398:	00e6b4b3          	sltu	x9,x13,x14
    8000439c:	008552bb          	srlw	x5,x10,x8
    800043a0:	03263bb3          	mulhu	x23,x12,x18
    800043a4:	019a19b3          	sll	x19,x20,x25
    800043a8:	02974c33          	div	x24,x14,x9
    800043ac:	027a3fb3          	mulhu	x31,x20,x7
    800043b0:	02e2d7bb          	divuw	x15,x5,x14
    800043b4:	030b22b3          	mulhsu	x5,x22,x16
    800043b8:	41d205b3          	sub	x11,x4,x29
    800043bc:	d1f2ea93          	ori	x21,x5,-737
    800043c0:	00e5df3b          	srlw	x30,x11,x14
    800043c4:	41a70bbb          	subw	x23,x14,x26
    800043c8:	4010009b          	addiw	x1,x0,1025
    800043cc:	01509093          	slli	x1,x1,0x15
    800043d0:	ce909523          	sh	x9,-790(x1)
    800043d4:	cea09483          	lh	x9,-790(x1)
    800043d8:	cea0d283          	lhu	x5,-790(x1)
    800043dc:	010609b3          	add	x19,x12,x16
    800043e0:	411a5c33          	sra	x24,x20,x17
    800043e4:	038a4db3          	div	x27,x20,x24
    800043e8:	0132c133          	xor	x2,x5,x19
    800043ec:	0202483b          	divw	x16,x4,x0
    800043f0:	0324c633          	div	x12,x9,x18
    800043f4:	00f9ba33          	sltu	x20,x19,x15
    800043f8:	031221b3          	mulhsu	x3,x4,x17
    800043fc:	00b2a8b3          	slt	x17,x5,x11
    80004400:	0198d8b3          	srl	x17,x17,x25
    80004404:	0075debb          	srlw	x29,x11,x7
    80004408:	00920833          	add	x16,x4,x9
    8000440c:	0227e8bb          	remw	x17,x15,x2
    80004410:	414d033b          	subw	x6,x26,x20
    80004414:	007f8cbb          	addw	x25,x31,x7
    80004418:	019ed5bb          	srlw	x11,x29,x25
    8000441c:	00871a3b          	sllw	x20,x14,x8
    80004420:	408f53bb          	sraw	x7,x30,x8
    80004424:	0340ffbb          	remuw	x31,x1,x20
    80004428:	4085d4b3          	sra	x9,x11,x8
    8000442c:	4178db93          	srai	x23,x17,0x17
    80004430:	01650133          	add	x2,x10,x22
    80004434:	41f301b3          	sub	x3,x6,x31
    80004438:	41760cb3          	sub	x25,x12,x23
    8000443c:	02a57eb3          	remu	x29,x10,x10
    80004440:	01c20a3b          	addw	x20,x4,x28
    80004444:	01d71a3b          	sllw	x20,x14,x29
    80004448:	02772133          	mulhsu	x2,x14,x7
    8000444c:	0334473b          	divw	x14,x8,x19
    80004450:	02f5e5bb          	remw	x11,x11,x15
    80004454:	40870b33          	sub	x22,x14,x8
    80004458:	37d93193          	sltiu	x3,x18,893
    8000445c:	037c9bb3          	mulh	x23,x25,x23
    80004460:	4034d9b3          	sra	x19,x9,x3
    80004464:	02c035b3          	mulhu	x11,x0,x12
    80004468:	01cc6533          	or	x10,x24,x28
    8000446c:	032262bb          	remw	x5,x4,x18
    80004470:	0081e933          	or	x18,x3,x8
    80004474:	01538833          	add	x16,x7,x21
    80004478:	41acd633          	sra	x12,x25,x26
    8000447c:	0232e3bb          	remw	x7,x5,x3
    80004480:	00af593b          	srlw	x18,x30,x10
    80004484:	00bd16b3          	sll	x13,x26,x11
    80004488:	03b57a3b          	remuw	x20,x10,x27
    8000448c:	017662b3          	or	x5,x12,x23
    80004490:	00a550bb          	srlw	x1,x10,x10
    80004494:	032263bb          	remw	x7,x4,x18
    80004498:	01b59b33          	sll	x22,x11,x27
    8000449c:	416b0933          	sub	x18,x22,x22
    800044a0:	03bbd2bb          	divuw	x5,x23,x27
    800044a4:	40d284bb          	subw	x9,x5,x13
    800044a8:	02ef04b3          	mul	x9,x30,x14
    800044ac:	0239be33          	mulhu	x28,x19,x3
    800044b0:	40495cbb          	sraw	x25,x18,x4
    800044b4:	029e9cb3          	mulh	x25,x29,x9
    800044b8:	0225513b          	divuw	x2,x10,x2
    800044bc:	02f2ebb3          	rem	x23,x5,x15
    800044c0:	03afd2b3          	divu	x5,x31,x26
    800044c4:	418455b3          	sra	x11,x8,x24
    800044c8:	0268cd3b          	divw	x26,x17,x6
    800044cc:	013ffcb3          	and	x25,x31,x19
    800044d0:	01f16cb3          	or	x25,x2,x31
    800044d4:	02888c3b          	mulw	x24,x17,x8
    800044d8:	0159b433          	sltu	x8,x19,x21
    800044dc:	03db4ebb          	divw	x29,x22,x29
    800044e0:	01a48abb          	addw	x21,x9,x26
    800044e4:	01153133          	sltu	x2,x10,x17
    800044e8:	03a5f6bb          	remuw	x13,x11,x26
    800044ec:	410388bb          	subw	x17,x7,x16
    800044f0:	02207633          	remu	x12,x0,x2
    800044f4:	009835b3          	sltu	x11,x16,x9
    800044f8:	411c0b3b          	subw	x22,x24,x17
    800044fc:	03976c33          	rem	x24,x14,x25
    80004500:	00c97eb3          	and	x29,x18,x12
    80004504:	01dab733          	sltu	x14,x21,x29
    80004508:	03013c33          	mulhu	x24,x2,x16
    8000450c:	032d5233          	divu	x4,x26,x18
    80004510:	02ab4b33          	div	x22,x22,x10
    80004514:	0279be33          	mulhu	x28,x19,x7
    80004518:	7b4e7c97          	auipc	x25,0x7b4e7
    8000451c:	010c27b3          	slt	x15,x24,x16
    80004520:	03b366bb          	remw	x13,x6,x27
    80004524:	01ac8933          	add	x18,x25,x26
    80004528:	035a1c33          	mulh	x24,x20,x21
    8000452c:	02ceeab3          	rem	x21,x29,x12
    80004530:	011c8f33          	add	x30,x25,x17
    80004534:	010866b3          	or	x13,x16,x16
    80004538:	403089b3          	sub	x19,x1,x3
    8000453c:	03e65cbb          	divuw	x25,x12,x30
    80004540:	4079d233          	sra	x4,x19,x7
    80004544:	01be8c33          	add	x24,x29,x27
    80004548:	4010009b          	addiw	x1,x0,1025
    8000454c:	01509093          	slli	x1,x1,0x15
    80004550:	4070ae23          	sw	x7,1052(x1)
    80004554:	41c0a383          	lw	x7,1052(x1)
    80004558:	41c0e603          	lwu	x12,1052(x1)
    8000455c:	03c8b933          	mulhu	x18,x17,x28
    80004560:	02990033          	mul	x0,x18,x9
    80004564:	02b9f733          	remu	x14,x19,x11
    80004568:	01d5dd3b          	srlw	x26,x11,x29
    8000456c:	41400f33          	sub	x30,x0,x20
    80004570:	02365ab3          	divu	x21,x12,x3
    80004574:	40f2d933          	sra	x18,x5,x15
    80004578:	022a403b          	divw	x0,x20,x2
    8000457c:	0022ba33          	sltu	x20,x5,x2
    80004580:	0086de3b          	srlw	x28,x13,x8
    80004584:	01dd96b3          	sll	x13,x27,x29
    80004588:	0193ff33          	and	x30,x7,x25
    8000458c:	02c34cb3          	div	x25,x6,x12
    80004590:	00f7b4b3          	sltu	x9,x15,x15
    80004594:	03af94b3          	mulh	x9,x31,x26
    80004598:	02ee3733          	mulhu	x14,x28,x14
    8000459c:	03dde9bb          	remw	x19,x27,x29
    800045a0:	002c7933          	and	x18,x24,x2
    800045a4:	0244743b          	remuw	x8,x8,x4
    800045a8:	4010009b          	addiw	x1,x0,1025
    800045ac:	01509093          	slli	x1,x1,0x15
    800045b0:	4f708b23          	sb	x23,1270(x1)
    800045b4:	4f608b83          	lb	x23,1270(x1)
    800045b8:	4f60ce03          	lbu	x28,1270(x1)
    800045bc:	01e586bb          	addw	x13,x11,x30
    800045c0:	b085a797          	auipc	x15,0xb085a
    800045c4:	02d0e0bb          	remw	x1,x1,x13
    800045c8:	02c05133          	divu	x2,x0,x12
    800045cc:	009d9333          	sll	x6,x27,x9
    800045d0:	0159f633          	and	x12,x19,x21
    800045d4:	015cfa33          	and	x20,x25,x21
    800045d8:	0380753b          	remuw	x10,x0,x24
    800045dc:	4196853b          	subw	x10,x13,x25
    800045e0:	403cda3b          	sraw	x20,x25,x3
    800045e4:	01f333b3          	sltu	x7,x6,x31
    800045e8:	00d6813b          	addw	x2,x13,x13
    800045ec:	033a58b3          	divu	x17,x20,x19
    800045f0:	02af7d33          	remu	x26,x30,x10
    800045f4:	00760833          	add	x16,x12,x7
    800045f8:	033efc3b          	remuw	x24,x29,x19
    800045fc:	01fe5333          	srl	x6,x28,x31
    80004600:	015e87bb          	addw	x15,x29,x21
    80004604:	00745c33          	srl	x24,x8,x7
    80004608:	03455dbb          	divuw	x27,x10,x20
    8000460c:	03550fb3          	mul	x31,x10,x21
    80004610:	02b0c23b          	divw	x4,x1,x11
    80004614:	02bfdb33          	divu	x22,x31,x11
    80004618:	02d667bb          	remw	x15,x12,x13
    8000461c:	0001bbb3          	sltu	x23,x3,x0
    80004620:	40e70033          	sub	x0,x14,x14
    80004624:	41f7d03b          	sraw	x0,x15,x31
    80004628:	40640db3          	sub	x27,x8,x6
    8000462c:	02840333          	mul	x6,x8,x8
    80004630:	02be0633          	mul	x12,x28,x11
    80004634:	004b3933          	sltu	x18,x22,x4
    80004638:	0317e63b          	remw	x12,x15,x17
    8000463c:	72ff8cb7          	lui	x25,0x72ff8
    80004640:	025beeb3          	rem	x29,x23,x5
    80004644:	03ccef33          	rem	x30,x25,x28
    80004648:	4010009b          	addiw	x1,x0,1025
    8000464c:	01509093          	slli	x1,x1,0x15
    80004650:	f8d0aa23          	sw	x13,-108(x1)
    80004654:	f940a683          	lw	x13,-108(x1)
    80004658:	f940ef83          	lwu	x31,-108(x1)
    8000465c:	4130d933          	sra	x18,x1,x19
    80004660:	0223443b          	divw	x8,x6,x2
    80004664:	039085b3          	mul	x11,x1,x25
    80004668:	0136973b          	sllw	x14,x13,x19
    8000466c:	00fbb9b3          	sltu	x19,x23,x15
    80004670:	03dbfd33          	remu	x26,x23,x29
    80004674:	039aae33          	mulhsu	x28,x21,x25
    80004678:	03ed76b3          	remu	x13,x26,x30
    8000467c:	00a1f433          	and	x8,x3,x10
    80004680:	00e957b3          	srl	x15,x18,x14
    80004684:	022424b3          	mulhsu	x9,x8,x2
    80004688:	40825b3b          	sraw	x22,x4,x8
    8000468c:	03f52333          	mulhsu	x6,x10,x31
    80004690:	02f3f5bb          	remuw	x11,x7,x15
    80004694:	41915bbb          	sraw	x23,x2,x25
    80004698:	02918d33          	mul	x26,x3,x9
    8000469c:	032af3bb          	remuw	x7,x21,x18
    800046a0:	036704bb          	mulw	x9,x14,x22
    800046a4:	031ed933          	divu	x18,x29,x17
    800046a8:	005bdf9b          	srliw	x31,x23,0x5
    800046ac:	40f989bb          	subw	x19,x19,x15
    800046b0:	03e27ab3          	remu	x21,x4,x30
    800046b4:	01d51633          	sll	x12,x10,x29
    800046b8:	00579d3b          	sllw	x26,x15,x5
    800046bc:	41d888bb          	subw	x17,x17,x29
    800046c0:	41cb58b3          	sra	x17,x22,x28
    800046c4:	0238d5b3          	divu	x11,x17,x3
    800046c8:	0220d0bb          	divuw	x1,x1,x2
    800046cc:	41b441b7          	lui	x3,0x41b44
    800046d0:	01ec3a33          	sltu	x20,x24,x30
    800046d4:	02eaa333          	mulhsu	x6,x21,x14
    800046d8:	c36f4513          	xori	x10,x30,-970
    800046dc:	02f0723b          	remuw	x4,x0,x15
    800046e0:	0166d033          	srl	x0,x13,x22
    800046e4:	40b984b3          	sub	x9,x19,x11
    800046e8:	02019b13          	slli	x22,x3,0x20
    800046ec:	030a813b          	mulw	x2,x21,x16
    800046f0:	03533a33          	mulhu	x20,x6,x21
    800046f4:	40d08dbb          	subw	x27,x1,x13
    800046f8:	022b7dbb          	remuw	x27,x22,x2
    800046fc:	00afd1bb          	srlw	x3,x31,x10
    80004700:	008d6433          	or	x8,x26,x8
    80004704:	012dd133          	srl	x2,x27,x18
    80004708:	01aadcb3          	srl	x25,x21,x26
    8000470c:	01f7a533          	slt	x10,x15,x31
    80004710:	0140d2bb          	srlw	x5,x1,x20
    80004714:	01c35033          	srl	x0,x6,x28
    80004718:	018309bb          	addw	x19,x6,x24
    8000471c:	01e827b3          	slt	x15,x16,x30
    80004720:	0087e033          	or	x0,x15,x8
    80004724:	4010009b          	addiw	x1,x0,1025
    80004728:	01509093          	slli	x1,x1,0x15
    8000472c:	5940a623          	sw	x20,1420(x1)
    80004730:	58c0aa03          	lw	x20,1420(x1)
    80004734:	58c0ed03          	lwu	x26,1420(x1)
    80004738:	02f54eb3          	div	x29,x10,x15
    8000473c:	03b161bb          	remw	x3,x2,x27
    80004740:	412d59bb          	sraw	x19,x26,x18
    80004744:	021109b3          	mul	x19,x2,x1
    80004748:	410ad7b3          	sra	x15,x21,x16
    8000474c:	7ca1bd17          	auipc	x26,0x7ca1b
    80004750:	0074f433          	and	x8,x9,x7
    80004754:	002c5533          	srl	x10,x24,x2
    80004758:	00295eb3          	srl	x29,x18,x2
    8000475c:	03fe683b          	remw	x16,x28,x31
    80004760:	420cd793          	srai	x15,x25,0x20
    80004764:	01b54333          	xor	x6,x10,x27
    80004768:	03fcc4b3          	div	x9,x25,x31
    8000476c:	0270d5bb          	divuw	x11,x1,x7
    80004770:	03840bbb          	mulw	x23,x8,x24
    80004774:	011398b3          	sll	x17,x7,x17
    80004778:	00818233          	add	x4,x3,x8
    8000477c:	02bc8eb3          	mul	x29,x25,x11
    80004780:	41c7803b          	subw	x0,x15,x28
    80004784:	00e2ae33          	slt	x28,x5,x14
    80004788:	4d023097          	auipc	x1,0x4d023
    8000478c:	0369cc33          	div	x24,x19,x22
    80004790:	4010009b          	addiw	x1,x0,1025
    80004794:	01509093          	slli	x1,x1,0x15
    80004798:	6ca09423          	sh	x10,1736(x1) # cd027e50 <_start+0x4d027e50>
    8000479c:	6c809503          	lh	x10,1736(x1)
    800047a0:	6c80d483          	lhu	x9,1736(x1)
    800047a4:	031baeb3          	mulhsu	x29,x23,x17
    800047a8:	03c7a533          	mulhsu	x10,x15,x28
    800047ac:	02f0a2b3          	mulhsu	x5,x1,x15
    800047b0:	02b39c33          	mulh	x24,x7,x11
    800047b4:	011326b3          	slt	x13,x6,x17
    800047b8:	03c271b3          	remu	x3,x4,x28
    800047bc:	0220b4b3          	mulhu	x9,x1,x2
    800047c0:	4010009b          	addiw	x1,x0,1025
    800047c4:	01509093          	slli	x1,x1,0x15
    800047c8:	7cb0b823          	sd	x11,2000(x1)
    800047cc:	7d00b583          	ld	x11,2000(x1)
    800047d0:	02c8ab33          	mulhsu	x22,x17,x12
    800047d4:	01befbb3          	and	x23,x29,x27
    800047d8:	03b8ecbb          	remw	x25,x17,x27
    800047dc:	02627c3b          	remuw	x24,x4,x6
    800047e0:	01572033          	slt	x0,x14,x21
    800047e4:	037dbe33          	mulhu	x28,x27,x23
    800047e8:	026cc833          	div	x16,x25,x6
    800047ec:	02d905b3          	mul	x11,x18,x13
    800047f0:	02b5cc33          	div	x24,x11,x11
    800047f4:	028bd7b3          	divu	x15,x23,x8
    800047f8:	02604eb3          	div	x29,x0,x6
    800047fc:	0211c83b          	divw	x16,x3,x1
    80004800:	4025843b          	subw	x8,x11,x2
    80004804:	02edb2b3          	mulhu	x5,x27,x14
    80004808:	0120053b          	addw	x10,x0,x18
    8000480c:	0000d4bb          	srlw	x9,x1,x0
    80004810:	005333b3          	sltu	x7,x6,x5
    80004814:	01d28dbb          	addw	x27,x5,x29
    80004818:	03da4533          	div	x10,x20,x29
    8000481c:	0123971b          	slliw	x14,x7,0x12
    80004820:	0228c63b          	divw	x12,x17,x2
    80004824:	03f825b3          	mulhsu	x11,x16,x31
    80004828:	02b245bb          	divw	x11,x4,x11
    8000482c:	02e36abb          	remw	x21,x6,x14
    80004830:	00303db3          	sltu	x27,x0,x3
    80004834:	02f49ab3          	mulh	x21,x9,x15
    80004838:	000634b3          	sltu	x9,x12,x0
    8000483c:	01370c33          	add	x24,x14,x19
    80004840:	03011bb3          	mulh	x23,x2,x16
    80004844:	01e205b3          	add	x11,x4,x30
    80004848:	03588a3b          	mulw	x20,x17,x21
    8000484c:	026e0033          	mul	x0,x28,x6
    80004850:	412d033b          	subw	x6,x26,x18
    80004854:	0273db33          	divu	x22,x7,x7
    80004858:	03efeab3          	rem	x21,x31,x30
    8000485c:	01b097b3          	sll	x15,x1,x27
    80004860:	0342d633          	divu	x12,x5,x20
    80004864:	02817533          	remu	x10,x2,x8
    80004868:	003a9bbb          	sllw	x23,x21,x3
    8000486c:	0336bbb3          	mulhu	x23,x13,x19
    80004870:	41a58b3b          	subw	x22,x11,x26
    80004874:	02c0aeb3          	mulhsu	x29,x1,x12
    80004878:	02b9cb3b          	divw	x22,x19,x11
    8000487c:	033300b3          	mul	x1,x6,x19
    80004880:	03ae4f33          	div	x30,x28,x26
    80004884:	ff37819b          	addiw	x3,x15,-13 # 3085e5b3 <_start-0x4f7a1a4d>
    80004888:	02cd77b3          	remu	x15,x26,x12
    8000488c:	02b17bbb          	remuw	x23,x2,x11
    80004890:	01e0aab3          	slt	x21,x1,x30
    80004894:	01da4fb3          	xor	x31,x20,x29
    80004898:	02e8c33b          	divw	x6,x17,x14
    8000489c:	0259a433          	mulhsu	x8,x19,x5
    800048a0:	40d45133          	sra	x2,x8,x13
    800048a4:	02429633          	mulh	x12,x5,x4
    800048a8:	02c3d6b3          	divu	x13,x7,x12
    800048ac:	02585133          	divu	x2,x16,x5
    800048b0:	40ad0abb          	subw	x21,x26,x10
    800048b4:	0017cd33          	xor	x26,x15,x1
    800048b8:	007f043b          	addw	x8,x30,x7
    800048bc:	413a0ab3          	sub	x21,x20,x19
    800048c0:	039b7033          	remu	x0,x22,x25
    800048c4:	40bc57bb          	sraw	x15,x24,x11
    800048c8:	40fb093b          	subw	x18,x22,x15
    800048cc:	0382603b          	remw	x0,x4,x24
    800048d0:	00c416bb          	sllw	x13,x8,x12
    800048d4:	023842b3          	div	x5,x16,x3
    800048d8:	41bdd33b          	sraw	x6,x27,x27
    800048dc:	419a5933          	sra	x18,x20,x25
    800048e0:	00b2b633          	sltu	x12,x5,x11
    800048e4:	02157833          	remu	x16,x10,x1
    800048e8:	033fc9b3          	div	x19,x31,x19
    800048ec:	019acbb3          	xor	x23,x21,x25
    800048f0:	03112233          	mulhsu	x4,x2,x17
    800048f4:	02d11db3          	mulh	x27,x2,x13
    800048f8:	013e1abb          	sllw	x21,x28,x19
    800048fc:	0043883b          	addw	x16,x7,x4
    80004900:	4010009b          	addiw	x1,x0,1025
    80004904:	01509093          	slli	x1,x1,0x15
    80004908:	e500b023          	sd	x16,-448(x1)
    8000490c:	e400b803          	ld	x16,-448(x1)
    80004910:	40c686bb          	subw	x13,x13,x12
    80004914:	413e0833          	sub	x16,x28,x19
    80004918:	011501bb          	addw	x3,x10,x17
    8000491c:	035a8933          	mul	x18,x21,x21
    80004920:	0344e13b          	remw	x2,x9,x20
    80004924:	001bd53b          	srlw	x10,x23,x1
    80004928:	027c70b3          	remu	x1,x24,x7
    8000492c:	41495233          	sra	x4,x18,x20
    80004930:	026d42b3          	div	x5,x26,x6
    80004934:	00a2fbb3          	and	x23,x5,x10
    80004938:	01a5a233          	slt	x4,x11,x26
    8000493c:	026b6e33          	rem	x28,x22,x6
    80004940:	0079a5b3          	slt	x11,x19,x7
    80004944:	00c61c33          	sll	x24,x12,x12
    80004948:	40db53b3          	sra	x7,x22,x13
    8000494c:	029966b3          	rem	x13,x18,x9
    80004950:	401805bb          	subw	x11,x16,x1
    80004954:	029354b3          	divu	x9,x6,x9
    80004958:	016ab733          	sltu	x14,x21,x22
    8000495c:	403b53b3          	sra	x7,x22,x3
    80004960:	02615d33          	divu	x26,x2,x6
    80004964:	032ebe33          	mulhu	x28,x29,x18
    80004968:	02566033          	rem	x0,x12,x5
    8000496c:	008a1cbb          	sllw	x25,x20,x8
    80004970:	03c1013b          	mulw	x2,x2,x28
    80004974:	01d921b3          	slt	x3,x18,x29
    80004978:	01d3a9b3          	slt	x19,x7,x29
    8000497c:	41db87b3          	sub	x15,x23,x29
    80004980:	012965b3          	or	x11,x18,x18
    80004984:	02dcd8bb          	divuw	x17,x25,x13
    80004988:	024e8733          	mul	x14,x29,x4
    8000498c:	00a5c633          	xor	x12,x11,x10
    80004990:	4010009b          	addiw	x1,x0,1025
    80004994:	01509093          	slli	x1,x1,0x15
    80004998:	1b90aa23          	sw	x25,436(x1)
    8000499c:	1b40ac83          	lw	x25,436(x1)
    800049a0:	1b40e583          	lwu	x11,436(x1)
    800049a4:	0253cebb          	divw	x29,x7,x5
    800049a8:	01155333          	srl	x6,x10,x17
    800049ac:	039d76b3          	remu	x13,x26,x25
    800049b0:	41638ebb          	subw	x29,x7,x22
    800049b4:	03c00bbb          	mulw	x23,x0,x28
    800049b8:	0268a8b3          	mulhsu	x17,x17,x6
    800049bc:	033b5cb3          	divu	x25,x22,x19
    800049c0:	022ac2b3          	div	x5,x21,x2
    800049c4:	002831b3          	sltu	x3,x16,x2
    800049c8:	51432493          	slti	x9,x6,1300
    800049cc:	023f69bb          	remw	x19,x30,x3
    800049d0:	00afdb3b          	srlw	x22,x31,x10
    800049d4:	01e5fb33          	and	x22,x11,x30
    800049d8:	4010009b          	addiw	x1,x0,1025
    800049dc:	01509093          	slli	x1,x1,0x15
    800049e0:	b190a623          	sw	x25,-1268(x1)
    800049e4:	b0c0ac83          	lw	x25,-1268(x1)
    800049e8:	b0c0ea83          	lwu	x21,-1268(x1)
    800049ec:	02d26eb3          	rem	x29,x4,x13
    800049f0:	00ae70b3          	and	x1,x28,x10
    800049f4:	0319e0bb          	remw	x1,x19,x17
    800049f8:	02e1043b          	mulw	x8,x2,x14
    800049fc:	03de4933          	div	x18,x28,x29
    80004a00:	03b2fc33          	remu	x24,x5,x27
    80004a04:	01cd8f33          	add	x30,x27,x28
    80004a08:	40aed8b3          	sra	x17,x29,x10
    80004a0c:	0394533b          	divuw	x6,x8,x25
    80004a10:	38454517          	auipc	x10,0x38454
    80004a14:	00d36733          	or	x14,x6,x13
    80004a18:	014a913b          	sllw	x2,x21,x20
    80004a1c:	036c6a3b          	remw	x20,x24,x22
    80004a20:	015c7db3          	and	x27,x24,x21
    80004a24:	036bfeb3          	remu	x29,x23,x22
    80004a28:	020670bb          	remuw	x1,x12,x0
    80004a2c:	018f12bb          	sllw	x5,x30,x24
    80004a30:	029b003b          	mulw	x0,x22,x9
    80004a34:	007ff833          	and	x16,x31,x7
    80004a38:	02aa73bb          	remuw	x7,x20,x10
    80004a3c:	01317cb3          	and	x25,x2,x19
    80004a40:	03d7f73b          	remuw	x14,x15,x29
    80004a44:	023170bb          	remuw	x1,x2,x3
    80004a48:	0286c73b          	divw	x14,x13,x8
    80004a4c:	8a6b8693          	addi	x13,x23,-1882 # 30ee9446 <_start-0x4f116bba>
    80004a50:	4184df3b          	sraw	x30,x9,x24
    80004a54:	00b09b33          	sll	x22,x1,x11
    80004a58:	03bbf2bb          	remuw	x5,x23,x27
    80004a5c:	00c57433          	and	x8,x10,x12
    80004a60:	0248803b          	mulw	x0,x17,x4
    80004a64:	01190ebb          	addw	x29,x18,x17
    80004a68:	00364433          	xor	x8,x12,x3
    80004a6c:	02c164bb          	remw	x9,x2,x12
    80004a70:	40465a33          	sra	x20,x12,x4
    80004a74:	4010009b          	addiw	x1,x0,1025
    80004a78:	01509093          	slli	x1,x1,0x15
    80004a7c:	b2709d23          	sh	x7,-1222(x1)
    80004a80:	b3a09383          	lh	x7,-1222(x1)
    80004a84:	b3a0d383          	lhu	x7,-1222(x1)
    80004a88:	00765f3b          	srlw	x30,x12,x7
    80004a8c:	02ea793b          	remuw	x18,x20,x14
    80004a90:	02ff413b          	divw	x2,x30,x15
    80004a94:	036808bb          	mulw	x17,x16,x22
    80004a98:	00357d33          	and	x26,x10,x3
    80004a9c:	03db2fb3          	mulhsu	x31,x22,x29
    80004aa0:	007587b3          	add	x15,x11,x7
    80004aa4:	005082b3          	add	x5,x1,x5
    80004aa8:	031a64b3          	rem	x9,x20,x17
    80004aac:	008b1a33          	sll	x20,x22,x8
    80004ab0:	032ae3bb          	remw	x7,x21,x18
    80004ab4:	03f8ba33          	mulhu	x20,x17,x31
    80004ab8:	02b0f433          	remu	x8,x1,x11
    80004abc:	02c0aab3          	mulhsu	x21,x1,x12
    80004ac0:	01fb5e33          	srl	x28,x22,x31
    80004ac4:	0256093b          	mulw	x18,x12,x5
    80004ac8:	0048b2b3          	sltu	x5,x17,x4
    80004acc:	b6d12617          	auipc	x12,0xb6d12
    80004ad0:	03d804bb          	mulw	x9,x16,x29
    80004ad4:	02a0d3bb          	divuw	x7,x1,x10
    80004ad8:	03e458bb          	divuw	x17,x8,x30
    80004adc:	4010009b          	addiw	x1,x0,1025
    80004ae0:	01509093          	slli	x1,x1,0x15
    80004ae4:	67b09023          	sh	x27,1632(x1)
    80004ae8:	66009d83          	lh	x27,1632(x1)
    80004aec:	6600de83          	lhu	x29,1632(x1)
    80004af0:	009346b3          	xor	x13,x6,x9
    80004af4:	414d5fbb          	sraw	x31,x26,x20
    80004af8:	0393ee3b          	remw	x28,x7,x25
    80004afc:	407a8233          	sub	x4,x21,x7
    80004b00:	418b873b          	subw	x14,x23,x24
    80004b04:	02f5e93b          	remw	x18,x11,x15
    80004b08:	020791b3          	mulh	x3,x15,x0
    80004b0c:	004395b3          	sll	x11,x7,x4
    80004b10:	019f28b3          	slt	x17,x30,x25
    80004b14:	41688bb3          	sub	x23,x17,x22
    80004b18:	004d98b3          	sll	x17,x27,x4
    80004b1c:	0268d7bb          	divuw	x15,x17,x6
    80004b20:	0308503b          	divuw	x0,x16,x16
    80004b24:	01c810b3          	sll	x1,x16,x28
    80004b28:	004822b3          	slt	x5,x16,x4
    80004b2c:	016e52bb          	srlw	x5,x28,x22
    80004b30:	0111f0b3          	and	x1,x3,x17
    80004b34:	02e16d33          	rem	x26,x2,x14
    80004b38:	011c43b3          	xor	x7,x24,x17
    80004b3c:	0370a6b3          	mulhsu	x13,x1,x23
    80004b40:	41ab54bb          	sraw	x9,x22,x26
    80004b44:	0113fd33          	and	x26,x7,x17
    80004b48:	40d65633          	sra	x12,x12,x13
    80004b4c:	02e84f33          	div	x30,x16,x14
    80004b50:	40c15c33          	sra	x24,x2,x12
    80004b54:	021c16b3          	mulh	x13,x24,x1
    80004b58:	02b2f833          	remu	x16,x5,x11
    80004b5c:	02df03bb          	mulw	x7,x30,x13
    80004b60:	01da14bb          	sllw	x9,x20,x29
    80004b64:	03cc5eb3          	divu	x29,x24,x28
    80004b68:	03f29733          	mulh	x14,x5,x31
    80004b6c:	00b8fb33          	and	x22,x17,x11
    80004b70:	03a667bb          	remw	x15,x12,x26
    80004b74:	00df2033          	slt	x0,x30,x13
    80004b78:	0022a533          	slt	x10,x5,x2
    80004b7c:	014fd233          	srl	x4,x31,x20
    80004b80:	007d45b3          	xor	x11,x26,x7
    80004b84:	0237ff33          	remu	x30,x15,x3
    80004b88:	41f4d6bb          	sraw	x13,x9,x31
    80004b8c:	4010009b          	addiw	x1,x0,1025
    80004b90:	01509093          	slli	x1,x1,0x15
    80004b94:	7dd0bc23          	sd	x29,2008(x1)
    80004b98:	7d80be83          	ld	x29,2008(x1)
    80004b9c:	414603bb          	subw	x7,x12,x20
    80004ba0:	03399b33          	mulh	x22,x19,x19
    80004ba4:	02113fb3          	mulhu	x31,x2,x1
    80004ba8:	01782eb3          	slt	x29,x16,x23
    80004bac:	00481cbb          	sllw	x25,x16,x4
    80004bb0:	019501b3          	add	x3,x10,x25
    80004bb4:	03bf8f3b          	mulw	x30,x31,x27
    80004bb8:	003b1f3b          	sllw	x30,x22,x3
    80004bbc:	4010009b          	addiw	x1,x0,1025
    80004bc0:	01509093          	slli	x1,x1,0x15
    80004bc4:	ed70b023          	sd	x23,-320(x1)
    80004bc8:	ec00bb83          	ld	x23,-320(x1)
    80004bcc:	03a1e0b3          	rem	x1,x3,x26
    80004bd0:	5f8fe193          	ori	x3,x31,1528
    80004bd4:	40288e33          	sub	x28,x17,x2
    80004bd8:	00cbd733          	srl	x14,x23,x12
    80004bdc:	01a37c33          	and	x24,x6,x26
    80004be0:	0224b333          	mulhu	x6,x9,x2
    80004be4:	025b4fb3          	div	x31,x22,x5
    80004be8:	4171dd33          	sra	x26,x3,x23
    80004bec:	ad65e097          	auipc	x1,0xad65e
    80004bf0:	404ddcbb          	sraw	x25,x27,x4
    80004bf4:	40ae083b          	subw	x16,x28,x10
    80004bf8:	019554b3          	srl	x9,x10,x25
    80004bfc:	02f47f3b          	remuw	x30,x8,x15
    80004c00:	4010009b          	addiw	x1,x0,1025
    80004c04:	01509093          	slli	x1,x1,0x15
    80004c08:	f070bc23          	sd	x7,-232(x1) # 2d662b04 <_start-0x5299d4fc>
    80004c0c:	f180b383          	ld	x7,-232(x1)
    80004c10:	027785bb          	mulw	x11,x15,x7
    80004c14:	013126b3          	slt	x13,x2,x19
    80004c18:	039c6433          	rem	x8,x24,x25
    80004c1c:	037f3fb3          	mulhu	x31,x30,x23
    80004c20:	01f01e9b          	slliw	x29,x0,0x1f
    80004c24:	006f0533          	add	x10,x30,x6
    80004c28:	01747533          	and	x10,x8,x23
    80004c2c:	03f22a33          	mulhsu	x20,x4,x31
    80004c30:	41415e33          	sra	x28,x2,x20
    80004c34:	02e0d7b3          	divu	x15,x1,x14
    80004c38:	0286cb3b          	divw	x22,x13,x8
    80004c3c:	027ab833          	mulhu	x16,x21,x7
    80004c40:	03b75c3b          	divuw	x24,x14,x27
    80004c44:	037354b3          	divu	x9,x6,x23
    80004c48:	03cae233          	rem	x4,x21,x28
    80004c4c:	4161dabb          	sraw	x21,x3,x22
    80004c50:	03344533          	div	x10,x8,x19
    80004c54:	01264e33          	xor	x28,x12,x18
    80004c58:	03291e33          	mulh	x28,x18,x18
    80004c5c:	02208c3b          	mulw	x24,x1,x2
    80004c60:	00709f3b          	sllw	x30,x1,x7
    80004c64:	40c657b3          	sra	x15,x12,x12
    80004c68:	02b85fb3          	divu	x31,x16,x11
    80004c6c:	02e8bb33          	mulhu	x22,x17,x14
    80004c70:	021f0233          	mul	x4,x30,x1
    80004c74:	41c6deb3          	sra	x29,x13,x28
    80004c78:	03716f33          	rem	x30,x2,x23
    80004c7c:	03b8a233          	mulhsu	x4,x17,x27
    80004c80:	014d31b3          	sltu	x3,x26,x20
    80004c84:	41745e3b          	sraw	x28,x8,x23
    80004c88:	0246c0b3          	div	x1,x13,x4
    80004c8c:	417d0b3b          	subw	x22,x26,x23
    80004c90:	bc3eb937          	lui	x18,0xbc3eb
    80004c94:	00e23fb3          	sltu	x31,x4,x14
    80004c98:	03c324b3          	mulhsu	x9,x6,x28
    80004c9c:	032b7733          	remu	x14,x22,x18
    80004ca0:	024e4033          	div	x0,x28,x4
    80004ca4:	03a76ab3          	rem	x21,x14,x26
    80004ca8:	4010009b          	addiw	x1,x0,1025
    80004cac:	01509093          	slli	x1,x1,0x15
    80004cb0:	388084a3          	sb	x8,905(x1)
    80004cb4:	38908403          	lb	x8,905(x1)
    80004cb8:	3890ca03          	lbu	x20,905(x1)
    80004cbc:	020a84b3          	mul	x9,x21,x0
    80004cc0:	024e5533          	divu	x10,x28,x4
    80004cc4:	41a8523b          	sraw	x4,x16,x26
    80004cc8:	41cb5a3b          	sraw	x20,x22,x28
    80004ccc:	022b2733          	mulhsu	x14,x22,x2
    80004cd0:	0025513b          	srlw	x2,x10,x2
    80004cd4:	00475c3b          	srlw	x24,x14,x4
    80004cd8:	00b084b3          	add	x9,x1,x11
    80004cdc:	004bddbb          	srlw	x27,x23,x4
    80004ce0:	414e82bb          	subw	x5,x29,x20
    80004ce4:	010d9833          	sll	x16,x27,x16
    80004ce8:	01df4333          	xor	x6,x30,x29
    80004cec:	4010009b          	addiw	x1,x0,1025
    80004cf0:	01509093          	slli	x1,x1,0x15
    80004cf4:	2af0bc23          	sd	x15,696(x1)
    80004cf8:	2b80b783          	ld	x15,696(x1)
    80004cfc:	008d0933          	add	x18,x26,x8
    80004d00:	034820b3          	mulhsu	x1,x16,x20
    80004d04:	00b68fb3          	add	x31,x13,x11
    80004d08:	03416f33          	rem	x30,x2,x20
    80004d0c:	41500c3b          	subw	x24,x0,x21
    80004d10:	030b1db3          	mulh	x27,x22,x16
    80004d14:	001b53bb          	srlw	x7,x22,x1
    80004d18:	004a969b          	slliw	x13,x21,0x4
    80004d1c:	039123b3          	mulhsu	x7,x2,x25
    80004d20:	02c00e3b          	mulw	x28,x0,x12
    80004d24:	40c786b3          	sub	x13,x15,x12
    80004d28:	ca3257b7          	lui	x15,0xca325
    80004d2c:	025b4ab3          	div	x21,x22,x5
    80004d30:	01910a3b          	addw	x20,x2,x25
    80004d34:	0399513b          	divuw	x2,x18,x25
    80004d38:	02e754bb          	divuw	x9,x14,x14
    80004d3c:	0270e83b          	remw	x16,x1,x7
    80004d40:	008eca33          	xor	x20,x29,x8
    80004d44:	010959b3          	srl	x19,x18,x16
    80004d48:	03157633          	remu	x12,x10,x17
    80004d4c:	402585bb          	subw	x11,x11,x2
    80004d50:	0118053b          	addw	x10,x16,x17
    80004d54:	00ac10b3          	sll	x1,x24,x10
    80004d58:	033e95b3          	mulh	x11,x29,x19
    80004d5c:	00290e3b          	addw	x28,x18,x2
    80004d60:	41ba8db3          	sub	x27,x21,x27
    80004d64:	4153d133          	sra	x2,x7,x21
    80004d68:	549c63b7          	lui	x7,0x549c6
    80004d6c:	028bd233          	divu	x4,x23,x8
    80004d70:	027158bb          	divuw	x17,x2,x7
    80004d74:	03358db3          	mul	x27,x11,x19
    80004d78:	02bfed33          	rem	x26,x31,x11
    80004d7c:	00d96133          	or	x2,x18,x13
    80004d80:	002e0db3          	add	x27,x28,x2
    80004d84:	41db559b          	sraiw	x11,x22,0x1d
    80004d88:	02ac6533          	rem	x10,x24,x10
    80004d8c:	40a78eb3          	sub	x29,x15,x10
    80004d90:	01577733          	and	x14,x14,x21
    80004d94:	021cd4bb          	divuw	x9,x25,x1
    80004d98:	009032b3          	sltu	x5,x0,x9
    80004d9c:	86bbdc97          	auipc	x25,0x86bbd
    80004da0:	019c15bb          	sllw	x11,x24,x25
    80004da4:	01ecdc3b          	srlw	x24,x25,x30
    80004da8:	021fa533          	mulhsu	x10,x31,x1
    80004dac:	00c69533          	sll	x10,x13,x12
    80004db0:	02fef4bb          	remuw	x9,x29,x15
    80004db4:	0313eb33          	rem	x22,x7,x17
    80004db8:	03ccd333          	divu	x6,x25,x28
    80004dbc:	03c5e33b          	remw	x6,x11,x28
    80004dc0:	00f51a3b          	sllw	x20,x10,x15
    80004dc4:	00abf3b3          	and	x7,x23,x10
    80004dc8:	035753b3          	divu	x7,x14,x21
    80004dcc:	02fbf1bb          	remuw	x3,x23,x15
    80004dd0:	40b45033          	sra	x0,x8,x11
    80004dd4:	00951033          	sll	x0,x10,x9
    80004dd8:	03f87c33          	remu	x24,x16,x31
    80004ddc:	02cf1c33          	mulh	x24,x30,x12
    80004de0:	00067133          	and	x2,x12,x0
    80004de4:	41b557bb          	sraw	x15,x10,x27
    80004de8:	41d3863b          	subw	x12,x7,x29
    80004dec:	032b4f3b          	divw	x30,x22,x18
    80004df0:	037d89b3          	mul	x19,x27,x23
    80004df4:	02fd7ab3          	remu	x21,x26,x15
    80004df8:	0231713b          	remuw	x2,x2,x3
    80004dfc:	00adaab3          	slt	x21,x27,x10
    80004e00:	004c7933          	and	x18,x24,x4
    80004e04:	0232eabb          	remw	x21,x5,x3
    80004e08:	0343f83b          	remuw	x16,x7,x20
    80004e0c:	00ea80b3          	add	x1,x21,x14
    80004e10:	40c58bbb          	subw	x23,x11,x12
    80004e14:	005a67b3          	or	x15,x20,x5
    80004e18:	032014b3          	mulh	x9,x0,x18
    80004e1c:	01658233          	add	x4,x11,x22
    80004e20:	01c785b3          	add	x11,x15,x28
    80004e24:	41eddcbb          	sraw	x25,x27,x30
    80004e28:	02f5c73b          	divw	x14,x11,x15
    80004e2c:	020a623b          	remw	x4,x20,x0
    80004e30:	000549b3          	xor	x19,x10,x0
    80004e34:	01c68833          	add	x16,x13,x28
    80004e38:	010e903b          	sllw	x0,x29,x16
    80004e3c:	4003d1b3          	sra	x3,x7,x0
    80004e40:	007824b3          	slt	x9,x16,x7
    80004e44:	00c078b3          	and	x17,x0,x12
    80004e48:	03ce6cbb          	remw	x25,x28,x28
    80004e4c:	00c81b3b          	sllw	x22,x16,x12
    80004e50:	0138db3b          	srlw	x22,x17,x19
    80004e54:	0334abb3          	mulhsu	x23,x9,x19
    80004e58:	02885cbb          	divuw	x25,x16,x8
    80004e5c:	03997fbb          	remuw	x31,x18,x25
    80004e60:	00219cbb          	sllw	x25,x3,x2
    80004e64:	01291a33          	sll	x20,x18,x18
    80004e68:	01acd833          	srl	x16,x25,x26
    80004e6c:	033e1cb3          	mulh	x25,x28,x19
    80004e70:	405f883b          	subw	x16,x31,x5
    80004e74:	01b8843b          	addw	x8,x17,x27
    80004e78:	015adcbb          	srlw	x25,x21,x21
    80004e7c:	03199133          	mulh	x2,x19,x17
    80004e80:	001fb833          	sltu	x16,x31,x1
    80004e84:	02c93133          	mulhu	x2,x18,x12
    80004e88:	41030cbb          	subw	x25,x6,x16
    80004e8c:	015c15b3          	sll	x11,x24,x21
    80004e90:	0372fe33          	remu	x28,x5,x23
    80004e94:	02c636b3          	mulhu	x13,x12,x12
    80004e98:	02661bb3          	mulh	x23,x12,x6
    80004e9c:	03ad86bb          	mulw	x13,x27,x26
    80004ea0:	41a25133          	sra	x2,x4,x26
    80004ea4:	418558bb          	sraw	x17,x10,x24
    80004ea8:	01dfff33          	and	x30,x31,x29
    80004eac:	008502b3          	add	x5,x10,x8
    80004eb0:	01f6b4b3          	sltu	x9,x13,x31
    80004eb4:	03b8c93b          	divw	x18,x17,x27
    80004eb8:	03576a3b          	remw	x20,x14,x21
    80004ebc:	03784d33          	div	x26,x16,x23
    80004ec0:	004d8fbb          	addw	x31,x27,x4
    80004ec4:	00860c3b          	addw	x24,x12,x8
    80004ec8:	4010009b          	addiw	x1,x0,1025
    80004ecc:	01509093          	slli	x1,x1,0x15
    80004ed0:	0820b023          	sd	x2,128(x1)
    80004ed4:	0800b103          	ld	x2,128(x1)
    80004ed8:	00ea1633          	sll	x12,x20,x14
    80004edc:	03f27c3b          	remuw	x24,x4,x31
    80004ee0:	008d6db3          	or	x27,x26,x8
    80004ee4:	03875d33          	divu	x26,x14,x24
    80004ee8:	028e493b          	divw	x18,x28,x8
    80004eec:	01e354b3          	srl	x9,x6,x30
    80004ef0:	033803bb          	mulw	x7,x16,x19
    80004ef4:	02be873b          	mulw	x14,x29,x11
    80004ef8:	01627433          	and	x8,x4,x22
    80004efc:	0008e0b3          	or	x1,x17,x0
    80004f00:	023b5433          	divu	x8,x22,x3
    80004f04:	7a3faf93          	slti	x31,x31,1955
    80004f08:	01fff433          	and	x8,x31,x31
    80004f0c:	02ee78bb          	remuw	x17,x28,x14
    80004f10:	03e5b233          	mulhu	x4,x11,x30
    80004f14:	034b1333          	mulh	x6,x22,x20
    80004f18:	0354edb3          	rem	x27,x9,x21
    80004f1c:	01f95133          	srl	x2,x18,x31
    80004f20:	4148833b          	subw	x6,x17,x20
    80004f24:	01b900bb          	addw	x1,x18,x27
    80004f28:	00eaf0b3          	and	x1,x21,x14
    80004f2c:	028d8bbb          	mulw	x23,x27,x8
    80004f30:	011183bb          	addw	x7,x3,x17
    80004f34:	41b4d03b          	sraw	x0,x9,x27
    80004f38:	0362e8b3          	rem	x17,x5,x22
    80004f3c:	00b3cf33          	xor	x30,x7,x11
    80004f40:	02857abb          	remuw	x21,x10,x8
    80004f44:	4187d393          	srai	x7,x15,0x18
    80004f48:	400d8e3b          	subw	x28,x27,x0
    80004f4c:	0261d3bb          	divuw	x7,x3,x6
    80004f50:	00c01d3b          	sllw	x26,x0,x12
    80004f54:	034c02b3          	mul	x5,x24,x20
    80004f58:	02f69fb3          	mulh	x31,x13,x15
    80004f5c:	012205b3          	add	x11,x4,x18
    80004f60:	039d64bb          	remw	x9,x26,x25
    80004f64:	036168bb          	remw	x17,x2,x22
    80004f68:	02ead33b          	divuw	x6,x21,x14
    80004f6c:	1177a413          	slti	x8,x15,279
    80004f70:	03c83933          	mulhu	x18,x16,x28
    80004f74:	014822b3          	slt	x5,x16,x20
