
./rv-print.elf:     file format elf64-littleriscv


Disassembly of section .text:

0000000060000000 <_start>:
    60000000:	00000093          	addi	x1,x0,0
    60000004:	00000113          	addi	x2,x0,0
    60000008:	00000193          	addi	x3,x0,0
    6000000c:	00000213          	addi	x4,x0,0
    60000010:	00000293          	addi	x5,x0,0
    60000014:	00000313          	addi	x6,x0,0
    60000018:	00000393          	addi	x7,x0,0
    6000001c:	00000413          	addi	x8,x0,0
    60000020:	00000493          	addi	x9,x0,0
    60000024:	00000513          	addi	x10,x0,0
    60000028:	00000593          	addi	x11,x0,0
    6000002c:	00000613          	addi	x12,x0,0
    60000030:	00000693          	addi	x13,x0,0
    60000034:	00000713          	addi	x14,x0,0
    60000038:	00000793          	addi	x15,x0,0
    6000003c:	00000813          	addi	x16,x0,0
    60000040:	00000893          	addi	x17,x0,0
    60000044:	00000913          	addi	x18,x0,0
    60000048:	00000993          	addi	x19,x0,0
    6000004c:	00000a13          	addi	x20,x0,0
    60000050:	00000a93          	addi	x21,x0,0
    60000054:	00000b13          	addi	x22,x0,0
    60000058:	00000b93          	addi	x23,x0,0
    6000005c:	00000c13          	addi	x24,x0,0
    60000060:	00000c93          	addi	x25,x0,0
    60000064:	00000d13          	addi	x26,x0,0
    60000068:	00000d93          	addi	x27,x0,0
    6000006c:	00000e13          	addi	x28,x0,0
    60000070:	00000e93          	addi	x29,x0,0
    60000074:	00000f13          	addi	x30,x0,0
    60000078:	00000f93          	addi	x31,x0,0
    6000007c:	00001117          	auipc	x2,0x1
    60000080:	e4c10113          	addi	x2,x2,-436 # 60000ec8 <bootstacktop>
    60000084:	3f8000ef          	jal	x1,6000047c <cmain>

0000000060000088 <poweroff>:
    60000088:	0000006f          	jal	x0,60000088 <poweroff>

000000006000008c <uart_put_c>:
    6000008c:	60100737          	lui	x14,0x60100
    60000090:	00872783          	lw	x15,8(x14) # 60100008 <bootstacktop+0xff140>
    60000094:	0087f793          	andi	x15,x15,8
    60000098:	fe079ce3          	bne	x15,x0,60000090 <uart_put_c+0x4>
    6000009c:	0005051b          	addiw	x10,x10,0
    600000a0:	00a72223          	sw	x10,4(x14)
    600000a4:	00008067          	jalr	x0,0(x1)

00000000600000a8 <uart_check_read>:
    600000a8:	601007b7          	lui	x15,0x60100
    600000ac:	0087a503          	lw	x10,8(x15) # 60100008 <bootstacktop+0xff140>
    600000b0:	00157513          	andi	x10,x10,1
    600000b4:	00008067          	jalr	x0,0(x1)

00000000600000b8 <uart_get_c>:
    600000b8:	601007b7          	lui	x15,0x60100
    600000bc:	0007a503          	lw	x10,0(x15) # 60100000 <bootstacktop+0xff138>
    600000c0:	0ff57513          	andi	x10,x10,255
    600000c4:	00008067          	jalr	x0,0(x1)

00000000600000c8 <print_s>:
    600000c8:	00054683          	lbu	x13,0(x10)
    600000cc:	02068463          	beq	x13,x0,600000f4 <print_s+0x2c>
    600000d0:	60100737          	lui	x14,0x60100
    600000d4:	00872783          	lw	x15,8(x14) # 60100008 <bootstacktop+0xff140>
    600000d8:	0087f793          	andi	x15,x15,8
    600000dc:	fe079ce3          	bne	x15,x0,600000d4 <print_s+0xc>
    600000e0:	0006869b          	addiw	x13,x13,0
    600000e4:	00d72223          	sw	x13,4(x14)
    600000e8:	00154683          	lbu	x13,1(x10)
    600000ec:	00150513          	addi	x10,x10,1
    600000f0:	fe0692e3          	bne	x13,x0,600000d4 <print_s+0xc>
    600000f4:	00008067          	jalr	x0,0(x1)

00000000600000f8 <print_long>:
    600000f8:	fc010113          	addi	x2,x2,-64
    600000fc:	02813823          	sd	x8,48(x2)
    60000100:	02113c23          	sd	x1,56(x2)
    60000104:	00050413          	addi	x8,x10,0
    60000108:	0c054a63          	blt	x10,x0,600001dc <print_long+0xe4>
    6000010c:	60100737          	lui	x14,0x60100
    60000110:	0a050463          	beq	x10,x0,600001b8 <print_long+0xc0>
    60000114:	02913423          	sd	x9,40(x2)
    60000118:	03213023          	sd	x18,32(x2)
    6000011c:	00010913          	addi	x18,x2,0
    60000120:	00090493          	addi	x9,x18,0
    60000124:	00a00593          	addi	x11,x0,10
    60000128:	00040513          	addi	x10,x8,0
    6000012c:	3c8000ef          	jal	x1,600004f4 <__divdi3>
    60000130:	00050793          	addi	x15,x10,0
    60000134:	00a00593          	addi	x11,x0,10
    60000138:	00040513          	addi	x10,x8,0
    6000013c:	00078413          	addi	x8,x15,0
    60000140:	438000ef          	jal	x1,60000578 <__moddi3>
    60000144:	0305051b          	addiw	x10,x10,48
    60000148:	00a48023          	sb	x10,0(x9)
    6000014c:	00048793          	addi	x15,x9,0
    60000150:	00148493          	addi	x9,x9,1
    60000154:	fc0418e3          	bne	x8,x0,60000124 <print_long+0x2c>
    60000158:	412787bb          	subw	x15,x15,x18
    6000015c:	0017871b          	addiw	x14,x15,1
    60000160:	fff7079b          	addiw	x15,x14,-1 # 600fffff <bootstacktop+0xff137>
    60000164:	fff90593          	addi	x11,x18,-1
    60000168:	02079793          	slli	x15,x15,0x20
    6000016c:	00e585b3          	add	x11,x11,x14
    60000170:	0207d793          	srli	x15,x15,0x20
    60000174:	00e906b3          	add	x13,x18,x14
    60000178:	40f585b3          	sub	x11,x11,x15
    6000017c:	60100737          	lui	x14,0x60100
    60000180:	fff6c603          	lbu	x12,-1(x13)
    60000184:	00872783          	lw	x15,8(x14) # 60100008 <bootstacktop+0xff140>
    60000188:	0087f793          	andi	x15,x15,8
    6000018c:	fe079ce3          	bne	x15,x0,60000184 <print_long+0x8c>
    60000190:	0006079b          	addiw	x15,x12,0
    60000194:	00f72223          	sw	x15,4(x14)
    60000198:	fff68693          	addi	x13,x13,-1
    6000019c:	feb692e3          	bne	x13,x11,60000180 <print_long+0x88>
    600001a0:	03813083          	ld	x1,56(x2)
    600001a4:	03013403          	ld	x8,48(x2)
    600001a8:	02813483          	ld	x9,40(x2)
    600001ac:	02013903          	ld	x18,32(x2)
    600001b0:	04010113          	addi	x2,x2,64
    600001b4:	00008067          	jalr	x0,0(x1)
    600001b8:	00872783          	lw	x15,8(x14)
    600001bc:	0087f793          	andi	x15,x15,8
    600001c0:	fe079ce3          	bne	x15,x0,600001b8 <print_long+0xc0>
    600001c4:	03813083          	ld	x1,56(x2)
    600001c8:	03013403          	ld	x8,48(x2)
    600001cc:	03000793          	addi	x15,x0,48
    600001d0:	00f72223          	sw	x15,4(x14)
    600001d4:	04010113          	addi	x2,x2,64
    600001d8:	00008067          	jalr	x0,0(x1)
    600001dc:	02913423          	sd	x9,40(x2)
    600001e0:	03213023          	sd	x18,32(x2)
    600001e4:	60100737          	lui	x14,0x60100
    600001e8:	00872783          	lw	x15,8(x14) # 60100008 <bootstacktop+0xff140>
    600001ec:	0087f793          	andi	x15,x15,8
    600001f0:	fe079ce3          	bne	x15,x0,600001e8 <print_long+0xf0>
    600001f4:	02d00793          	addi	x15,x0,45
    600001f8:	00f72223          	sw	x15,4(x14)
    600001fc:	40800433          	sub	x8,x0,x8
    60000200:	f1dff06f          	jal	x0,6000011c <print_long+0x24>

0000000060000204 <print_digit>:
    60000204:	0305051b          	addiw	x10,x10,48
    60000208:	0ff57513          	andi	x10,x10,255
    6000020c:	60100737          	lui	x14,0x60100
    60000210:	00872783          	lw	x15,8(x14) # 60100008 <bootstacktop+0xff140>
    60000214:	0087f793          	andi	x15,x15,8
    60000218:	fe079ce3          	bne	x15,x0,60000210 <print_digit+0xc>
    6000021c:	0005079b          	addiw	x15,x10,0
    60000220:	00f72223          	sw	x15,4(x14)
    60000224:	00008067          	jalr	x0,0(x1)

0000000060000228 <dump_hex>:
    60000228:	ff010113          	addi	x2,x2,-16
    6000022c:	60100737          	lui	x14,0x60100
    60000230:	00872783          	lw	x15,8(x14) # 60100008 <bootstacktop+0xff140>
    60000234:	0087f793          	andi	x15,x15,8
    60000238:	fe079ce3          	bne	x15,x0,60000230 <dump_hex+0x8>
    6000023c:	03000793          	addi	x15,x0,48
    60000240:	00f72223          	sw	x15,4(x14)
    60000244:	60100737          	lui	x14,0x60100
    60000248:	00872783          	lw	x15,8(x14) # 60100008 <bootstacktop+0xff140>
    6000024c:	0087f793          	andi	x15,x15,8
    60000250:	fe079ce3          	bne	x15,x0,60000248 <dump_hex+0x20>
    60000254:	07800793          	addi	x15,x0,120
    60000258:	00f57613          	andi	x12,x10,15
    6000025c:	00f72223          	sw	x15,4(x14)
    60000260:	00900713          	addi	x14,x0,9
    60000264:	03060693          	addi	x13,x12,48
    60000268:	00c77463          	bgeu	x14,x12,60000270 <dump_hex+0x48>
    6000026c:	05760693          	addi	x13,x12,87
    60000270:	00455793          	srli	x15,x10,0x4
    60000274:	00f7f713          	andi	x14,x15,15
    60000278:	00d10023          	sb	x13,0(x2)
    6000027c:	00900613          	addi	x12,x0,9
    60000280:	03070693          	addi	x13,x14,48
    60000284:	00e67463          	bgeu	x12,x14,6000028c <dump_hex+0x64>
    60000288:	05770693          	addi	x13,x14,87
    6000028c:	00855793          	srli	x15,x10,0x8
    60000290:	00f7f713          	andi	x14,x15,15
    60000294:	00d100a3          	sb	x13,1(x2)
    60000298:	00900613          	addi	x12,x0,9
    6000029c:	03070693          	addi	x13,x14,48
    600002a0:	00e67463          	bgeu	x12,x14,600002a8 <dump_hex+0x80>
    600002a4:	05770693          	addi	x13,x14,87
    600002a8:	00c55793          	srli	x15,x10,0xc
    600002ac:	00f7f713          	andi	x14,x15,15
    600002b0:	00d10123          	sb	x13,2(x2)
    600002b4:	00900613          	addi	x12,x0,9
    600002b8:	03070693          	addi	x13,x14,48
    600002bc:	00e67463          	bgeu	x12,x14,600002c4 <dump_hex+0x9c>
    600002c0:	05770693          	addi	x13,x14,87
    600002c4:	01055793          	srli	x15,x10,0x10
    600002c8:	00f7f713          	andi	x14,x15,15
    600002cc:	00d101a3          	sb	x13,3(x2)
    600002d0:	00900613          	addi	x12,x0,9
    600002d4:	03070693          	addi	x13,x14,48
    600002d8:	00e67463          	bgeu	x12,x14,600002e0 <dump_hex+0xb8>
    600002dc:	05770693          	addi	x13,x14,87
    600002e0:	01455793          	srli	x15,x10,0x14
    600002e4:	00f7f713          	andi	x14,x15,15
    600002e8:	00d10223          	sb	x13,4(x2)
    600002ec:	00900613          	addi	x12,x0,9
    600002f0:	03070693          	addi	x13,x14,48
    600002f4:	00e67463          	bgeu	x12,x14,600002fc <dump_hex+0xd4>
    600002f8:	05770693          	addi	x13,x14,87
    600002fc:	01855793          	srli	x15,x10,0x18
    60000300:	00f7f713          	andi	x14,x15,15
    60000304:	00d102a3          	sb	x13,5(x2)
    60000308:	00900613          	addi	x12,x0,9
    6000030c:	03070693          	addi	x13,x14,48
    60000310:	00e67463          	bgeu	x12,x14,60000318 <dump_hex+0xf0>
    60000314:	05770693          	addi	x13,x14,87
    60000318:	01c5571b          	srliw	x14,x10,0x1c
    6000031c:	00d10323          	sb	x13,6(x2)
    60000320:	00900613          	addi	x12,x0,9
    60000324:	03070693          	addi	x13,x14,48
    60000328:	00e67463          	bgeu	x12,x14,60000330 <dump_hex+0x108>
    6000032c:	05770693          	addi	x13,x14,87
    60000330:	02055793          	srli	x15,x10,0x20
    60000334:	00f7f713          	andi	x14,x15,15
    60000338:	00d103a3          	sb	x13,7(x2)
    6000033c:	00900613          	addi	x12,x0,9
    60000340:	03070693          	addi	x13,x14,48
    60000344:	00e67463          	bgeu	x12,x14,6000034c <dump_hex+0x124>
    60000348:	05770693          	addi	x13,x14,87
    6000034c:	02455793          	srli	x15,x10,0x24
    60000350:	00f7f713          	andi	x14,x15,15
    60000354:	00d10423          	sb	x13,8(x2)
    60000358:	00900613          	addi	x12,x0,9
    6000035c:	03070693          	addi	x13,x14,48
    60000360:	00e67463          	bgeu	x12,x14,60000368 <dump_hex+0x140>
    60000364:	05770693          	addi	x13,x14,87
    60000368:	02855793          	srli	x15,x10,0x28
    6000036c:	00f7f713          	andi	x14,x15,15
    60000370:	00d104a3          	sb	x13,9(x2)
    60000374:	00900613          	addi	x12,x0,9
    60000378:	03070693          	addi	x13,x14,48
    6000037c:	00e67463          	bgeu	x12,x14,60000384 <dump_hex+0x15c>
    60000380:	05770693          	addi	x13,x14,87
    60000384:	02c55793          	srli	x15,x10,0x2c
    60000388:	00f7f713          	andi	x14,x15,15
    6000038c:	00d10523          	sb	x13,10(x2)
    60000390:	00900613          	addi	x12,x0,9
    60000394:	03070693          	addi	x13,x14,48
    60000398:	00e67463          	bgeu	x12,x14,600003a0 <dump_hex+0x178>
    6000039c:	05770693          	addi	x13,x14,87
    600003a0:	03055793          	srli	x15,x10,0x30
    600003a4:	00f7f713          	andi	x14,x15,15
    600003a8:	00d105a3          	sb	x13,11(x2)
    600003ac:	00900613          	addi	x12,x0,9
    600003b0:	03070693          	addi	x13,x14,48
    600003b4:	00e67463          	bgeu	x12,x14,600003bc <dump_hex+0x194>
    600003b8:	05770693          	addi	x13,x14,87
    600003bc:	03455793          	srli	x15,x10,0x34
    600003c0:	00f7f713          	andi	x14,x15,15
    600003c4:	00d10623          	sb	x13,12(x2)
    600003c8:	00900613          	addi	x12,x0,9
    600003cc:	03070693          	addi	x13,x14,48
    600003d0:	00e67463          	bgeu	x12,x14,600003d8 <dump_hex+0x1b0>
    600003d4:	05770693          	addi	x13,x14,87
    600003d8:	03855793          	srli	x15,x10,0x38
    600003dc:	00f7f713          	andi	x14,x15,15
    600003e0:	00d106a3          	sb	x13,13(x2)
    600003e4:	00900613          	addi	x12,x0,9
    600003e8:	03070693          	addi	x13,x14,48
    600003ec:	00e67463          	bgeu	x12,x14,600003f4 <dump_hex+0x1cc>
    600003f0:	05770693          	addi	x13,x14,87
    600003f4:	03c55713          	srli	x14,x10,0x3c
    600003f8:	00d10723          	sb	x13,14(x2)
    600003fc:	00900693          	addi	x13,x0,9
    60000400:	05770793          	addi	x15,x14,87
    60000404:	00e6e463          	bltu	x13,x14,6000040c <dump_hex+0x1e4>
    60000408:	03070793          	addi	x15,x14,48
    6000040c:	00f107a3          	sb	x15,15(x2)
    60000410:	00010593          	addi	x11,x2,0
    60000414:	00f10613          	addi	x12,x2,15
    60000418:	60100737          	lui	x14,0x60100
    6000041c:	00064683          	lbu	x13,0(x12)
    60000420:	00872783          	lw	x15,8(x14) # 60100008 <bootstacktop+0xff140>
    60000424:	0087f793          	andi	x15,x15,8
    60000428:	fe079ce3          	bne	x15,x0,60000420 <dump_hex+0x1f8>
    6000042c:	0006879b          	addiw	x15,x13,0
    60000430:	00f72223          	sw	x15,4(x14)
    60000434:	fff60793          	addi	x15,x12,-1
    60000438:	00c58663          	beq	x11,x12,60000444 <dump_hex+0x21c>
    6000043c:	00078613          	addi	x12,x15,0
    60000440:	fddff06f          	jal	x0,6000041c <dump_hex+0x1f4>
    60000444:	60100737          	lui	x14,0x60100
    60000448:	00872783          	lw	x15,8(x14) # 60100008 <bootstacktop+0xff140>
    6000044c:	0087f793          	andi	x15,x15,8
    60000450:	fe079ce3          	bne	x15,x0,60000448 <dump_hex+0x220>
    60000454:	00d00793          	addi	x15,x0,13
    60000458:	00f72223          	sw	x15,4(x14)
    6000045c:	60100737          	lui	x14,0x60100
    60000460:	00872783          	lw	x15,8(x14) # 60100008 <bootstacktop+0xff140>
    60000464:	0087f793          	andi	x15,x15,8
    60000468:	fe079ce3          	bne	x15,x0,60000460 <dump_hex+0x238>
    6000046c:	00a00793          	addi	x15,x0,10
    60000470:	00f72223          	sw	x15,4(x14)
    60000474:	01010113          	addi	x2,x2,16
    60000478:	00008067          	jalr	x0,0(x1)

000000006000047c <cmain>:
    6000047c:	60000637          	lui	x12,0x60000
    60000480:	5b860613          	addi	x12,x12,1464 # 600005b8 <__moddi3+0x40>
    60000484:	02000693          	addi	x13,x0,32
    60000488:	60100737          	lui	x14,0x60100
    6000048c:	00872783          	lw	x15,8(x14) # 60100008 <bootstacktop+0xff140>
    60000490:	0087f793          	andi	x15,x15,8
    60000494:	fe079ce3          	bne	x15,x0,6000048c <cmain+0x10>
    60000498:	0006869b          	addiw	x13,x13,0
    6000049c:	00d72223          	sw	x13,4(x14)
    600004a0:	00164683          	lbu	x13,1(x12)
    600004a4:	00160613          	addi	x12,x12,1
    600004a8:	fe0692e3          	bne	x13,x0,6000048c <cmain+0x10>
    600004ac:	00000513          	addi	x10,x0,0
    600004b0:	00008067          	jalr	x0,0(x1)

00000000600004b4 <__udivsi3>:
    600004b4:	02051513          	slli	x10,x10,0x20
    600004b8:	02059593          	slli	x11,x11,0x20
    600004bc:	00008293          	addi	x5,x1,0
    600004c0:	03c000ef          	jal	x1,600004fc <__hidden___udivdi3>
    600004c4:	0005051b          	addiw	x10,x10,0
    600004c8:	00028067          	jalr	x0,0(x5)

00000000600004cc <__umodsi3>:
    600004cc:	02051513          	slli	x10,x10,0x20
    600004d0:	02059593          	slli	x11,x11,0x20
    600004d4:	02055513          	srli	x10,x10,0x20
    600004d8:	0205d593          	srli	x11,x11,0x20
    600004dc:	00008293          	addi	x5,x1,0
    600004e0:	01c000ef          	jal	x1,600004fc <__hidden___udivdi3>
    600004e4:	0005851b          	addiw	x10,x11,0
    600004e8:	00028067          	jalr	x0,0(x5)

00000000600004ec <__divsi3>:
    600004ec:	fff00293          	addi	x5,x0,-1
    600004f0:	0a558c63          	beq	x11,x5,600005a8 <__moddi3+0x30>

00000000600004f4 <__divdi3>:
    600004f4:	06054063          	blt	x10,x0,60000554 <__umoddi3+0x10>
    600004f8:	0605c663          	blt	x11,x0,60000564 <__umoddi3+0x20>

00000000600004fc <__hidden___udivdi3>:
    600004fc:	00058613          	addi	x12,x11,0
    60000500:	00050593          	addi	x11,x10,0
    60000504:	fff00513          	addi	x10,x0,-1
    60000508:	02060c63          	beq	x12,x0,60000540 <__hidden___udivdi3+0x44>
    6000050c:	00100693          	addi	x13,x0,1
    60000510:	00b67a63          	bgeu	x12,x11,60000524 <__hidden___udivdi3+0x28>
    60000514:	00c05863          	bge	x0,x12,60000524 <__hidden___udivdi3+0x28>
    60000518:	00161613          	slli	x12,x12,0x1
    6000051c:	00169693          	slli	x13,x13,0x1
    60000520:	feb66ae3          	bltu	x12,x11,60000514 <__hidden___udivdi3+0x18>
    60000524:	00000513          	addi	x10,x0,0
    60000528:	00c5e663          	bltu	x11,x12,60000534 <__hidden___udivdi3+0x38>
    6000052c:	40c585b3          	sub	x11,x11,x12
    60000530:	00d56533          	or	x10,x10,x13
    60000534:	0016d693          	srli	x13,x13,0x1
    60000538:	00165613          	srli	x12,x12,0x1
    6000053c:	fe0696e3          	bne	x13,x0,60000528 <__hidden___udivdi3+0x2c>
    60000540:	00008067          	jalr	x0,0(x1)

0000000060000544 <__umoddi3>:
    60000544:	00008293          	addi	x5,x1,0
    60000548:	fb5ff0ef          	jal	x1,600004fc <__hidden___udivdi3>
    6000054c:	00058513          	addi	x10,x11,0
    60000550:	00028067          	jalr	x0,0(x5)
    60000554:	40a00533          	sub	x10,x0,x10
    60000558:	00b04863          	blt	x0,x11,60000568 <__umoddi3+0x24>
    6000055c:	40b005b3          	sub	x11,x0,x11
    60000560:	f9dff06f          	jal	x0,600004fc <__hidden___udivdi3>
    60000564:	40b005b3          	sub	x11,x0,x11
    60000568:	00008293          	addi	x5,x1,0
    6000056c:	f91ff0ef          	jal	x1,600004fc <__hidden___udivdi3>
    60000570:	40a00533          	sub	x10,x0,x10
    60000574:	00028067          	jalr	x0,0(x5)

0000000060000578 <__moddi3>:
    60000578:	00008293          	addi	x5,x1,0
    6000057c:	0005ca63          	blt	x11,x0,60000590 <__moddi3+0x18>
    60000580:	00054c63          	blt	x10,x0,60000598 <__moddi3+0x20>
    60000584:	f79ff0ef          	jal	x1,600004fc <__hidden___udivdi3>
    60000588:	00058513          	addi	x10,x11,0
    6000058c:	00028067          	jalr	x0,0(x5)
    60000590:	40b005b3          	sub	x11,x0,x11
    60000594:	fe0558e3          	bge	x10,x0,60000584 <__moddi3+0xc>
    60000598:	40a00533          	sub	x10,x0,x10
    6000059c:	f61ff0ef          	jal	x1,600004fc <__hidden___udivdi3>
    600005a0:	40b00533          	sub	x10,x0,x11
    600005a4:	00028067          	jalr	x0,0(x5)
    600005a8:	01f29293          	slli	x5,x5,0x1f
    600005ac:	f45514e3          	bne	x10,x5,600004f4 <__divdi3>
    600005b0:	00008067          	jalr	x0,0(x1)
