
spmv.riscv:     file format elf64-littleriscv


Disassembly of section .text.init:

0000000080000000 <_start>:
    80000000:	00000093          	li	ra,0
    80000004:	00000113          	li	sp,0
    80000008:	00000193          	li	gp,0
    8000000c:	00000213          	li	tp,0
    80000010:	00000293          	li	t0,0
    80000014:	00000313          	li	t1,0
    80000018:	00000393          	li	t2,0
    8000001c:	00000413          	li	s0,0
    80000020:	00000493          	li	s1,0
    80000024:	00000513          	li	a0,0
    80000028:	00000593          	li	a1,0
    8000002c:	00000613          	li	a2,0
    80000030:	00000693          	li	a3,0
    80000034:	00000713          	li	a4,0
    80000038:	00000793          	li	a5,0
    8000003c:	00000813          	li	a6,0
    80000040:	00000893          	li	a7,0
    80000044:	00000913          	li	s2,0
    80000048:	00000993          	li	s3,0
    8000004c:	00000a13          	li	s4,0
    80000050:	00000a93          	li	s5,0
    80000054:	00000b13          	li	s6,0
    80000058:	00000b93          	li	s7,0
    8000005c:	00000c13          	li	s8,0
    80000060:	00000c93          	li	s9,0
    80000064:	00000d13          	li	s10,0
    80000068:	00000d93          	li	s11,0
    8000006c:	00000e13          	li	t3,0
    80000070:	00000e93          	li	t4,0
    80000074:	00000f13          	li	t5,0
    80000078:	00000f93          	li	t6,0
    8000007c:	0001e2b7          	lui	t0,0x1e
    80000080:	3002a073          	csrs	mstatus,t0
    80000084:	00100293          	li	t0,1
    80000088:	01f29293          	slli	t0,t0,0x1f
    8000008c:	0002da63          	bgez	t0,800000a0 <_start+0xa0>
    80000090:	00100513          	li	a0,1
    80000094:	00001297          	auipc	t0,0x1
    80000098:	f6a2a623          	sw	a0,-148(t0) # 80001000 <tohost>
    8000009c:	ff5ff06f          	j	80000090 <_start+0x90>
    800000a0:	00000297          	auipc	t0,0x0
    800000a4:	04428293          	addi	t0,t0,68 # 800000e4 <trap_entry>
    800000a8:	30529073          	csrw	mtvec,t0
    800000ac:	0000e197          	auipc	gp,0xe
    800000b0:	c5418193          	addi	gp,gp,-940 # 8000dd00 <__global_pointer$>
    800000b4:	0000d217          	auipc	tp,0xd
    800000b8:	48b20213          	addi	tp,tp,1163 # 8000d53f <_end+0x3f>
    800000bc:	fc027213          	andi	tp,tp,-64
    800000c0:	f1402573          	csrr	a0,mhartid
    800000c4:	00100593          	li	a1,1
    800000c8:	00b57063          	bgeu	a0,a1,800000c8 <_start+0xc8>
    800000cc:	00150113          	addi	sp,a0,1
    800000d0:	01111113          	slli	sp,sp,0x11
    800000d4:	00410133          	add	sp,sp,tp
    800000d8:	01151613          	slli	a2,a0,0x11
    800000dc:	00c20233          	add	tp,tp,a2
    800000e0:	1150206f          	j	800029f4 <_init>

00000000800000e4 <trap_entry>:
    800000e4:	ef010113          	addi	sp,sp,-272
    800000e8:	00113423          	sd	ra,8(sp)
    800000ec:	00213823          	sd	sp,16(sp)
    800000f0:	00313c23          	sd	gp,24(sp)
    800000f4:	02413023          	sd	tp,32(sp)
    800000f8:	02513423          	sd	t0,40(sp)
    800000fc:	02613823          	sd	t1,48(sp)
    80000100:	02713c23          	sd	t2,56(sp)
    80000104:	04813023          	sd	s0,64(sp)
    80000108:	04913423          	sd	s1,72(sp)
    8000010c:	04a13823          	sd	a0,80(sp)
    80000110:	04b13c23          	sd	a1,88(sp)
    80000114:	06c13023          	sd	a2,96(sp)
    80000118:	06d13423          	sd	a3,104(sp)
    8000011c:	06e13823          	sd	a4,112(sp)
    80000120:	06f13c23          	sd	a5,120(sp)
    80000124:	09013023          	sd	a6,128(sp)
    80000128:	09113423          	sd	a7,136(sp)
    8000012c:	09213823          	sd	s2,144(sp)
    80000130:	09313c23          	sd	s3,152(sp)
    80000134:	0b413023          	sd	s4,160(sp)
    80000138:	0b513423          	sd	s5,168(sp)
    8000013c:	0b613823          	sd	s6,176(sp)
    80000140:	0b713c23          	sd	s7,184(sp)
    80000144:	0d813023          	sd	s8,192(sp)
    80000148:	0d913423          	sd	s9,200(sp)
    8000014c:	0da13823          	sd	s10,208(sp)
    80000150:	0db13c23          	sd	s11,216(sp)
    80000154:	0fc13023          	sd	t3,224(sp)
    80000158:	0fd13423          	sd	t4,232(sp)
    8000015c:	0fe13823          	sd	t5,240(sp)
    80000160:	0ff13c23          	sd	t6,248(sp)
    80000164:	34202573          	csrr	a0,mcause
    80000168:	341025f3          	csrr	a1,mepc
    8000016c:	00010613          	mv	a2,sp
    80000170:	5f0020ef          	jal	80002760 <handle_trap>
    80000174:	34151073          	csrw	mepc,a0
    80000178:	000022b7          	lui	t0,0x2
    8000017c:	8002829b          	addiw	t0,t0,-2048 # 1800 <buflen.1+0x17c0>
    80000180:	3002a073          	csrs	mstatus,t0
    80000184:	00813083          	ld	ra,8(sp)
    80000188:	01013103          	ld	sp,16(sp)
    8000018c:	01813183          	ld	gp,24(sp)
    80000190:	02013203          	ld	tp,32(sp)
    80000194:	02813283          	ld	t0,40(sp)
    80000198:	03013303          	ld	t1,48(sp)
    8000019c:	03813383          	ld	t2,56(sp)
    800001a0:	04013403          	ld	s0,64(sp)
    800001a4:	04813483          	ld	s1,72(sp)
    800001a8:	05013503          	ld	a0,80(sp)
    800001ac:	05813583          	ld	a1,88(sp)
    800001b0:	06013603          	ld	a2,96(sp)
    800001b4:	06813683          	ld	a3,104(sp)
    800001b8:	07013703          	ld	a4,112(sp)
    800001bc:	07813783          	ld	a5,120(sp)
    800001c0:	08013803          	ld	a6,128(sp)
    800001c4:	08813883          	ld	a7,136(sp)
    800001c8:	09013903          	ld	s2,144(sp)
    800001cc:	09813983          	ld	s3,152(sp)
    800001d0:	0a013a03          	ld	s4,160(sp)
    800001d4:	0a813a83          	ld	s5,168(sp)
    800001d8:	0b013b03          	ld	s6,176(sp)
    800001dc:	0b813b83          	ld	s7,184(sp)
    800001e0:	0c013c03          	ld	s8,192(sp)
    800001e4:	0c813c83          	ld	s9,200(sp)
    800001e8:	0d013d03          	ld	s10,208(sp)
    800001ec:	0d813d83          	ld	s11,216(sp)
    800001f0:	0e013e03          	ld	t3,224(sp)
    800001f4:	0e813e83          	ld	t4,232(sp)
    800001f8:	0f013f03          	ld	t5,240(sp)
    800001fc:	0f813f83          	ld	t6,248(sp)
    80000200:	11010113          	addi	sp,sp,272
    80000204:	30200073          	mret

Disassembly of section .text:

0000000080002000 <spmv>:
    80002000:	f6010113          	addi	sp,sp,-160
    80002004:	08113c23          	sd	ra,152(sp)
    80002008:	00b13423          	sd	a1,8(sp)
    8000200c:	00c13823          	sd	a2,16(sp)
    80002010:	24a05063          	blez	a0,80002250 <spmv+0x250>
    80002014:	00251513          	slli	a0,a0,0x2
    80002018:	05a13023          	sd	s10,64(sp)
    8000201c:	03b13c23          	sd	s11,56(sp)
    80002020:	00070d13          	mv	s10,a4
    80002024:	00078d93          	mv	s11,a5
    80002028:	00a70733          	add	a4,a4,a0
    8000202c:	02058793          	addi	a5,a1,32
    80002030:	07313c23          	sd	s3,120(sp)
    80002034:	08813823          	sd	s0,144(sp)
    80002038:	08913423          	sd	s1,136(sp)
    8000203c:	09213023          	sd	s2,128(sp)
    80002040:	07413823          	sd	s4,112(sp)
    80002044:	07513423          	sd	s5,104(sp)
    80002048:	07613023          	sd	s6,96(sp)
    8000204c:	05713c23          	sd	s7,88(sp)
    80002050:	05813823          	sd	s8,80(sp)
    80002054:	05913423          	sd	s9,72(sp)
    80002058:	00068993          	mv	s3,a3
    8000205c:	02e13023          	sd	a4,32(sp)
    80002060:	02f13423          	sd	a5,40(sp)
    80002064:	004d2c03          	lw	s8,4(s10)
    80002068:	000d2a03          	lw	s4,0(s10)
    8000206c:	ffdc079b          	addiw	a5,s8,-3
    80002070:	1efa5663          	bge	s4,a5,8000225c <spmv+0x25c>
    80002074:	00813703          	ld	a4,8(sp)
    80002078:	ffcc079b          	addiw	a5,s8,-4
    8000207c:	414787bb          	subw	a5,a5,s4
    80002080:	0027dc9b          	srliw	s9,a5,0x2
    80002084:	003a1493          	slli	s1,s4,0x3
    80002088:	0027d79b          	srliw	a5,a5,0x2
    8000208c:	002c9c93          	slli	s9,s9,0x2
    80002090:	009704b3          	add	s1,a4,s1
    80002094:	00f12e23          	sw	a5,28(sp)
    80002098:	01013703          	ld	a4,16(sp)
    8000209c:	02813783          	ld	a5,40(sp)
    800020a0:	014c8cb3          	add	s9,s9,s4
    800020a4:	00000a93          	li	s5,0
    800020a8:	002a1913          	slli	s2,s4,0x2
    800020ac:	003c9c93          	slli	s9,s9,0x3
    800020b0:	01270933          	add	s2,a4,s2
    800020b4:	00fc8cb3          	add	s9,s9,a5
    800020b8:	000a8b93          	mv	s7,s5
    800020bc:	000a8b13          	mv	s6,s5
    800020c0:	000a8413          	mv	s0,s5
    800020c4:	00092783          	lw	a5,0(s2)
    800020c8:	0004b583          	ld	a1,0(s1)
    800020cc:	02048493          	addi	s1,s1,32
    800020d0:	00379793          	slli	a5,a5,0x3
    800020d4:	00f987b3          	add	a5,s3,a5
    800020d8:	0007b503          	ld	a0,0(a5)
    800020dc:	01090913          	addi	s2,s2,16
    800020e0:	034010ef          	jal	80003114 <__muldf3>
    800020e4:	00050593          	mv	a1,a0
    800020e8:	00040513          	mv	a0,s0
    800020ec:	2c1000ef          	jal	80002bac <__adddf3>
    800020f0:	ff492783          	lw	a5,-12(s2)
    800020f4:	fe84b583          	ld	a1,-24(s1)
    800020f8:	00050413          	mv	s0,a0
    800020fc:	00379793          	slli	a5,a5,0x3
    80002100:	00f987b3          	add	a5,s3,a5
    80002104:	0007b503          	ld	a0,0(a5)
    80002108:	00c010ef          	jal	80003114 <__muldf3>
    8000210c:	00050593          	mv	a1,a0
    80002110:	000b0513          	mv	a0,s6
    80002114:	299000ef          	jal	80002bac <__adddf3>
    80002118:	ff892783          	lw	a5,-8(s2)
    8000211c:	ff04b583          	ld	a1,-16(s1)
    80002120:	00050b13          	mv	s6,a0
    80002124:	00379793          	slli	a5,a5,0x3
    80002128:	00f987b3          	add	a5,s3,a5
    8000212c:	0007b503          	ld	a0,0(a5)
    80002130:	7e5000ef          	jal	80003114 <__muldf3>
    80002134:	00050593          	mv	a1,a0
    80002138:	000b8513          	mv	a0,s7
    8000213c:	271000ef          	jal	80002bac <__adddf3>
    80002140:	ffc92783          	lw	a5,-4(s2)
    80002144:	ff84b583          	ld	a1,-8(s1)
    80002148:	00050b93          	mv	s7,a0
    8000214c:	00379793          	slli	a5,a5,0x3
    80002150:	00f987b3          	add	a5,s3,a5
    80002154:	0007b503          	ld	a0,0(a5)
    80002158:	7bd000ef          	jal	80003114 <__muldf3>
    8000215c:	00050593          	mv	a1,a0
    80002160:	000a8513          	mv	a0,s5
    80002164:	249000ef          	jal	80002bac <__adddf3>
    80002168:	00050a93          	mv	s5,a0
    8000216c:	f49c9ce3          	bne	s9,s1,800020c4 <spmv+0xc4>
    80002170:	01c12783          	lw	a5,28(sp)
    80002174:	000b8593          	mv	a1,s7
    80002178:	004a0a1b          	addiw	s4,s4,4
    8000217c:	0027979b          	slliw	a5,a5,0x2
    80002180:	000b0513          	mv	a0,s6
    80002184:	01478a3b          	addw	s4,a5,s4
    80002188:	225000ef          	jal	80002bac <__adddf3>
    8000218c:	000a8593          	mv	a1,s5
    80002190:	21d000ef          	jal	80002bac <__adddf3>
    80002194:	00050493          	mv	s1,a0
    80002198:	078a5463          	bge	s4,s8,80002200 <spmv+0x200>
    8000219c:	414c093b          	subw	s2,s8,s4
    800021a0:	02091913          	slli	s2,s2,0x20
    800021a4:	00813783          	ld	a5,8(sp)
    800021a8:	01013703          	ld	a4,16(sp)
    800021ac:	02095913          	srli	s2,s2,0x20
    800021b0:	01490933          	add	s2,s2,s4
    800021b4:	003a1a93          	slli	s5,s4,0x3
    800021b8:	00391913          	slli	s2,s2,0x3
    800021bc:	002a1a13          	slli	s4,s4,0x2
    800021c0:	01578ab3          	add	s5,a5,s5
    800021c4:	01470a33          	add	s4,a4,s4
    800021c8:	01278933          	add	s2,a5,s2
    800021cc:	000a2783          	lw	a5,0(s4)
    800021d0:	000ab583          	ld	a1,0(s5)
    800021d4:	008a8a93          	addi	s5,s5,8
    800021d8:	00379793          	slli	a5,a5,0x3
    800021dc:	00f987b3          	add	a5,s3,a5
    800021e0:	0007b503          	ld	a0,0(a5)
    800021e4:	004a0a13          	addi	s4,s4,4
    800021e8:	72d000ef          	jal	80003114 <__muldf3>
    800021ec:	00050593          	mv	a1,a0
    800021f0:	00040513          	mv	a0,s0
    800021f4:	1b9000ef          	jal	80002bac <__adddf3>
    800021f8:	00050413          	mv	s0,a0
    800021fc:	fd5918e3          	bne	s2,s5,800021cc <spmv+0x1cc>
    80002200:	00048593          	mv	a1,s1
    80002204:	00040513          	mv	a0,s0
    80002208:	1a5000ef          	jal	80002bac <__adddf3>
    8000220c:	02013783          	ld	a5,32(sp)
    80002210:	00adb023          	sd	a0,0(s11)
    80002214:	004d0d13          	addi	s10,s10,4
    80002218:	008d8d93          	addi	s11,s11,8
    8000221c:	e5a794e3          	bne	a5,s10,80002064 <spmv+0x64>
    80002220:	09013403          	ld	s0,144(sp)
    80002224:	08813483          	ld	s1,136(sp)
    80002228:	08013903          	ld	s2,128(sp)
    8000222c:	07813983          	ld	s3,120(sp)
    80002230:	07013a03          	ld	s4,112(sp)
    80002234:	06813a83          	ld	s5,104(sp)
    80002238:	06013b03          	ld	s6,96(sp)
    8000223c:	05813b83          	ld	s7,88(sp)
    80002240:	05013c03          	ld	s8,80(sp)
    80002244:	04813c83          	ld	s9,72(sp)
    80002248:	04013d03          	ld	s10,64(sp)
    8000224c:	03813d83          	ld	s11,56(sp)
    80002250:	09813083          	ld	ra,152(sp)
    80002254:	0a010113          	addi	sp,sp,160
    80002258:	00008067          	ret
    8000225c:	00000493          	li	s1,0
    80002260:	00048413          	mv	s0,s1
    80002264:	f35ff06f          	j	80002198 <spmv+0x198>

0000000080002268 <vprintfmt>:
    80002268:	e9010113          	addi	sp,sp,-368
    8000226c:	16813023          	sd	s0,352(sp)
    80002270:	14913c23          	sd	s1,344(sp)
    80002274:	15213823          	sd	s2,336(sp)
    80002278:	15413023          	sd	s4,320(sp)
    8000227c:	13513c23          	sd	s5,312(sp)
    80002280:	13613823          	sd	s6,304(sp)
    80002284:	13713423          	sd	s7,296(sp)
    80002288:	16113423          	sd	ra,360(sp)
    8000228c:	15313423          	sd	s3,328(sp)
    80002290:	13813023          	sd	s8,288(sp)
    80002294:	11913c23          	sd	s9,280(sp)
    80002298:	11b13423          	sd	s11,264(sp)
    8000229c:	00050913          	mv	s2,a0
    800022a0:	00058493          	mv	s1,a1
    800022a4:	00060413          	mv	s0,a2
    800022a8:	00068b93          	mv	s7,a3
    800022ac:	02500a13          	li	s4,37
    800022b0:	05500b13          	li	s6,85
    800022b4:	0000ba97          	auipc	s5,0xb
    800022b8:	bcca8a93          	addi	s5,s5,-1076 # 8000ce80 <val+0x4af8>
    800022bc:	0140006f          	j	800022d0 <vprintfmt+0x68>
    800022c0:	04050c63          	beqz	a0,80002318 <vprintfmt+0xb0>
    800022c4:	00048593          	mv	a1,s1
    800022c8:	00140413          	addi	s0,s0,1
    800022cc:	000900e7          	jalr	s2
    800022d0:	00044503          	lbu	a0,0(s0)
    800022d4:	ff4516e3          	bne	a0,s4,800022c0 <vprintfmt+0x58>
    800022d8:	00144683          	lbu	a3,1(s0)
    800022dc:	00140993          	addi	s3,s0,1
    800022e0:	00098713          	mv	a4,s3
    800022e4:	02000c93          	li	s9,32
    800022e8:	fff00c13          	li	s8,-1
    800022ec:	fff00d93          	li	s11,-1
    800022f0:	00000593          	li	a1,0
    800022f4:	fdd6879b          	addiw	a5,a3,-35
    800022f8:	0ff7f793          	zext.b	a5,a5
    800022fc:	00170413          	addi	s0,a4,1
    80002300:	06fb6663          	bltu	s6,a5,8000236c <vprintfmt+0x104>
    80002304:	00279793          	slli	a5,a5,0x2
    80002308:	015787b3          	add	a5,a5,s5
    8000230c:	0007a783          	lw	a5,0(a5)
    80002310:	015787b3          	add	a5,a5,s5
    80002314:	00078067          	jr	a5
    80002318:	16813083          	ld	ra,360(sp)
    8000231c:	16013403          	ld	s0,352(sp)
    80002320:	15813483          	ld	s1,344(sp)
    80002324:	15013903          	ld	s2,336(sp)
    80002328:	14813983          	ld	s3,328(sp)
    8000232c:	14013a03          	ld	s4,320(sp)
    80002330:	13813a83          	ld	s5,312(sp)
    80002334:	13013b03          	ld	s6,304(sp)
    80002338:	12813b83          	ld	s7,296(sp)
    8000233c:	12013c03          	ld	s8,288(sp)
    80002340:	11813c83          	ld	s9,280(sp)
    80002344:	10813d83          	ld	s11,264(sp)
    80002348:	17010113          	addi	sp,sp,368
    8000234c:	00008067          	ret
    80002350:	00068c93          	mv	s9,a3
    80002354:	00174683          	lbu	a3,1(a4)
    80002358:	00040713          	mv	a4,s0
    8000235c:	00170413          	addi	s0,a4,1
    80002360:	fdd6879b          	addiw	a5,a3,-35
    80002364:	0ff7f793          	zext.b	a5,a5
    80002368:	f8fb7ee3          	bgeu	s6,a5,80002304 <vprintfmt+0x9c>
    8000236c:	00048593          	mv	a1,s1
    80002370:	02500513          	li	a0,37
    80002374:	000900e7          	jalr	s2
    80002378:	00098413          	mv	s0,s3
    8000237c:	f55ff06f          	j	800022d0 <vprintfmt+0x68>
    80002380:	fd068c1b          	addiw	s8,a3,-48
    80002384:	00174683          	lbu	a3,1(a4)
    80002388:	00900793          	li	a5,9
    8000238c:	fd06871b          	addiw	a4,a3,-48
    80002390:	0006861b          	sext.w	a2,a3
    80002394:	2ee7e663          	bltu	a5,a4,80002680 <vprintfmt+0x418>
    80002398:	00040713          	mv	a4,s0
    8000239c:	00900813          	li	a6,9
    800023a0:	00174683          	lbu	a3,1(a4)
    800023a4:	002c179b          	slliw	a5,s8,0x2
    800023a8:	018787bb          	addw	a5,a5,s8
    800023ac:	0017979b          	slliw	a5,a5,0x1
    800023b0:	00c787bb          	addw	a5,a5,a2
    800023b4:	fd06851b          	addiw	a0,a3,-48
    800023b8:	00170713          	addi	a4,a4,1
    800023bc:	fd078c1b          	addiw	s8,a5,-48
    800023c0:	0006861b          	sext.w	a2,a3
    800023c4:	fca87ee3          	bgeu	a6,a0,800023a0 <vprintfmt+0x138>
    800023c8:	f20dd6e3          	bgez	s11,800022f4 <vprintfmt+0x8c>
    800023cc:	000c0d93          	mv	s11,s8
    800023d0:	fff00c13          	li	s8,-1
    800023d4:	f21ff06f          	j	800022f4 <vprintfmt+0x8c>
    800023d8:	00174683          	lbu	a3,1(a4)
    800023dc:	00040713          	mv	a4,s0
    800023e0:	f15ff06f          	j	800022f4 <vprintfmt+0x8c>
    800023e4:	00048593          	mv	a1,s1
    800023e8:	02500513          	li	a0,37
    800023ec:	000900e7          	jalr	s2
    800023f0:	ee1ff06f          	j	800022d0 <vprintfmt+0x68>
    800023f4:	000bac03          	lw	s8,0(s7)
    800023f8:	00174683          	lbu	a3,1(a4)
    800023fc:	008b8b93          	addi	s7,s7,8
    80002400:	00040713          	mv	a4,s0
    80002404:	fc5ff06f          	j	800023c8 <vprintfmt+0x160>
    80002408:	00048593          	mv	a1,s1
    8000240c:	03000513          	li	a0,48
    80002410:	11a13823          	sd	s10,272(sp)
    80002414:	000900e7          	jalr	s2
    80002418:	00048593          	mv	a1,s1
    8000241c:	07800513          	li	a0,120
    80002420:	000900e7          	jalr	s2
    80002424:	01000613          	li	a2,16
    80002428:	008b8713          	addi	a4,s7,8
    8000242c:	000bb783          	ld	a5,0(s7)
    80002430:	00070b93          	mv	s7,a4
    80002434:	02c7f5b3          	remu	a1,a5,a2
    80002438:	000c899b          	sext.w	s3,s9
    8000243c:	00410693          	addi	a3,sp,4
    80002440:	00100713          	li	a4,1
    80002444:	00b12023          	sw	a1,0(sp)
    80002448:	1ec7ea63          	bltu	a5,a2,8000263c <vprintfmt+0x3d4>
    8000244c:	02c7d7b3          	divu	a5,a5,a2
    80002450:	00468693          	addi	a3,a3,4
    80002454:	00070c13          	mv	s8,a4
    80002458:	0017071b          	addiw	a4,a4,1
    8000245c:	02c7f5b3          	remu	a1,a5,a2
    80002460:	feb6ae23          	sw	a1,-4(a3)
    80002464:	fec7f4e3          	bgeu	a5,a2,8000244c <vprintfmt+0x1e4>
    80002468:	fffd8c9b          	addiw	s9,s11,-1
    8000246c:	fff70d1b          	addiw	s10,a4,-1
    80002470:	01b75c63          	bge	a4,s11,80002488 <vprintfmt+0x220>
    80002474:	00048593          	mv	a1,s1
    80002478:	00098513          	mv	a0,s3
    8000247c:	fffc8c9b          	addiw	s9,s9,-1
    80002480:	000900e7          	jalr	s2
    80002484:	ffac98e3          	bne	s9,s10,80002474 <vprintfmt+0x20c>
    80002488:	002c1c13          	slli	s8,s8,0x2
    8000248c:	018109b3          	add	s3,sp,s8
    80002490:	ffc10c93          	addi	s9,sp,-4
    80002494:	00900c13          	li	s8,9
    80002498:	0009a783          	lw	a5,0(s3)
    8000249c:	03000513          	li	a0,48
    800024a0:	00fc7463          	bgeu	s8,a5,800024a8 <vprintfmt+0x240>
    800024a4:	05700513          	li	a0,87
    800024a8:	00048593          	mv	a1,s1
    800024ac:	00a7853b          	addw	a0,a5,a0
    800024b0:	ffc98993          	addi	s3,s3,-4
    800024b4:	000900e7          	jalr	s2
    800024b8:	ff9990e3          	bne	s3,s9,80002498 <vprintfmt+0x230>
    800024bc:	11013d03          	ld	s10,272(sp)
    800024c0:	e11ff06f          	j	800022d0 <vprintfmt+0x68>
    800024c4:	11a13823          	sd	s10,272(sp)
    800024c8:	00100793          	li	a5,1
    800024cc:	008b8c13          	addi	s8,s7,8
    800024d0:	00b7c463          	blt	a5,a1,800024d8 <vprintfmt+0x270>
    800024d4:	16058863          	beqz	a1,80002644 <vprintfmt+0x3dc>
    800024d8:	000bb983          	ld	s3,0(s7)
    800024dc:	1809c463          	bltz	s3,80002664 <vprintfmt+0x3fc>
    800024e0:	00098793          	mv	a5,s3
    800024e4:	000c0b93          	mv	s7,s8
    800024e8:	00a00613          	li	a2,10
    800024ec:	f49ff06f          	j	80002434 <vprintfmt+0x1cc>
    800024f0:	00174683          	lbu	a3,1(a4)
    800024f4:	0015859b          	addiw	a1,a1,1
    800024f8:	00040713          	mv	a4,s0
    800024fc:	df9ff06f          	j	800022f4 <vprintfmt+0x8c>
    80002500:	11a13823          	sd	s10,272(sp)
    80002504:	01000613          	li	a2,16
    80002508:	00100793          	li	a5,1
    8000250c:	008b8713          	addi	a4,s7,8
    80002510:	f0b7cee3          	blt	a5,a1,8000242c <vprintfmt+0x1c4>
    80002514:	f0059ce3          	bnez	a1,8000242c <vprintfmt+0x1c4>
    80002518:	000be783          	lwu	a5,0(s7)
    8000251c:	00070b93          	mv	s7,a4
    80002520:	f15ff06f          	j	80002434 <vprintfmt+0x1cc>
    80002524:	11a13823          	sd	s10,272(sp)
    80002528:	000bbd03          	ld	s10,0(s7)
    8000252c:	008b8b93          	addi	s7,s7,8
    80002530:	060d0063          	beqz	s10,80002590 <vprintfmt+0x328>
    80002534:	0db05463          	blez	s11,800025fc <vprintfmt+0x394>
    80002538:	02d00793          	li	a5,45
    8000253c:	06fc9c63          	bne	s9,a5,800025b4 <vprintfmt+0x34c>
    80002540:	000d4503          	lbu	a0,0(s10)
    80002544:	02050863          	beqz	a0,80002574 <vprintfmt+0x30c>
    80002548:	fff00993          	li	s3,-1
    8000254c:	000c4663          	bltz	s8,80002558 <vprintfmt+0x2f0>
    80002550:	fffc0c1b          	addiw	s8,s8,-1
    80002554:	013c0e63          	beq	s8,s3,80002570 <vprintfmt+0x308>
    80002558:	00048593          	mv	a1,s1
    8000255c:	000900e7          	jalr	s2
    80002560:	001d4503          	lbu	a0,1(s10)
    80002564:	fffd8d9b          	addiw	s11,s11,-1
    80002568:	001d0d13          	addi	s10,s10,1
    8000256c:	fe0510e3          	bnez	a0,8000254c <vprintfmt+0x2e4>
    80002570:	f5b056e3          	blez	s11,800024bc <vprintfmt+0x254>
    80002574:	00048593          	mv	a1,s1
    80002578:	02000513          	li	a0,32
    8000257c:	fffd8d9b          	addiw	s11,s11,-1
    80002580:	000900e7          	jalr	s2
    80002584:	fe0d98e3          	bnez	s11,80002574 <vprintfmt+0x30c>
    80002588:	11013d03          	ld	s10,272(sp)
    8000258c:	d45ff06f          	j	800022d0 <vprintfmt+0x68>
    80002590:	0000bd17          	auipc	s10,0xb
    80002594:	f30d0d13          	addi	s10,s10,-208 # 8000d4c0 <__clz_tab+0x4e8>
    80002598:	02800513          	li	a0,40
    8000259c:	fbb056e3          	blez	s11,80002548 <vprintfmt+0x2e0>
    800025a0:	02d00793          	li	a5,45
    800025a4:	0000bd17          	auipc	s10,0xb
    800025a8:	f1cd0d13          	addi	s10,s10,-228 # 8000d4c0 <__clz_tab+0x4e8>
    800025ac:	02800513          	li	a0,40
    800025b0:	f8fc8ce3          	beq	s9,a5,80002548 <vprintfmt+0x2e0>
    800025b4:	000d861b          	sext.w	a2,s11
    800025b8:	000d0793          	mv	a5,s10
    800025bc:	018d06b3          	add	a3,s10,s8
    800025c0:	000c1863          	bnez	s8,800025d0 <vprintfmt+0x368>
    800025c4:	0200006f          	j	800025e4 <vprintfmt+0x37c>
    800025c8:	00178793          	addi	a5,a5,1
    800025cc:	00d78663          	beq	a5,a3,800025d8 <vprintfmt+0x370>
    800025d0:	0007c703          	lbu	a4,0(a5)
    800025d4:	fe071ae3          	bnez	a4,800025c8 <vprintfmt+0x360>
    800025d8:	41a787b3          	sub	a5,a5,s10
    800025dc:	40f60dbb          	subw	s11,a2,a5
    800025e0:	01b05e63          	blez	s11,800025fc <vprintfmt+0x394>
    800025e4:	000c8c9b          	sext.w	s9,s9
    800025e8:	00048593          	mv	a1,s1
    800025ec:	000c8513          	mv	a0,s9
    800025f0:	fffd8d9b          	addiw	s11,s11,-1
    800025f4:	000900e7          	jalr	s2
    800025f8:	fe0d98e3          	bnez	s11,800025e8 <vprintfmt+0x380>
    800025fc:	000d4503          	lbu	a0,0(s10)
    80002600:	ea050ee3          	beqz	a0,800024bc <vprintfmt+0x254>
    80002604:	fff00993          	li	s3,-1
    80002608:	f45ff06f          	j	8000254c <vprintfmt+0x2e4>
    8000260c:	fffdc793          	not	a5,s11
    80002610:	43f7d793          	srai	a5,a5,0x3f
    80002614:	00fdf7b3          	and	a5,s11,a5
    80002618:	00174683          	lbu	a3,1(a4)
    8000261c:	00078d9b          	sext.w	s11,a5
    80002620:	00040713          	mv	a4,s0
    80002624:	cd1ff06f          	j	800022f4 <vprintfmt+0x8c>
    80002628:	000ba503          	lw	a0,0(s7)
    8000262c:	00048593          	mv	a1,s1
    80002630:	008b8b93          	addi	s7,s7,8
    80002634:	000900e7          	jalr	s2
    80002638:	c99ff06f          	j	800022d0 <vprintfmt+0x68>
    8000263c:	00000c13          	li	s8,0
    80002640:	e29ff06f          	j	80002468 <vprintfmt+0x200>
    80002644:	000ba983          	lw	s3,0(s7)
    80002648:	e95ff06f          	j	800024dc <vprintfmt+0x274>
    8000264c:	11a13823          	sd	s10,272(sp)
    80002650:	00a00613          	li	a2,10
    80002654:	eb5ff06f          	j	80002508 <vprintfmt+0x2a0>
    80002658:	11a13823          	sd	s10,272(sp)
    8000265c:	00800613          	li	a2,8
    80002660:	ea9ff06f          	j	80002508 <vprintfmt+0x2a0>
    80002664:	00048593          	mv	a1,s1
    80002668:	02d00513          	li	a0,45
    8000266c:	000900e7          	jalr	s2
    80002670:	413007b3          	neg	a5,s3
    80002674:	000c0b93          	mv	s7,s8
    80002678:	00a00613          	li	a2,10
    8000267c:	db9ff06f          	j	80002434 <vprintfmt+0x1cc>
    80002680:	00040713          	mv	a4,s0
    80002684:	d45ff06f          	j	800023c8 <vprintfmt+0x160>

0000000080002688 <sprintf_putch.0>:
    80002688:	0005b783          	ld	a5,0(a1)
    8000268c:	00a78023          	sb	a0,0(a5)
    80002690:	0005b783          	ld	a5,0(a1)
    80002694:	00178793          	addi	a5,a5,1
    80002698:	00f5b023          	sd	a5,0(a1)
    8000269c:	00008067          	ret

00000000800026a0 <putchar>:
    800026a0:	04022803          	lw	a6,64(tp) # 40 <buflen.1>
    800026a4:	00020793          	mv	a5,tp
    800026a8:	010787b3          	add	a5,a5,a6
    800026ac:	f9010113          	addi	sp,sp,-112
    800026b0:	0018069b          	addiw	a3,a6,1
    800026b4:	04d22023          	sw	a3,64(tp) # 40 <buflen.1>
    800026b8:	00a78023          	sb	a0,0(a5)
    800026bc:	03f10713          	addi	a4,sp,63
    800026c0:	00a00793          	li	a5,10
    800026c4:	fc077713          	andi	a4,a4,-64
    800026c8:	00f50c63          	beq	a0,a5,800026e0 <putchar+0x40>
    800026cc:	04000793          	li	a5,64
    800026d0:	00f68863          	beq	a3,a5,800026e0 <putchar+0x40>
    800026d4:	00000513          	li	a0,0
    800026d8:	07010113          	addi	sp,sp,112
    800026dc:	00008067          	ret
    800026e0:	04000793          	li	a5,64
    800026e4:	00f73023          	sd	a5,0(a4)
    800026e8:	00100793          	li	a5,1
    800026ec:	00f73423          	sd	a5,8(a4)
    800026f0:	00020613          	mv	a2,tp
    800026f4:	00c73823          	sd	a2,16(a4)
    800026f8:	00d73c23          	sd	a3,24(a4)
    800026fc:	0ff0000f          	fence
    80002700:	fffff697          	auipc	a3,0xfffff
    80002704:	94068693          	addi	a3,a3,-1728 # 80001040 <fromhost>
    80002708:	fffff797          	auipc	a5,0xfffff
    8000270c:	8ee7bc23          	sd	a4,-1800(a5) # 80001000 <tohost>
    80002710:	0006b783          	ld	a5,0(a3)
    80002714:	fe078ee3          	beqz	a5,80002710 <putchar+0x70>
    80002718:	fffff797          	auipc	a5,0xfffff
    8000271c:	9207b423          	sd	zero,-1752(a5) # 80001040 <fromhost>
    80002720:	0ff0000f          	fence
    80002724:	04022023          	sw	zero,64(tp) # 40 <buflen.1>
    80002728:	00073783          	ld	a5,0(a4)
    8000272c:	00000513          	li	a0,0
    80002730:	07010113          	addi	sp,sp,112
    80002734:	00008067          	ret

0000000080002738 <tohost_exit>:
    80002738:	00151793          	slli	a5,a0,0x1
    8000273c:	0017e793          	ori	a5,a5,1
    80002740:	fffff717          	auipc	a4,0xfffff
    80002744:	8cf73023          	sd	a5,-1856(a4) # 80001000 <tohost>
    80002748:	0ff0000f          	fence
    8000274c:	00100193          	li	gp,1
    80002750:	05d00893          	li	a7,93
    80002754:	00000513          	li	a0,0
    80002758:	00000073          	ecall
    8000275c:	0000006f          	j	8000275c <tohost_exit+0x24>

0000000080002760 <handle_trap>:
    80002760:	ff010113          	addi	sp,sp,-16
    80002764:	53900513          	li	a0,1337
    80002768:	00113423          	sd	ra,8(sp)
    8000276c:	fcdff0ef          	jal	80002738 <tohost_exit>

0000000080002770 <exit>:
    80002770:	ff010113          	addi	sp,sp,-16
    80002774:	00113423          	sd	ra,8(sp)
    80002778:	fc1ff0ef          	jal	80002738 <tohost_exit>

000000008000277c <abort>:
    8000277c:	ff010113          	addi	sp,sp,-16
    80002780:	08600513          	li	a0,134
    80002784:	00113423          	sd	ra,8(sp)
    80002788:	fb1ff0ef          	jal	80002738 <tohost_exit>

000000008000278c <printstr>:
    8000278c:	00054783          	lbu	a5,0(a0)
    80002790:	f9010113          	addi	sp,sp,-112
    80002794:	03f10693          	addi	a3,sp,63
    80002798:	fc06f693          	andi	a3,a3,-64
    8000279c:	06078263          	beqz	a5,80002800 <printstr+0x74>
    800027a0:	00050793          	mv	a5,a0
    800027a4:	0017c703          	lbu	a4,1(a5)
    800027a8:	00178793          	addi	a5,a5,1
    800027ac:	fe071ce3          	bnez	a4,800027a4 <printstr+0x18>
    800027b0:	40a787b3          	sub	a5,a5,a0
    800027b4:	04000713          	li	a4,64
    800027b8:	00e6b023          	sd	a4,0(a3)
    800027bc:	00100713          	li	a4,1
    800027c0:	00e6b423          	sd	a4,8(a3)
    800027c4:	00a6b823          	sd	a0,16(a3)
    800027c8:	00f6bc23          	sd	a5,24(a3)
    800027cc:	0ff0000f          	fence
    800027d0:	fffff717          	auipc	a4,0xfffff
    800027d4:	87070713          	addi	a4,a4,-1936 # 80001040 <fromhost>
    800027d8:	fffff797          	auipc	a5,0xfffff
    800027dc:	82d7b423          	sd	a3,-2008(a5) # 80001000 <tohost>
    800027e0:	00073783          	ld	a5,0(a4)
    800027e4:	fe078ee3          	beqz	a5,800027e0 <printstr+0x54>
    800027e8:	fffff797          	auipc	a5,0xfffff
    800027ec:	8407bc23          	sd	zero,-1960(a5) # 80001040 <fromhost>
    800027f0:	0ff0000f          	fence
    800027f4:	0006b783          	ld	a5,0(a3)
    800027f8:	07010113          	addi	sp,sp,112
    800027fc:	00008067          	ret
    80002800:	00000793          	li	a5,0
    80002804:	fb1ff06f          	j	800027b4 <printstr+0x28>

0000000080002808 <thread_entry>:
    80002808:	00050463          	beqz	a0,80002810 <thread_entry+0x8>
    8000280c:	0000006f          	j	8000280c <thread_entry+0x4>
    80002810:	00008067          	ret

0000000080002814 <printhex>:
    80002814:	fd010113          	addi	sp,sp,-48
    80002818:	00050793          	mv	a5,a0
    8000281c:	02113423          	sd	ra,40(sp)
    80002820:	00810513          	addi	a0,sp,8
    80002824:	01710713          	addi	a4,sp,23
    80002828:	00900813          	li	a6,9
    8000282c:	0080006f          	j	80002834 <printhex+0x20>
    80002830:	00068713          	mv	a4,a3
    80002834:	00f7f613          	andi	a2,a5,15
    80002838:	00060693          	mv	a3,a2
    8000283c:	03000593          	li	a1,48
    80002840:	00c87463          	bgeu	a6,a2,80002848 <printhex+0x34>
    80002844:	05700593          	li	a1,87
    80002848:	00b686bb          	addw	a3,a3,a1
    8000284c:	00d70023          	sb	a3,0(a4)
    80002850:	0047d793          	srli	a5,a5,0x4
    80002854:	fff70693          	addi	a3,a4,-1
    80002858:	fce51ce3          	bne	a0,a4,80002830 <printhex+0x1c>
    8000285c:	00010c23          	sb	zero,24(sp)
    80002860:	f2dff0ef          	jal	8000278c <printstr>
    80002864:	02813083          	ld	ra,40(sp)
    80002868:	03010113          	addi	sp,sp,48
    8000286c:	00008067          	ret

0000000080002870 <printf>:
    80002870:	fa010113          	addi	sp,sp,-96
    80002874:	02810313          	addi	t1,sp,40
    80002878:	02b13423          	sd	a1,40(sp)
    8000287c:	02c13823          	sd	a2,48(sp)
    80002880:	02d13c23          	sd	a3,56(sp)
    80002884:	00050613          	mv	a2,a0
    80002888:	00030693          	mv	a3,t1
    8000288c:	00000517          	auipc	a0,0x0
    80002890:	e1450513          	addi	a0,a0,-492 # 800026a0 <putchar>
    80002894:	00000593          	li	a1,0
    80002898:	00113c23          	sd	ra,24(sp)
    8000289c:	04e13023          	sd	a4,64(sp)
    800028a0:	04f13423          	sd	a5,72(sp)
    800028a4:	05013823          	sd	a6,80(sp)
    800028a8:	05113c23          	sd	a7,88(sp)
    800028ac:	00613423          	sd	t1,8(sp)
    800028b0:	9b9ff0ef          	jal	80002268 <vprintfmt>
    800028b4:	01813083          	ld	ra,24(sp)
    800028b8:	00000513          	li	a0,0
    800028bc:	06010113          	addi	sp,sp,96
    800028c0:	00008067          	ret

00000000800028c4 <sprintf>:
    800028c4:	fa010113          	addi	sp,sp,-96
    800028c8:	03010e13          	addi	t3,sp,48
    800028cc:	02813023          	sd	s0,32(sp)
    800028d0:	00a13423          	sd	a0,8(sp)
    800028d4:	00050413          	mv	s0,a0
    800028d8:	02c13823          	sd	a2,48(sp)
    800028dc:	02d13c23          	sd	a3,56(sp)
    800028e0:	00058613          	mv	a2,a1
    800028e4:	00000517          	auipc	a0,0x0
    800028e8:	da450513          	addi	a0,a0,-604 # 80002688 <sprintf_putch.0>
    800028ec:	00810593          	addi	a1,sp,8
    800028f0:	000e0693          	mv	a3,t3
    800028f4:	02113423          	sd	ra,40(sp)
    800028f8:	04f13423          	sd	a5,72(sp)
    800028fc:	04e13023          	sd	a4,64(sp)
    80002900:	05013823          	sd	a6,80(sp)
    80002904:	05113c23          	sd	a7,88(sp)
    80002908:	01c13c23          	sd	t3,24(sp)
    8000290c:	95dff0ef          	jal	80002268 <vprintfmt>
    80002910:	00813783          	ld	a5,8(sp)
    80002914:	00078023          	sb	zero,0(a5)
    80002918:	00813503          	ld	a0,8(sp)
    8000291c:	02813083          	ld	ra,40(sp)
    80002920:	4085053b          	subw	a0,a0,s0
    80002924:	02013403          	ld	s0,32(sp)
    80002928:	06010113          	addi	sp,sp,96
    8000292c:	00008067          	ret

0000000080002930 <memcpy>:
    80002930:	00c5e7b3          	or	a5,a1,a2
    80002934:	00f567b3          	or	a5,a0,a5
    80002938:	0077f793          	andi	a5,a5,7
    8000293c:	00c506b3          	add	a3,a0,a2
    80002940:	02078463          	beqz	a5,80002968 <memcpy+0x38>
    80002944:	00c58633          	add	a2,a1,a2
    80002948:	00050793          	mv	a5,a0
    8000294c:	02d57e63          	bgeu	a0,a3,80002988 <memcpy+0x58>
    80002950:	0005c703          	lbu	a4,0(a1)
    80002954:	00158593          	addi	a1,a1,1
    80002958:	00178793          	addi	a5,a5,1
    8000295c:	fee78fa3          	sb	a4,-1(a5)
    80002960:	feb618e3          	bne	a2,a1,80002950 <memcpy+0x20>
    80002964:	00008067          	ret
    80002968:	fed57ee3          	bgeu	a0,a3,80002964 <memcpy+0x34>
    8000296c:	00050793          	mv	a5,a0
    80002970:	0005b703          	ld	a4,0(a1)
    80002974:	00878793          	addi	a5,a5,8
    80002978:	00858593          	addi	a1,a1,8
    8000297c:	fee7bc23          	sd	a4,-8(a5)
    80002980:	fed7e8e3          	bltu	a5,a3,80002970 <memcpy+0x40>
    80002984:	00008067          	ret
    80002988:	00008067          	ret

000000008000298c <memset>:
    8000298c:	00c567b3          	or	a5,a0,a2
    80002990:	0077f793          	andi	a5,a5,7
    80002994:	00c50633          	add	a2,a0,a2
    80002998:	02078063          	beqz	a5,800029b8 <memset+0x2c>
    8000299c:	0ff5f713          	zext.b	a4,a1
    800029a0:	00050793          	mv	a5,a0
    800029a4:	04c57663          	bgeu	a0,a2,800029f0 <memset+0x64>
    800029a8:	00178793          	addi	a5,a5,1
    800029ac:	fee78fa3          	sb	a4,-1(a5)
    800029b0:	fec79ce3          	bne	a5,a2,800029a8 <memset+0x1c>
    800029b4:	00008067          	ret
    800029b8:	010107b7          	lui	a5,0x1010
    800029bc:	10178793          	addi	a5,a5,257 # 1010101 <buflen.1+0x10100c1>
    800029c0:	01079793          	slli	a5,a5,0x10
    800029c4:	10178793          	addi	a5,a5,257
    800029c8:	01079793          	slli	a5,a5,0x10
    800029cc:	0ff5f713          	zext.b	a4,a1
    800029d0:	10178793          	addi	a5,a5,257
    800029d4:	02f70733          	mul	a4,a4,a5
    800029d8:	fcc57ee3          	bgeu	a0,a2,800029b4 <memset+0x28>
    800029dc:	00050793          	mv	a5,a0
    800029e0:	00878793          	addi	a5,a5,8
    800029e4:	fee7bc23          	sd	a4,-8(a5)
    800029e8:	fec7ece3          	bltu	a5,a2,800029e0 <memset+0x54>
    800029ec:	00008067          	ret
    800029f0:	00008067          	ret

00000000800029f4 <_init>:
    800029f4:	fd010113          	addi	sp,sp,-48
    800029f8:	0000b797          	auipc	a5,0xb
    800029fc:	b0878793          	addi	a5,a5,-1272 # 8000d500 <_end>
    80002a00:	01313423          	sd	s3,8(sp)
    80002a04:	0000b997          	auipc	s3,0xb
    80002a08:	afc98993          	addi	s3,s3,-1284 # 8000d500 <_end>
    80002a0c:	01213823          	sd	s2,16(sp)
    80002a10:	40f98933          	sub	s2,s3,a5
    80002a14:	02813023          	sd	s0,32(sp)
    80002a18:	00913c23          	sd	s1,24(sp)
    80002a1c:	00050413          	mv	s0,a0
    80002a20:	00058493          	mv	s1,a1
    80002a24:	00020513          	mv	a0,tp
    80002a28:	00078593          	mv	a1,a5
    80002a2c:	00090613          	mv	a2,s2
    80002a30:	02113423          	sd	ra,40(sp)
    80002a34:	01413023          	sd	s4,0(sp)
    80002a38:	00020a13          	mv	s4,tp
    80002a3c:	ef5ff0ef          	jal	80002930 <memcpy>
    80002a40:	84418613          	addi	a2,gp,-1980 # 8000d544 <_tbss_end>
    80002a44:	41360633          	sub	a2,a2,s3
    80002a48:	00000593          	li	a1,0
    80002a4c:	012a0533          	add	a0,s4,s2
    80002a50:	f3dff0ef          	jal	8000298c <memset>
    80002a54:	00048593          	mv	a1,s1
    80002a58:	00040513          	mv	a0,s0
    80002a5c:	dadff0ef          	jal	80002808 <thread_entry>
    80002a60:	00000593          	li	a1,0
    80002a64:	00000513          	li	a0,0
    80002a68:	33d000ef          	jal	800035a4 <main>
    80002a6c:	ccdff0ef          	jal	80002738 <tohost_exit>

0000000080002a70 <strlen>:
    80002a70:	00054783          	lbu	a5,0(a0)
    80002a74:	00078e63          	beqz	a5,80002a90 <strlen+0x20>
    80002a78:	00050793          	mv	a5,a0
    80002a7c:	0017c703          	lbu	a4,1(a5)
    80002a80:	00178793          	addi	a5,a5,1
    80002a84:	fe071ce3          	bnez	a4,80002a7c <strlen+0xc>
    80002a88:	40a78533          	sub	a0,a5,a0
    80002a8c:	00008067          	ret
    80002a90:	00000513          	li	a0,0
    80002a94:	00008067          	ret

0000000080002a98 <strnlen>:
    80002a98:	00b506b3          	add	a3,a0,a1
    80002a9c:	00050793          	mv	a5,a0
    80002aa0:	00059863          	bnez	a1,80002ab0 <strnlen+0x18>
    80002aa4:	0240006f          	j	80002ac8 <strnlen+0x30>
    80002aa8:	00178793          	addi	a5,a5,1
    80002aac:	00f68a63          	beq	a3,a5,80002ac0 <strnlen+0x28>
    80002ab0:	0007c703          	lbu	a4,0(a5)
    80002ab4:	fe071ae3          	bnez	a4,80002aa8 <strnlen+0x10>
    80002ab8:	40a78533          	sub	a0,a5,a0
    80002abc:	00008067          	ret
    80002ac0:	40a68533          	sub	a0,a3,a0
    80002ac4:	00008067          	ret
    80002ac8:	00000513          	li	a0,0
    80002acc:	00008067          	ret

0000000080002ad0 <strcmp>:
    80002ad0:	00054783          	lbu	a5,0(a0)
    80002ad4:	00158593          	addi	a1,a1,1
    80002ad8:	00150513          	addi	a0,a0,1
    80002adc:	fff5c703          	lbu	a4,-1(a1)
    80002ae0:	00078a63          	beqz	a5,80002af4 <strcmp+0x24>
    80002ae4:	fee786e3          	beq	a5,a4,80002ad0 <strcmp>
    80002ae8:	0007851b          	sext.w	a0,a5
    80002aec:	40e5053b          	subw	a0,a0,a4
    80002af0:	00008067          	ret
    80002af4:	00000513          	li	a0,0
    80002af8:	ff5ff06f          	j	80002aec <strcmp+0x1c>

0000000080002afc <strcpy>:
    80002afc:	00050793          	mv	a5,a0
    80002b00:	0005c703          	lbu	a4,0(a1)
    80002b04:	00178793          	addi	a5,a5,1
    80002b08:	00158593          	addi	a1,a1,1
    80002b0c:	fee78fa3          	sb	a4,-1(a5)
    80002b10:	fe0718e3          	bnez	a4,80002b00 <strcpy+0x4>
    80002b14:	00008067          	ret

0000000080002b18 <atol>:
    80002b18:	00054703          	lbu	a4,0(a0)
    80002b1c:	02000693          	li	a3,32
    80002b20:	00050793          	mv	a5,a0
    80002b24:	00d71863          	bne	a4,a3,80002b34 <atol+0x1c>
    80002b28:	0017c703          	lbu	a4,1(a5)
    80002b2c:	00178793          	addi	a5,a5,1
    80002b30:	fed70ce3          	beq	a4,a3,80002b28 <atol+0x10>
    80002b34:	02d00693          	li	a3,45
    80002b38:	04d70e63          	beq	a4,a3,80002b94 <atol+0x7c>
    80002b3c:	02b00693          	li	a3,43
    80002b40:	04d70063          	beq	a4,a3,80002b80 <atol+0x68>
    80002b44:	0007c683          	lbu	a3,0(a5)
    80002b48:	00000593          	li	a1,0
    80002b4c:	04068c63          	beqz	a3,80002ba4 <atol+0x8c>
    80002b50:	00000513          	li	a0,0
    80002b54:	00178793          	addi	a5,a5,1
    80002b58:	00251713          	slli	a4,a0,0x2
    80002b5c:	fd06861b          	addiw	a2,a3,-48
    80002b60:	0007c683          	lbu	a3,0(a5)
    80002b64:	00a70733          	add	a4,a4,a0
    80002b68:	00171713          	slli	a4,a4,0x1
    80002b6c:	00e60533          	add	a0,a2,a4
    80002b70:	fe0692e3          	bnez	a3,80002b54 <atol+0x3c>
    80002b74:	02058a63          	beqz	a1,80002ba8 <atol+0x90>
    80002b78:	40a00533          	neg	a0,a0
    80002b7c:	00008067          	ret
    80002b80:	0017c683          	lbu	a3,1(a5)
    80002b84:	00178793          	addi	a5,a5,1
    80002b88:	00068e63          	beqz	a3,80002ba4 <atol+0x8c>
    80002b8c:	00000593          	li	a1,0
    80002b90:	fc1ff06f          	j	80002b50 <atol+0x38>
    80002b94:	0017c683          	lbu	a3,1(a5)
    80002b98:	00100593          	li	a1,1
    80002b9c:	00178793          	addi	a5,a5,1
    80002ba0:	fa0698e3          	bnez	a3,80002b50 <atol+0x38>
    80002ba4:	00000513          	li	a0,0
    80002ba8:	00008067          	ret

0000000080002bac <__adddf3>:
    80002bac:	fff00713          	li	a4,-1
    80002bb0:	fe010113          	addi	sp,sp,-32
    80002bb4:	00c75713          	srli	a4,a4,0xc
    80002bb8:	00a776b3          	and	a3,a4,a0
    80002bbc:	00b77e33          	and	t3,a4,a1
    80002bc0:	0345d613          	srli	a2,a1,0x34
    80002bc4:	00813823          	sd	s0,16(sp)
    80002bc8:	00913423          	sd	s1,8(sp)
    80002bcc:	03455413          	srli	s0,a0,0x34
    80002bd0:	03f55493          	srli	s1,a0,0x3f
    80002bd4:	00113c23          	sd	ra,24(sp)
    80002bd8:	03f5d593          	srli	a1,a1,0x3f
    80002bdc:	00068793          	mv	a5,a3
    80002be0:	7ff47413          	andi	s0,s0,2047
    80002be4:	00048893          	mv	a7,s1
    80002be8:	00369813          	slli	a6,a3,0x3
    80002bec:	7ff67513          	andi	a0,a2,2047
    80002bf0:	003e1313          	slli	t1,t3,0x3
    80002bf4:	14b48863          	beq	s1,a1,80002d44 <__adddf3+0x198>
    80002bf8:	40a40ebb          	subw	t4,s0,a0
    80002bfc:	000e861b          	sext.w	a2,t4
    80002c00:	10c05263          	blez	a2,80002d04 <__adddf3+0x158>
    80002c04:	16050a63          	beqz	a0,80002d78 <__adddf3+0x1cc>
    80002c08:	7ff00793          	li	a5,2047
    80002c0c:	12f40063          	beq	s0,a5,80002d2c <__adddf3+0x180>
    80002c10:	00100793          	li	a5,1
    80002c14:	03779793          	slli	a5,a5,0x37
    80002c18:	00f36333          	or	t1,t1,a5
    80002c1c:	03800713          	li	a4,56
    80002c20:	00100793          	li	a5,1
    80002c24:	00c74e63          	blt	a4,a2,80002c40 <__adddf3+0x94>
    80002c28:	04000793          	li	a5,64
    80002c2c:	40c787bb          	subw	a5,a5,a2
    80002c30:	00f317b3          	sll	a5,t1,a5
    80002c34:	00c35633          	srl	a2,t1,a2
    80002c38:	00f037b3          	snez	a5,a5
    80002c3c:	00f667b3          	or	a5,a2,a5
    80002c40:	40f80833          	sub	a6,a6,a5
    80002c44:	00881793          	slli	a5,a6,0x8
    80002c48:	1e07d463          	bgez	a5,80002e30 <__adddf3+0x284>
    80002c4c:	01213023          	sd	s2,0(sp)
    80002c50:	00981913          	slli	s2,a6,0x9
    80002c54:	00995913          	srli	s2,s2,0x9
    80002c58:	00090513          	mv	a0,s2
    80002c5c:	0d9000ef          	jal	80003534 <__clzdi2>
    80002c60:	ff85079b          	addiw	a5,a0,-8
    80002c64:	00f91933          	sll	s2,s2,a5
    80002c68:	2087c463          	blt	a5,s0,80002e70 <__adddf3+0x2c4>
    80002c6c:	4087853b          	subw	a0,a5,s0
    80002c70:	0015051b          	addiw	a0,a0,1
    80002c74:	04000813          	li	a6,64
    80002c78:	40a8083b          	subw	a6,a6,a0
    80002c7c:	01091833          	sll	a6,s2,a6
    80002c80:	01003833          	snez	a6,a6
    80002c84:	00a95933          	srl	s2,s2,a0
    80002c88:	01096833          	or	a6,s2,a6
    80002c8c:	00013903          	ld	s2,0(sp)
    80002c90:	00000413          	li	s0,0
    80002c94:	00787793          	andi	a5,a6,7
    80002c98:	00078a63          	beqz	a5,80002cac <__adddf3+0x100>
    80002c9c:	00f87793          	andi	a5,a6,15
    80002ca0:	00400713          	li	a4,4
    80002ca4:	00e78463          	beq	a5,a4,80002cac <__adddf3+0x100>
    80002ca8:	00480813          	addi	a6,a6,4
    80002cac:	00881793          	slli	a5,a6,0x8
    80002cb0:	1407da63          	bgez	a5,80002e04 <__adddf3+0x258>
    80002cb4:	00140413          	addi	s0,s0,1
    80002cb8:	7ff00793          	li	a5,2047
    80002cbc:	00048893          	mv	a7,s1
    80002cc0:	16f40263          	beq	s0,a5,80002e24 <__adddf3+0x278>
    80002cc4:	fff00793          	li	a5,-1
    80002cc8:	03779793          	slli	a5,a5,0x37
    80002ccc:	fff78793          	addi	a5,a5,-1
    80002cd0:	00f877b3          	and	a5,a6,a5
    80002cd4:	7ff47513          	andi	a0,s0,2047
    80002cd8:	00979793          	slli	a5,a5,0x9
    80002cdc:	00c7d793          	srli	a5,a5,0xc
    80002ce0:	01813083          	ld	ra,24(sp)
    80002ce4:	01013403          	ld	s0,16(sp)
    80002ce8:	03451513          	slli	a0,a0,0x34
    80002cec:	00f56533          	or	a0,a0,a5
    80002cf0:	03f89793          	slli	a5,a7,0x3f
    80002cf4:	00813483          	ld	s1,8(sp)
    80002cf8:	00f56533          	or	a0,a0,a5
    80002cfc:	02010113          	addi	sp,sp,32
    80002d00:	00008067          	ret
    80002d04:	08060663          	beqz	a2,80002d90 <__adddf3+0x1e4>
    80002d08:	1e041a63          	bnez	s0,80002efc <__adddf3+0x350>
    80002d0c:	0e080663          	beqz	a6,80002df8 <__adddf3+0x24c>
    80002d10:	fffece93          	not	t4,t4
    80002d14:	000e8e9b          	sext.w	t4,t4
    80002d18:	300e8263          	beqz	t4,8000301c <__adddf3+0x470>
    80002d1c:	7ff00793          	li	a5,2047
    80002d20:	1ef51a63          	bne	a0,a5,80002f14 <__adddf3+0x368>
    80002d24:	00058493          	mv	s1,a1
    80002d28:	000e0693          	mv	a3,t3
    80002d2c:	16068063          	beqz	a3,80002e8c <__adddf3+0x2e0>
    80002d30:	00100793          	li	a5,1
    80002d34:	00000893          	li	a7,0
    80002d38:	7ff00513          	li	a0,2047
    80002d3c:	03379793          	slli	a5,a5,0x33
    80002d40:	fa1ff06f          	j	80002ce0 <__adddf3+0x134>
    80002d44:	40a405bb          	subw	a1,s0,a0
    80002d48:	0005861b          	sext.w	a2,a1
    80002d4c:	0ec05863          	blez	a2,80002e3c <__adddf3+0x290>
    80002d50:	08050863          	beqz	a0,80002de0 <__adddf3+0x234>
    80002d54:	7ff00793          	li	a5,2047
    80002d58:	fcf40ae3          	beq	s0,a5,80002d2c <__adddf3+0x180>
    80002d5c:	00100793          	li	a5,1
    80002d60:	03779793          	slli	a5,a5,0x37
    80002d64:	00f36333          	or	t1,t1,a5
    80002d68:	03800793          	li	a5,56
    80002d6c:	1cc7de63          	bge	a5,a2,80002f48 <__adddf3+0x39c>
    80002d70:	00180813          	addi	a6,a6,1
    80002d74:	f21ff06f          	j	80002c94 <__adddf3+0xe8>
    80002d78:	08030663          	beqz	t1,80002e04 <__adddf3+0x258>
    80002d7c:	fffe861b          	addiw	a2,t4,-1
    80002d80:	26060263          	beqz	a2,80002fe4 <__adddf3+0x438>
    80002d84:	7ff00793          	li	a5,2047
    80002d88:	e8f41ae3          	bne	s0,a5,80002c1c <__adddf3+0x70>
    80002d8c:	fa1ff06f          	j	80002d2c <__adddf3+0x180>
    80002d90:	00140693          	addi	a3,s0,1
    80002d94:	7fe6f693          	andi	a3,a3,2046
    80002d98:	12069e63          	bnez	a3,80002ed4 <__adddf3+0x328>
    80002d9c:	f8041ae3          	bnez	s0,80002d30 <__adddf3+0x184>
    80002da0:	28080663          	beqz	a6,8000302c <__adddf3+0x480>
    80002da4:	00000513          	li	a0,0
    80002da8:	f2030ce3          	beqz	t1,80002ce0 <__adddf3+0x134>
    80002dac:	406807b3          	sub	a5,a6,t1
    80002db0:	00879693          	slli	a3,a5,0x8
    80002db4:	2c06d063          	bgez	a3,80003074 <__adddf3+0x4c8>
    80002db8:	410307b3          	sub	a5,t1,a6
    80002dbc:	00879693          	slli	a3,a5,0x8
    80002dc0:	2c06d263          	bgez	a3,80003084 <__adddf3+0x4d8>
    80002dc4:	fff00713          	li	a4,-1
    80002dc8:	03771713          	slli	a4,a4,0x37
    80002dcc:	fff70713          	addi	a4,a4,-1
    80002dd0:	00e7f7b3          	and	a5,a5,a4
    80002dd4:	00058893          	mv	a7,a1
    80002dd8:	00100513          	li	a0,1
    80002ddc:	efdff06f          	j	80002cd8 <__adddf3+0x12c>
    80002de0:	02030263          	beqz	t1,80002e04 <__adddf3+0x258>
    80002de4:	fff5861b          	addiw	a2,a1,-1
    80002de8:	1e060a63          	beqz	a2,80002fdc <__adddf3+0x430>
    80002dec:	7ff00793          	li	a5,2047
    80002df0:	f6f41ce3          	bne	s0,a5,80002d68 <__adddf3+0x1bc>
    80002df4:	f39ff06f          	j	80002d2c <__adddf3+0x180>
    80002df8:	00050413          	mv	s0,a0
    80002dfc:	00058493          	mv	s1,a1
    80002e00:	00030813          	mv	a6,t1
    80002e04:	7ff00793          	li	a5,2047
    80002e08:	00385693          	srli	a3,a6,0x3
    80002e0c:	f2f400e3          	beq	s0,a5,80002d2c <__adddf3+0x180>
    80002e10:	00c69693          	slli	a3,a3,0xc
    80002e14:	00c6d793          	srli	a5,a3,0xc
    80002e18:	7ff47513          	andi	a0,s0,2047
    80002e1c:	00048893          	mv	a7,s1
    80002e20:	ec1ff06f          	j	80002ce0 <__adddf3+0x134>
    80002e24:	7ff00513          	li	a0,2047
    80002e28:	00000793          	li	a5,0
    80002e2c:	eb5ff06f          	j	80002ce0 <__adddf3+0x134>
    80002e30:	00787793          	andi	a5,a6,7
    80002e34:	e60794e3          	bnez	a5,80002c9c <__adddf3+0xf0>
    80002e38:	fcdff06f          	j	80002e04 <__adddf3+0x258>
    80002e3c:	06060063          	beqz	a2,80002e9c <__adddf3+0x2f0>
    80002e40:	14040c63          	beqz	s0,80002f98 <__adddf3+0x3ec>
    80002e44:	7ff00793          	li	a5,2047
    80002e48:	eef500e3          	beq	a0,a5,80002d28 <__adddf3+0x17c>
    80002e4c:	00100793          	li	a5,1
    80002e50:	03779793          	slli	a5,a5,0x37
    80002e54:	40b005bb          	negw	a1,a1
    80002e58:	00f86833          	or	a6,a6,a5
    80002e5c:	03800793          	li	a5,56
    80002e60:	18b7d663          	bge	a5,a1,80002fec <__adddf3+0x440>
    80002e64:	00130813          	addi	a6,t1,1
    80002e68:	00050413          	mv	s0,a0
    80002e6c:	e29ff06f          	j	80002c94 <__adddf3+0xe8>
    80002e70:	fff00813          	li	a6,-1
    80002e74:	03781813          	slli	a6,a6,0x37
    80002e78:	fff80813          	addi	a6,a6,-1
    80002e7c:	01097833          	and	a6,s2,a6
    80002e80:	40f40433          	sub	s0,s0,a5
    80002e84:	00013903          	ld	s2,0(sp)
    80002e88:	e0dff06f          	j	80002c94 <__adddf3+0xe8>
    80002e8c:	00048893          	mv	a7,s1
    80002e90:	7ff00513          	li	a0,2047
    80002e94:	00000793          	li	a5,0
    80002e98:	e49ff06f          	j	80002ce0 <__adddf3+0x134>
    80002e9c:	00140693          	addi	a3,s0,1
    80002ea0:	7fe6f613          	andi	a2,a3,2046
    80002ea4:	10061a63          	bnez	a2,80002fb8 <__adddf3+0x40c>
    80002ea8:	16041463          	bnez	s0,80003010 <__adddf3+0x464>
    80002eac:	1a080063          	beqz	a6,8000304c <__adddf3+0x4a0>
    80002eb0:	00000513          	li	a0,0
    80002eb4:	e20306e3          	beqz	t1,80002ce0 <__adddf3+0x134>
    80002eb8:	00680333          	add	t1,a6,t1
    80002ebc:	00335793          	srli	a5,t1,0x3
    80002ec0:	00831693          	slli	a3,t1,0x8
    80002ec4:	00e7f7b3          	and	a5,a5,a4
    80002ec8:	e006dce3          	bgez	a3,80002ce0 <__adddf3+0x134>
    80002ecc:	00100513          	li	a0,1
    80002ed0:	e11ff06f          	j	80002ce0 <__adddf3+0x134>
    80002ed4:	01213023          	sd	s2,0(sp)
    80002ed8:	40680933          	sub	s2,a6,t1
    80002edc:	00891793          	slli	a5,s2,0x8
    80002ee0:	0e07c863          	bltz	a5,80002fd0 <__adddf3+0x424>
    80002ee4:	d6091ae3          	bnez	s2,80002c58 <__adddf3+0xac>
    80002ee8:	00013903          	ld	s2,0(sp)
    80002eec:	00000893          	li	a7,0
    80002ef0:	00000513          	li	a0,0
    80002ef4:	00000793          	li	a5,0
    80002ef8:	de9ff06f          	j	80002ce0 <__adddf3+0x134>
    80002efc:	7ff00793          	li	a5,2047
    80002f00:	e2f502e3          	beq	a0,a5,80002d24 <__adddf3+0x178>
    80002f04:	00100793          	li	a5,1
    80002f08:	03779793          	slli	a5,a5,0x37
    80002f0c:	41d00ebb          	negw	t4,t4
    80002f10:	00f86833          	or	a6,a6,a5
    80002f14:	03800713          	li	a4,56
    80002f18:	00100793          	li	a5,1
    80002f1c:	01d74e63          	blt	a4,t4,80002f38 <__adddf3+0x38c>
    80002f20:	04000793          	li	a5,64
    80002f24:	41d787bb          	subw	a5,a5,t4
    80002f28:	00f817b3          	sll	a5,a6,a5
    80002f2c:	01d85eb3          	srl	t4,a6,t4
    80002f30:	00f037b3          	snez	a5,a5
    80002f34:	00fee7b3          	or	a5,t4,a5
    80002f38:	40f30833          	sub	a6,t1,a5
    80002f3c:	00050413          	mv	s0,a0
    80002f40:	00058493          	mv	s1,a1
    80002f44:	d01ff06f          	j	80002c44 <__adddf3+0x98>
    80002f48:	04000793          	li	a5,64
    80002f4c:	40c787bb          	subw	a5,a5,a2
    80002f50:	00f317b3          	sll	a5,t1,a5
    80002f54:	00c35633          	srl	a2,t1,a2
    80002f58:	00f037b3          	snez	a5,a5
    80002f5c:	00f66633          	or	a2,a2,a5
    80002f60:	00c80833          	add	a6,a6,a2
    80002f64:	00881793          	slli	a5,a6,0x8
    80002f68:	ec07d4e3          	bgez	a5,80002e30 <__adddf3+0x284>
    80002f6c:	00140413          	addi	s0,s0,1
    80002f70:	7ff00793          	li	a5,2047
    80002f74:	eaf408e3          	beq	s0,a5,80002e24 <__adddf3+0x278>
    80002f78:	1ff00793          	li	a5,511
    80002f7c:	03679793          	slli	a5,a5,0x36
    80002f80:	00185713          	srli	a4,a6,0x1
    80002f84:	fff78793          	addi	a5,a5,-1
    80002f88:	00187813          	andi	a6,a6,1
    80002f8c:	00f777b3          	and	a5,a4,a5
    80002f90:	0107e833          	or	a6,a5,a6
    80002f94:	d01ff06f          	j	80002c94 <__adddf3+0xe8>
    80002f98:	0a080463          	beqz	a6,80003040 <__adddf3+0x494>
    80002f9c:	fff5c593          	not	a1,a1
    80002fa0:	0005859b          	sext.w	a1,a1
    80002fa4:	0a058a63          	beqz	a1,80003058 <__adddf3+0x4ac>
    80002fa8:	7ff00793          	li	a5,2047
    80002fac:	eaf518e3          	bne	a0,a5,80002e5c <__adddf3+0x2b0>
    80002fb0:	000e0693          	mv	a3,t3
    80002fb4:	d79ff06f          	j	80002d2c <__adddf3+0x180>
    80002fb8:	7ff00793          	li	a5,2047
    80002fbc:	e6f684e3          	beq	a3,a5,80002e24 <__adddf3+0x278>
    80002fc0:	00680333          	add	t1,a6,t1
    80002fc4:	00135813          	srli	a6,t1,0x1
    80002fc8:	00068413          	mv	s0,a3
    80002fcc:	cc9ff06f          	j	80002c94 <__adddf3+0xe8>
    80002fd0:	41030933          	sub	s2,t1,a6
    80002fd4:	00058493          	mv	s1,a1
    80002fd8:	c81ff06f          	j	80002c58 <__adddf3+0xac>
    80002fdc:	00680833          	add	a6,a6,t1
    80002fe0:	f85ff06f          	j	80002f64 <__adddf3+0x3b8>
    80002fe4:	40680833          	sub	a6,a6,t1
    80002fe8:	c5dff06f          	j	80002c44 <__adddf3+0x98>
    80002fec:	04000793          	li	a5,64
    80002ff0:	40b787bb          	subw	a5,a5,a1
    80002ff4:	00f817b3          	sll	a5,a6,a5
    80002ff8:	00b855b3          	srl	a1,a6,a1
    80002ffc:	00f037b3          	snez	a5,a5
    80003000:	00f5e5b3          	or	a1,a1,a5
    80003004:	00658833          	add	a6,a1,t1
    80003008:	00050413          	mv	s0,a0
    8000300c:	f59ff06f          	j	80002f64 <__adddf3+0x3b8>
    80003010:	d20810e3          	bnez	a6,80002d30 <__adddf3+0x184>
    80003014:	000e0693          	mv	a3,t3
    80003018:	d15ff06f          	j	80002d2c <__adddf3+0x180>
    8000301c:	41030833          	sub	a6,t1,a6
    80003020:	00050413          	mv	s0,a0
    80003024:	00058493          	mv	s1,a1
    80003028:	c1dff06f          	j	80002c44 <__adddf3+0x98>
    8000302c:	02030c63          	beqz	t1,80003064 <__adddf3+0x4b8>
    80003030:	00058893          	mv	a7,a1
    80003034:	000e0793          	mv	a5,t3
    80003038:	00000513          	li	a0,0
    8000303c:	ca5ff06f          	j	80002ce0 <__adddf3+0x134>
    80003040:	00050413          	mv	s0,a0
    80003044:	00030813          	mv	a6,t1
    80003048:	dbdff06f          	j	80002e04 <__adddf3+0x258>
    8000304c:	000e0793          	mv	a5,t3
    80003050:	00000513          	li	a0,0
    80003054:	c8dff06f          	j	80002ce0 <__adddf3+0x134>
    80003058:	00680833          	add	a6,a6,t1
    8000305c:	00050413          	mv	s0,a0
    80003060:	f05ff06f          	j	80002f64 <__adddf3+0x3b8>
    80003064:	00000893          	li	a7,0
    80003068:	00000513          	li	a0,0
    8000306c:	00000793          	li	a5,0
    80003070:	c71ff06f          	j	80002ce0 <__adddf3+0x134>
    80003074:	02078063          	beqz	a5,80003094 <__adddf3+0x4e8>
    80003078:	0037d793          	srli	a5,a5,0x3
    8000307c:	00e7f7b3          	and	a5,a5,a4
    80003080:	c61ff06f          	j	80002ce0 <__adddf3+0x134>
    80003084:	0037d793          	srli	a5,a5,0x3
    80003088:	00e7f7b3          	and	a5,a5,a4
    8000308c:	00058893          	mv	a7,a1
    80003090:	c51ff06f          	j	80002ce0 <__adddf3+0x134>
    80003094:	00000893          	li	a7,0
    80003098:	00000793          	li	a5,0
    8000309c:	c45ff06f          	j	80002ce0 <__adddf3+0x134>

00000000800030a0 <__eqdf2>:
    800030a0:	03455693          	srli	a3,a0,0x34
    800030a4:	fff00713          	li	a4,-1
    800030a8:	00c75713          	srli	a4,a4,0xc
    800030ac:	0345d613          	srli	a2,a1,0x34
    800030b0:	7ff6f693          	andi	a3,a3,2047
    800030b4:	7ff00813          	li	a6,2047
    800030b8:	00a778b3          	and	a7,a4,a0
    800030bc:	03f55793          	srli	a5,a0,0x3f
    800030c0:	00b77733          	and	a4,a4,a1
    800030c4:	7ff67613          	andi	a2,a2,2047
    800030c8:	03f5d593          	srli	a1,a1,0x3f
    800030cc:	00100513          	li	a0,1
    800030d0:	01068c63          	beq	a3,a6,800030e8 <__eqdf2+0x48>
    800030d4:	01060863          	beq	a2,a6,800030e4 <__eqdf2+0x44>
    800030d8:	00c69463          	bne	a3,a2,800030e0 <__eqdf2+0x40>
    800030dc:	02e88063          	beq	a7,a4,800030fc <__eqdf2+0x5c>
    800030e0:	00008067          	ret
    800030e4:	00008067          	ret
    800030e8:	fe089ce3          	bnez	a7,800030e0 <__eqdf2+0x40>
    800030ec:	fed61ae3          	bne	a2,a3,800030e0 <__eqdf2+0x40>
    800030f0:	fe0718e3          	bnez	a4,800030e0 <__eqdf2+0x40>
    800030f4:	00b7c533          	xor	a0,a5,a1
    800030f8:	00008067          	ret
    800030fc:	00000513          	li	a0,0
    80003100:	feb780e3          	beq	a5,a1,800030e0 <__eqdf2+0x40>
    80003104:	00100513          	li	a0,1
    80003108:	fc069ce3          	bnez	a3,800030e0 <__eqdf2+0x40>
    8000310c:	01103533          	snez	a0,a7
    80003110:	00008067          	ret

0000000080003114 <__muldf3>:
    80003114:	fb010113          	addi	sp,sp,-80
    80003118:	03455793          	srli	a5,a0,0x34
    8000311c:	03213823          	sd	s2,48(sp)
    80003120:	03313423          	sd	s3,40(sp)
    80003124:	04113423          	sd	ra,72(sp)
    80003128:	00c51993          	slli	s3,a0,0xc
    8000312c:	04813023          	sd	s0,64(sp)
    80003130:	02913c23          	sd	s1,56(sp)
    80003134:	03413023          	sd	s4,32(sp)
    80003138:	01513c23          	sd	s5,24(sp)
    8000313c:	01613823          	sd	s6,16(sp)
    80003140:	7ff7f793          	andi	a5,a5,2047
    80003144:	00c9d993          	srli	s3,s3,0xc
    80003148:	03f55913          	srli	s2,a0,0x3f
    8000314c:	24078e63          	beqz	a5,800033a8 <__muldf3+0x294>
    80003150:	7ff00713          	li	a4,2047
    80003154:	18e78063          	beq	a5,a4,800032d4 <__muldf3+0x1c0>
    80003158:	00100713          	li	a4,1
    8000315c:	00399993          	slli	s3,s3,0x3
    80003160:	03771713          	slli	a4,a4,0x37
    80003164:	00e9e9b3          	or	s3,s3,a4
    80003168:	c0178b13          	addi	s6,a5,-1023
    8000316c:	00000493          	li	s1,0
    80003170:	00000a93          	li	s5,0
    80003174:	0345d793          	srli	a5,a1,0x34
    80003178:	00c59a13          	slli	s4,a1,0xc
    8000317c:	7ff7f793          	andi	a5,a5,2047
    80003180:	00ca5a13          	srli	s4,s4,0xc
    80003184:	03f5d413          	srli	s0,a1,0x3f
    80003188:	16078a63          	beqz	a5,800032fc <__muldf3+0x1e8>
    8000318c:	7ff00713          	li	a4,2047
    80003190:	1ee78263          	beq	a5,a4,80003374 <__muldf3+0x260>
    80003194:	00100713          	li	a4,1
    80003198:	003a1a13          	slli	s4,s4,0x3
    8000319c:	03771713          	slli	a4,a4,0x37
    800031a0:	c0178793          	addi	a5,a5,-1023
    800031a4:	00ea6a33          	or	s4,s4,a4
    800031a8:	00fb0b33          	add	s6,s6,a5
    800031ac:	00000593          	li	a1,0
    800031b0:	00a00793          	li	a5,10
    800031b4:	001b0613          	addi	a2,s6,1
    800031b8:	1497ce63          	blt	a5,s1,80003314 <__muldf3+0x200>
    800031bc:	00894533          	xor	a0,s2,s0
    800031c0:	00200793          	li	a5,2
    800031c4:	00050693          	mv	a3,a0
    800031c8:	2097d263          	bge	a5,s1,800033cc <__muldf3+0x2b8>
    800031cc:	00100713          	li	a4,1
    800031d0:	00971733          	sll	a4,a4,s1
    800031d4:	53077793          	andi	a5,a4,1328
    800031d8:	14079063          	bnez	a5,80003318 <__muldf3+0x204>
    800031dc:	24077793          	andi	a5,a4,576
    800031e0:	28079663          	bnez	a5,8000346c <__muldf3+0x358>
    800031e4:	08877713          	andi	a4,a4,136
    800031e8:	26071a63          	bnez	a4,8000345c <__muldf3+0x348>
    800031ec:	fff00793          	li	a5,-1
    800031f0:	0207d793          	srli	a5,a5,0x20
    800031f4:	0209d593          	srli	a1,s3,0x20
    800031f8:	020a5813          	srli	a6,s4,0x20
    800031fc:	00f9f9b3          	and	s3,s3,a5
    80003200:	00fa77b3          	and	a5,s4,a5
    80003204:	03378533          	mul	a0,a5,s3
    80003208:	02f587b3          	mul	a5,a1,a5
    8000320c:	02055713          	srli	a4,a0,0x20
    80003210:	033809b3          	mul	s3,a6,s3
    80003214:	00f989b3          	add	s3,s3,a5
    80003218:	01370733          	add	a4,a4,s3
    8000321c:	030585b3          	mul	a1,a1,a6
    80003220:	00f77863          	bgeu	a4,a5,80003230 <__muldf3+0x11c>
    80003224:	00100793          	li	a5,1
    80003228:	02079793          	slli	a5,a5,0x20
    8000322c:	00f585b3          	add	a1,a1,a5
    80003230:	fff00813          	li	a6,-1
    80003234:	02085813          	srli	a6,a6,0x20
    80003238:	010777b3          	and	a5,a4,a6
    8000323c:	02079793          	slli	a5,a5,0x20
    80003240:	01057533          	and	a0,a0,a6
    80003244:	00a787b3          	add	a5,a5,a0
    80003248:	02075713          	srli	a4,a4,0x20
    8000324c:	00979993          	slli	s3,a5,0x9
    80003250:	00b70733          	add	a4,a4,a1
    80003254:	0377d793          	srli	a5,a5,0x37
    80003258:	00971713          	slli	a4,a4,0x9
    8000325c:	013039b3          	snez	s3,s3
    80003260:	00f9e9b3          	or	s3,s3,a5
    80003264:	00771793          	slli	a5,a4,0x7
    80003268:	013769b3          	or	s3,a4,s3
    8000326c:	0007da63          	bgez	a5,80003280 <__muldf3+0x16c>
    80003270:	0019d793          	srli	a5,s3,0x1
    80003274:	0019f993          	andi	s3,s3,1
    80003278:	0137e9b3          	or	s3,a5,s3
    8000327c:	00060b13          	mv	s6,a2
    80003280:	3ffb0793          	addi	a5,s6,1023
    80003284:	1ef05e63          	blez	a5,80003480 <__muldf3+0x36c>
    80003288:	0079f713          	andi	a4,s3,7
    8000328c:	00070a63          	beqz	a4,800032a0 <__muldf3+0x18c>
    80003290:	00f9f713          	andi	a4,s3,15
    80003294:	00400613          	li	a2,4
    80003298:	00c70463          	beq	a4,a2,800032a0 <__muldf3+0x18c>
    8000329c:	00498993          	addi	s3,s3,4
    800032a0:	00799713          	slli	a4,s3,0x7
    800032a4:	00075c63          	bgez	a4,800032bc <__muldf3+0x1a8>
    800032a8:	fff00793          	li	a5,-1
    800032ac:	03879793          	slli	a5,a5,0x38
    800032b0:	fff78793          	addi	a5,a5,-1
    800032b4:	00f9f9b3          	and	s3,s3,a5
    800032b8:	400b0793          	addi	a5,s6,1024
    800032bc:	7fe00713          	li	a4,2046
    800032c0:	20f74a63          	blt	a4,a5,800034d4 <__muldf3+0x3c0>
    800032c4:	00999713          	slli	a4,s3,0x9
    800032c8:	00c75713          	srli	a4,a4,0xc
    800032cc:	7ff7f793          	andi	a5,a5,2047
    800032d0:	06c0006f          	j	8000333c <__muldf3+0x228>
    800032d4:	16099c63          	bnez	s3,8000344c <__muldf3+0x338>
    800032d8:	0345d793          	srli	a5,a1,0x34
    800032dc:	00c59a13          	slli	s4,a1,0xc
    800032e0:	7ff7f793          	andi	a5,a5,2047
    800032e4:	00800493          	li	s1,8
    800032e8:	7ff00b13          	li	s6,2047
    800032ec:	00200a93          	li	s5,2
    800032f0:	00ca5a13          	srli	s4,s4,0xc
    800032f4:	03f5d413          	srli	s0,a1,0x3f
    800032f8:	e8079ae3          	bnez	a5,8000318c <__muldf3+0x78>
    800032fc:	100a1e63          	bnez	s4,80003418 <__muldf3+0x304>
    80003300:	0014e493          	ori	s1,s1,1
    80003304:	00a00793          	li	a5,10
    80003308:	00100593          	li	a1,1
    8000330c:	001b0613          	addi	a2,s6,1
    80003310:	ea97d6e3          	bge	a5,s1,800031bc <__muldf3+0xa8>
    80003314:	00090513          	mv	a0,s2
    80003318:	00200793          	li	a5,2
    8000331c:	0afa8063          	beq	s5,a5,800033bc <__muldf3+0x2a8>
    80003320:	00300793          	li	a5,3
    80003324:	14fa8463          	beq	s5,a5,8000346c <__muldf3+0x358>
    80003328:	00100793          	li	a5,1
    8000332c:	00050693          	mv	a3,a0
    80003330:	18fa9e63          	bne	s5,a5,800034cc <__muldf3+0x3b8>
    80003334:	00000793          	li	a5,0
    80003338:	00000713          	li	a4,0
    8000333c:	04813083          	ld	ra,72(sp)
    80003340:	04013403          	ld	s0,64(sp)
    80003344:	03479513          	slli	a0,a5,0x34
    80003348:	00e56533          	or	a0,a0,a4
    8000334c:	03f69793          	slli	a5,a3,0x3f
    80003350:	03813483          	ld	s1,56(sp)
    80003354:	03013903          	ld	s2,48(sp)
    80003358:	02813983          	ld	s3,40(sp)
    8000335c:	02013a03          	ld	s4,32(sp)
    80003360:	01813a83          	ld	s5,24(sp)
    80003364:	01013b03          	ld	s6,16(sp)
    80003368:	00f56533          	or	a0,a0,a5
    8000336c:	05010113          	addi	sp,sp,80
    80003370:	00008067          	ret
    80003374:	7ffb0713          	addi	a4,s6,2047
    80003378:	0c0a0263          	beqz	s4,8000343c <__muldf3+0x328>
    8000337c:	00001637          	lui	a2,0x1
    80003380:	80060613          	addi	a2,a2,-2048 # 800 <buflen.1+0x7c0>
    80003384:	0034e493          	ori	s1,s1,3
    80003388:	00a00693          	li	a3,10
    8000338c:	00cb0633          	add	a2,s6,a2
    80003390:	1096ce63          	blt	a3,s1,800034ac <__muldf3+0x398>
    80003394:	008946b3          	xor	a3,s2,s0
    80003398:	00068513          	mv	a0,a3
    8000339c:	00070b13          	mv	s6,a4
    800033a0:	00300593          	li	a1,3
    800033a4:	e29ff06f          	j	800031cc <__muldf3+0xb8>
    800033a8:	04099063          	bnez	s3,800033e8 <__muldf3+0x2d4>
    800033ac:	00400493          	li	s1,4
    800033b0:	00000b13          	li	s6,0
    800033b4:	00100a93          	li	s5,1
    800033b8:	dbdff06f          	j	80003174 <__muldf3+0x60>
    800033bc:	00050693          	mv	a3,a0
    800033c0:	7ff00793          	li	a5,2047
    800033c4:	00000713          	li	a4,0
    800033c8:	f75ff06f          	j	8000333c <__muldf3+0x228>
    800033cc:	fff48493          	addi	s1,s1,-1
    800033d0:	00100713          	li	a4,1
    800033d4:	e0976ce3          	bltu	a4,s1,800031ec <__muldf3+0xd8>
    800033d8:	fef582e3          	beq	a1,a5,800033bc <__muldf3+0x2a8>
    800033dc:	000a0993          	mv	s3,s4
    800033e0:	00058a93          	mv	s5,a1
    800033e4:	f45ff06f          	j	80003328 <__muldf3+0x214>
    800033e8:	00098513          	mv	a0,s3
    800033ec:	00b13423          	sd	a1,8(sp)
    800033f0:	144000ef          	jal	80003534 <__clzdi2>
    800033f4:	0005071b          	sext.w	a4,a0
    800033f8:	c0d00793          	li	a5,-1011
    800033fc:	ff85051b          	addiw	a0,a0,-8
    80003400:	00813583          	ld	a1,8(sp)
    80003404:	00a999b3          	sll	s3,s3,a0
    80003408:	40e78b33          	sub	s6,a5,a4
    8000340c:	00000493          	li	s1,0
    80003410:	00000a93          	li	s5,0
    80003414:	d61ff06f          	j	80003174 <__muldf3+0x60>
    80003418:	000a0513          	mv	a0,s4
    8000341c:	118000ef          	jal	80003534 <__clzdi2>
    80003420:	0005079b          	sext.w	a5,a0
    80003424:	40fb07b3          	sub	a5,s6,a5
    80003428:	ff85051b          	addiw	a0,a0,-8
    8000342c:	00aa1a33          	sll	s4,s4,a0
    80003430:	c0d78b13          	addi	s6,a5,-1011
    80003434:	00000593          	li	a1,0
    80003438:	d79ff06f          	j	800031b0 <__muldf3+0x9c>
    8000343c:	0024e493          	ori	s1,s1,2
    80003440:	00070b13          	mv	s6,a4
    80003444:	00200593          	li	a1,2
    80003448:	d69ff06f          	j	800031b0 <__muldf3+0x9c>
    8000344c:	00c00493          	li	s1,12
    80003450:	7ff00b13          	li	s6,2047
    80003454:	00300a93          	li	s5,3
    80003458:	d1dff06f          	j	80003174 <__muldf3+0x60>
    8000345c:	000a0993          	mv	s3,s4
    80003460:	00058a93          	mv	s5,a1
    80003464:	00040513          	mv	a0,s0
    80003468:	eb1ff06f          	j	80003318 <__muldf3+0x204>
    8000346c:	00100713          	li	a4,1
    80003470:	00000693          	li	a3,0
    80003474:	7ff00793          	li	a5,2047
    80003478:	03371713          	slli	a4,a4,0x33
    8000347c:	ec1ff06f          	j	8000333c <__muldf3+0x228>
    80003480:	06078063          	beqz	a5,800034e0 <__muldf3+0x3cc>
    80003484:	00100613          	li	a2,1
    80003488:	40f60633          	sub	a2,a2,a5
    8000348c:	03800593          	li	a1,56
    80003490:	00000793          	li	a5,0
    80003494:	00000713          	li	a4,0
    80003498:	eac5c2e3          	blt	a1,a2,8000333c <__muldf3+0x228>
    8000349c:	04000793          	li	a5,64
    800034a0:	0006071b          	sext.w	a4,a2
    800034a4:	40c787bb          	subw	a5,a5,a2
    800034a8:	0400006f          	j	800034e8 <__muldf3+0x3d4>
    800034ac:	00100713          	li	a4,1
    800034b0:	00f00593          	li	a1,15
    800034b4:	00000693          	li	a3,0
    800034b8:	03371713          	slli	a4,a4,0x33
    800034bc:	000a0993          	mv	s3,s4
    800034c0:	00300a93          	li	s5,3
    800034c4:	e6b48ce3          	beq	s1,a1,8000333c <__muldf3+0x228>
    800034c8:	f9dff06f          	j	80003464 <__muldf3+0x350>
    800034cc:	00060b13          	mv	s6,a2
    800034d0:	db1ff06f          	j	80003280 <__muldf3+0x16c>
    800034d4:	7ff00793          	li	a5,2047
    800034d8:	00000713          	li	a4,0
    800034dc:	e61ff06f          	j	8000333c <__muldf3+0x228>
    800034e0:	03f00793          	li	a5,63
    800034e4:	00100713          	li	a4,1
    800034e8:	00f997b3          	sll	a5,s3,a5
    800034ec:	00f037b3          	snez	a5,a5
    800034f0:	00e9d733          	srl	a4,s3,a4
    800034f4:	00f76733          	or	a4,a4,a5
    800034f8:	00777793          	andi	a5,a4,7
    800034fc:	00078a63          	beqz	a5,80003510 <__muldf3+0x3fc>
    80003500:	00f77793          	andi	a5,a4,15
    80003504:	00400613          	li	a2,4
    80003508:	00c78463          	beq	a5,a2,80003510 <__muldf3+0x3fc>
    8000350c:	00470713          	addi	a4,a4,4
    80003510:	00871793          	slli	a5,a4,0x8
    80003514:	0007d863          	bgez	a5,80003524 <__muldf3+0x410>
    80003518:	00100793          	li	a5,1
    8000351c:	00000713          	li	a4,0
    80003520:	e1dff06f          	j	8000333c <__muldf3+0x228>
    80003524:	00971713          	slli	a4,a4,0x9
    80003528:	00c75713          	srli	a4,a4,0xc
    8000352c:	00000793          	li	a5,0
    80003530:	e0dff06f          	j	8000333c <__muldf3+0x228>

0000000080003534 <__clzdi2>:
    80003534:	03855793          	srli	a5,a0,0x38
    80003538:	06079063          	bnez	a5,80003598 <__clzdi2+0x64>
    8000353c:	03800793          	li	a5,56
    80003540:	0080006f          	j	80003548 <__clzdi2+0x14>
    80003544:	02069863          	bnez	a3,80003574 <__clzdi2+0x40>
    80003548:	ff878793          	addi	a5,a5,-8
    8000354c:	00f55733          	srl	a4,a0,a5
    80003550:	0ff77693          	zext.b	a3,a4
    80003554:	fe0798e3          	bnez	a5,80003544 <__clzdi2+0x10>
    80003558:	04000693          	li	a3,64
    8000355c:	0000a797          	auipc	a5,0xa
    80003560:	f8c7b783          	ld	a5,-116(a5) # 8000d4e8 <_GLOBAL_OFFSET_TABLE_+0x8>
    80003564:	00a787b3          	add	a5,a5,a0
    80003568:	0007c503          	lbu	a0,0(a5)
    8000356c:	40a6853b          	subw	a0,a3,a0
    80003570:	00008067          	ret
    80003574:	04000693          	li	a3,64
    80003578:	40f686b3          	sub	a3,a3,a5
    8000357c:	00070513          	mv	a0,a4
    80003580:	0000a797          	auipc	a5,0xa
    80003584:	f687b783          	ld	a5,-152(a5) # 8000d4e8 <_GLOBAL_OFFSET_TABLE_+0x8>
    80003588:	00a787b3          	add	a5,a5,a0
    8000358c:	0007c503          	lbu	a0,0(a5)
    80003590:	40a6853b          	subw	a0,a3,a0
    80003594:	00008067          	ret
    80003598:	00078513          	mv	a0,a5
    8000359c:	00800693          	li	a3,8
    800035a0:	fbdff06f          	j	8000355c <__clzdi2+0x28>

Disassembly of section .text.startup:

00000000800035a4 <main>:
    800035a4:	81010113          	addi	sp,sp,-2032
    800035a8:	fffff7b7          	lui	a5,0xfffff
    800035ac:	00001737          	lui	a4,0x1
    800035b0:	7e113423          	sd	ra,2024(sp)
    800035b4:	7e813023          	sd	s0,2016(sp)
    800035b8:	7d213823          	sd	s2,2000(sp)
    800035bc:	7d313423          	sd	s3,1992(sp)
    800035c0:	7b513c23          	sd	s5,1976(sp)
    800035c4:	7c913c23          	sd	s1,2008(sp)
    800035c8:	7d413023          	sd	s4,1984(sp)
    800035cc:	06078793          	addi	a5,a5,96 # fffffffffffff060 <__global_pointer$+0xffffffff7fff1360>
    800035d0:	80010113          	addi	sp,sp,-2048
    800035d4:	fa070713          	addi	a4,a4,-96 # fa0 <buflen.1+0xf60>
    800035d8:	00f70733          	add	a4,a4,a5
    800035dc:	01010793          	addi	a5,sp,16
    800035e0:	00f707b3          	add	a5,a4,a5
    800035e4:	00002697          	auipc	a3,0x2
    800035e8:	88468693          	addi	a3,a3,-1916 # 80004e68 <x>
    800035ec:	00000717          	auipc	a4,0x0
    800035f0:	10470713          	addi	a4,a4,260 # 800036f0 <ptr>
    800035f4:	00003617          	auipc	a2,0x3
    800035f8:	81460613          	addi	a2,a2,-2028 # 80005e08 <idx>
    800035fc:	00005597          	auipc	a1,0x5
    80003600:	d8c58593          	addi	a1,a1,-628 # 80008388 <val>
    80003604:	1f400513          	li	a0,500
    80003608:	00f13423          	sd	a5,8(sp)
    8000360c:	9f5fe0ef          	jal	80002000 <spmv>
    80003610:	00813783          	ld	a5,8(sp)
    80003614:	00000717          	auipc	a4,0x0
    80003618:	0dc70713          	addi	a4,a4,220 # 800036f0 <ptr>
    8000361c:	00002697          	auipc	a3,0x2
    80003620:	84c68693          	addi	a3,a3,-1972 # 80004e68 <x>
    80003624:	00002617          	auipc	a2,0x2
    80003628:	7e460613          	addi	a2,a2,2020 # 80005e08 <idx>
    8000362c:	00005597          	auipc	a1,0x5
    80003630:	d5c58593          	addi	a1,a1,-676 # 80008388 <val>
    80003634:	1f400513          	li	a0,500
    80003638:	9c9fe0ef          	jal	80002000 <spmv>
    8000363c:	00813403          	ld	s0,8(sp)
    80003640:	00001917          	auipc	s2,0x1
    80003644:	88890913          	addi	s2,s2,-1912 # 80003ec8 <verify_data>
    80003648:	00000993          	li	s3,0
    8000364c:	1f400a93          	li	s5,500
    80003650:	00043583          	ld	a1,0(s0)
    80003654:	00093503          	ld	a0,0(s2)
    80003658:	00843a03          	ld	s4,8(s0)
    8000365c:	a45ff0ef          	jal	800030a0 <__eqdf2>
    80003660:	00050493          	mv	s1,a0
    80003664:	00893503          	ld	a0,8(s2)
    80003668:	000a0593          	mv	a1,s4
    8000366c:	0014b493          	seqz	s1,s1
    80003670:	a31ff0ef          	jal	800030a0 <__eqdf2>
    80003674:	02050e63          	beqz	a0,800036b0 <main+0x10c>
    80003678:	0019851b          	addiw	a0,s3,1
    8000367c:	0095053b          	addw	a0,a0,s1
    80003680:	000012b7          	lui	t0,0x1
    80003684:	80028293          	addi	t0,t0,-2048 # 800 <buflen.1+0x7c0>
    80003688:	00510133          	add	sp,sp,t0
    8000368c:	7e813083          	ld	ra,2024(sp)
    80003690:	7e013403          	ld	s0,2016(sp)
    80003694:	7d813483          	ld	s1,2008(sp)
    80003698:	7d013903          	ld	s2,2000(sp)
    8000369c:	7c813983          	ld	s3,1992(sp)
    800036a0:	7c013a03          	ld	s4,1984(sp)
    800036a4:	7b813a83          	ld	s5,1976(sp)
    800036a8:	7f010113          	addi	sp,sp,2032
    800036ac:	00008067          	ret
    800036b0:	fc0484e3          	beqz	s1,80003678 <main+0xd4>
    800036b4:	0029899b          	addiw	s3,s3,2
    800036b8:	01040413          	addi	s0,s0,16
    800036bc:	01090913          	addi	s2,s2,16
    800036c0:	f95998e3          	bne	s3,s5,80003650 <main+0xac>
    800036c4:	00000513          	li	a0,0
    800036c8:	fb9ff06f          	j	80003680 <main+0xdc>
    800036cc:	ff010113          	addi	sp,sp,-16
    800036d0:	0000a517          	auipc	a0,0xa
    800036d4:	df850513          	addi	a0,a0,-520 # 8000d4c8 <__clz_tab+0x4f0>
    800036d8:	00113423          	sd	ra,8(sp)
    800036dc:	8b0ff0ef          	jal	8000278c <printstr>
    800036e0:	00813083          	ld	ra,8(sp)
    800036e4:	fff00513          	li	a0,-1
    800036e8:	01010113          	addi	sp,sp,16
    800036ec:	00008067          	ret
